---
triple:          'x86_64-apple-darwin'
binary-path:     '/Users/vfrancesi/Development/nova/device_builds/llama.cpp/build-tvos-sim/framework/llama.framework/llama'
relocations:
  - { offset: 0x19135, size: 0x8, addend: 0x0, symName: __ZNSt3__127__tree_balance_after_insertB8ne190107IPNS_16__tree_node_baseIPvEEEEvT_S5_, symObjAddr: 0x2C70, symBinAddr: 0x3B70, symSize: 0x180 }
  - { offset: 0x1A9E9, size: 0x8, addend: 0x0, symName: __ZNSt3__120__throw_length_errorB8ne190107EPKc, symObjAddr: 0x2E00, symBinAddr: 0x3D00, symSize: 0x50 }
  - { offset: 0x1BB93, size: 0x8, addend: 0x0, symName: __ZSt28__throw_bad_array_new_lengthB8ne190107v, symObjAddr: 0x2C30, symBinAddr: 0x3B30, symSize: 0x40 }
  - { offset: 0x20771, size: 0x8, addend: 0x0, symName: __ZNK18llama_adapter_cvec10tensor_forEi, symObjAddr: 0x0, symBinAddr: 0xF00, symSize: 0x40 }
  - { offset: 0x207D9, size: 0x8, addend: 0x0, symName: __ZNK18llama_adapter_cvec8apply_toEP12ggml_contextP11ggml_tensori, symObjAddr: 0x40, symBinAddr: 0xF40, symSize: 0x50 }
  - { offset: 0x20F0B, size: 0x8, addend: 0x0, symName: __ZN18llama_adapter_cvec4initERK11llama_model, symObjAddr: 0x90, symBinAddr: 0xF90, symSize: 0x890 }
  - { offset: 0x24145, size: 0x8, addend: 0x0, symName: __ZNSt3__16__treeINS_12__value_typeIP24ggml_backend_buffer_typeP12ggml_contextEENS_19__map_value_compareIS3_S6_NS_4lessIS3_EELb1EEENS_9allocatorIS6_EEE7destroyEPNS_11__tree_nodeIS6_PvEE, symObjAddr: 0x4390, symBinAddr: 0x5290, symSize: 0x40 }
  - { offset: 0x24295, size: 0x8, addend: 0x0, symName: __ZNKSt3__16vectorINS_10unique_ptrI19ggml_backend_buffer27ggml_backend_buffer_deleterEENS_9allocatorIS4_EEE20__throw_length_errorB8ne190107Ev, symObjAddr: 0x41E0, symBinAddr: 0x50E0, symSize: 0x10 }
  - { offset: 0x242BF, size: 0x8, addend: 0x0, symName: __ZNKSt3__16vectorIhNS_9allocatorIhEEE20__throw_length_errorB8ne190107Ev, symObjAddr: 0x41F0, symBinAddr: 0x50F0, symSize: 0x10 }
  - { offset: 0x242CA, size: 0x8, addend: 0x0, symName: __ZNKSt3__16vectorIP11ggml_tensorNS_9allocatorIS2_EEE20__throw_length_errorB8ne190107Ev, symObjAddr: 0x43D0, symBinAddr: 0x52D0, symSize: 0x10 }
  - { offset: 0x242F4, size: 0x8, addend: 0x0, symName: __ZNSt3__112__hash_tableINS_17__hash_value_typeINS_12basic_stringIcNS_11char_traitsIcEENS_9allocatorIcEEEE25llama_adapter_lora_weightEENS_22__unordered_map_hasherIS7_S9_NS_4hashIS7_EENS_8equal_toIS7_EELb1EEENS_21__unordered_map_equalIS7_S9_SE_SC_Lb1EEENS5_IS9_EEE4findIS7_EENS_15__hash_iteratorIPNS_11__hash_nodeIS9_PvEEEERKT_, symObjAddr: 0x43E0, symBinAddr: 0x52E0, symSize: 0x289 }
  - { offset: 0x242FF, size: 0x8, addend: 0x0, symName: __ZNKSt3__16vectorINS_10unique_ptrI12ggml_context20ggml_context_deleterEENS_9allocatorIS4_EEE20__throw_length_errorB8ne190107Ev, symObjAddr: 0x2DF0, symBinAddr: 0x3CF0, symSize: 0x10 }
  - { offset: 0x24329, size: 0x8, addend: 0x0, symName: __ZNSt3__120__throw_length_errorB8ne190107EPKc, symObjAddr: 0x2E00, symBinAddr: 0x3D00, symSize: 0x50 }
  - { offset: 0x24373, size: 0x8, addend: 0x0, symName: __ZN18llama_adapter_cvec5applyERK11llama_modelPKfmiii, symObjAddr: 0x920, symBinAddr: 0x1820, symSize: 0x130 }
  - { offset: 0x2492D, size: 0x8, addend: 0x0, symName: __ZN18llama_adapter_lora10get_weightEP11ggml_tensor, symObjAddr: 0xA50, symBinAddr: 0x1950, symSize: 0x100 }
  - { offset: 0x24FAD, size: 0x8, addend: 0x0, symName: __ZNSt3__112__hash_tableINS_17__hash_value_typeINS_12basic_stringIcNS_11char_traitsIcEENS_9allocatorIcEEEE25llama_adapter_lora_weightEENS_22__unordered_map_hasherIS7_S9_NS_4hashIS7_EENS_8equal_toIS7_EELb1EEENS_21__unordered_map_equalIS7_S9_SE_SC_Lb1EEENS5_IS9_EEE4findIS7_EENS_15__hash_iteratorIPNS_11__hash_nodeIS9_PvEEEERKT_, symObjAddr: 0x43E0, symBinAddr: 0x52E0, symSize: 0x289 }
  - { offset: 0x2529C, size: 0x8, addend: 0x0, symName: __ZNKSt3__112basic_stringIcNS_11char_traitsIcEENS_9allocatorIcEEE20__throw_length_errorB8ne190107Ev, symObjAddr: 0x3450, symBinAddr: 0x4350, symSize: 0x10 }
  - { offset: 0x252C6, size: 0x8, addend: 0x0, symName: __ZNKSt3__16vectorIP24ggml_backend_buffer_typeNS_9allocatorIS2_EEE20__throw_length_errorB8ne190107Ev, symObjAddr: 0x3460, symBinAddr: 0x4360, symSize: 0x10 }
  - { offset: 0x252D1, size: 0x8, addend: 0x0, symName: __ZNSt3__112basic_stringIcNS_11char_traitsIcEENS_9allocatorIcEEEC1B8ne190107ILi0EEEPKc, symObjAddr: 0xB50, symBinAddr: 0x1A50, symSize: 0x90 }
  - { offset: 0x26EE3, size: 0x8, addend: 0x0, symName: _llama_adapter_lora_init, symObjAddr: 0xBE0, symBinAddr: 0x1AE0, symSize: 0x2010 }
  - { offset: 0x2E7D2, size: 0x8, addend: 0x0, symName: __ZNSt3__16__treeINS_12__value_typeINS_12basic_stringIcNS_11char_traitsIcEENS_9allocatorIcEEEE25llama_adapter_lora_weightEENS_19__map_value_compareIS7_S9_NS_4lessIS7_EELb1EEENS5_IS9_EEE4findIS7_EENS_15__tree_iteratorIS9_PNS_11__tree_nodeIS9_PvEElEERKT_, symObjAddr: 0x30B0, symBinAddr: 0x3FB0, symSize: 0x110 }
  - { offset: 0x2EB19, size: 0x8, addend: 0x0, symName: __ZNSt3__16__treeINS_12__value_typeINS_12basic_stringIcNS_11char_traitsIcEENS_9allocatorIcEEEE25llama_adapter_lora_weightEENS_19__map_value_compareIS7_S9_NS_4lessIS7_EELb1EEENS5_IS9_EEE25__emplace_unique_key_argsIS7_JRKNS_21piecewise_construct_tENS_5tupleIJRKS7_EEENSK_IJEEEEEENS_4pairINS_15__tree_iteratorIS9_PNS_11__tree_nodeIS9_PvEElEEbEERKT_DpOT0_, symObjAddr: 0x31C0, symBinAddr: 0x40C0, symSize: 0x1C0 }
  - { offset: 0x2F33A, size: 0x8, addend: 0x0, symName: __ZNSt3__112__hash_tableINS_17__hash_value_typeINS_12basic_stringIcNS_11char_traitsIcEENS_9allocatorIcEEEE25llama_adapter_lora_weightEENS_22__unordered_map_hasherIS7_S9_NS_4hashIS7_EENS_8equal_toIS7_EELb1EEENS_21__unordered_map_equalIS7_S9_SE_SC_Lb1EEENS5_IS9_EEE25__emplace_unique_key_argsIS7_JRKNS_21piecewise_construct_tENS_5tupleIJRKS7_EEENSO_IJEEEEEENS_4pairINS_15__hash_iteratorIPNS_11__hash_nodeIS9_PvEEEEbEERKT_DpOT0_, symObjAddr: 0x3470, symBinAddr: 0x4370, symSize: 0x5C0 }
  - { offset: 0x2FDC0, size: 0x8, addend: 0x0, symName: '__ZZL28llama_adapter_lora_init_implR11llama_modelPKcR18llama_adapter_loraENK3$_4clEP11ggml_tensorS7_', symObjAddr: 0x2EE0, symBinAddr: 0x3DE0, symSize: 0x1A0 }
  - { offset: 0x303CE, size: 0x8, addend: 0x0, symName: __ZNSt3__16__treeINS_12__value_typeINS_12basic_stringIcNS_11char_traitsIcEENS_9allocatorIcEEEE25llama_adapter_lora_weightEENS_19__map_value_compareIS7_S9_NS_4lessIS7_EELb1EEENS5_IS9_EEE7destroyEPNS_11__tree_nodeIS9_PvEE, symObjAddr: 0x4200, symBinAddr: 0x5100, symSize: 0x50 }
  - { offset: 0x30718, size: 0x8, addend: 0x0, symName: __ZNKSt3__16vectorIP24ggml_backend_buffer_typeNS_9allocatorIS2_EEE20__throw_length_errorB8ne190107Ev, symObjAddr: 0x3460, symBinAddr: 0x4360, symSize: 0x10 }
  - { offset: 0x30742, size: 0x8, addend: 0x0, symName: __ZNSt3__112__hash_tableINS_17__hash_value_typeINS_12basic_stringIcNS_11char_traitsIcEENS_9allocatorIcEEEE25llama_adapter_lora_weightEENS_22__unordered_map_hasherIS7_S9_NS_4hashIS7_EENS_8equal_toIS7_EELb1EEENS_21__unordered_map_equalIS7_S9_SE_SC_Lb1EEENS5_IS9_EEE25__emplace_unique_key_argsIS7_JRKNS_21piecewise_construct_tENS_5tupleIJRKS7_EEENSO_IJEEEEEENS_4pairINS_15__hash_iteratorIPNS_11__hash_nodeIS9_PvEEEEbEERKT_DpOT0_, symObjAddr: 0x3470, symBinAddr: 0x4370, symSize: 0x5C0 }
  - { offset: 0x3074D, size: 0x8, addend: 0x0, symName: __ZNSt3__110unique_ptrI19ggml_backend_buffer27ggml_backend_buffer_deleterED1B8ne190107Ev, symObjAddr: 0x2EB0, symBinAddr: 0x3DB0, symSize: 0x30 }
  - { offset: 0x307E1, size: 0x8, addend: 0x0, symName: __ZNSt3__110unique_ptrI12ggml_context20ggml_context_deleterED1B8ne190107Ev, symObjAddr: 0x2E80, symBinAddr: 0x3D80, symSize: 0x30 }
  - { offset: 0x30875, size: 0x8, addend: 0x0, symName: __ZNSt3__110unique_ptrI12gguf_context20gguf_context_deleterED1B8ne190107Ev, symObjAddr: 0x3080, symBinAddr: 0x3F80, symSize: 0x30 }
  - { offset: 0x30909, size: 0x8, addend: 0x0, symName: __ZN18llama_adapter_loraD2Ev, symObjAddr: 0x4250, symBinAddr: 0x5150, symSize: 0x140 }
  - { offset: 0x31227, size: 0x8, addend: 0x0, symName: _llama_adapter_lora_free, symObjAddr: 0x2C00, symBinAddr: 0x3B00, symSize: 0x30 }
  - { offset: 0x312B7, size: 0x8, addend: 0x0, symName: __ZNSt12length_errorC1B8ne190107EPKc, symObjAddr: 0x2E50, symBinAddr: 0x3D50, symSize: 0x30 }
  - { offset: 0x317BA, size: 0x8, addend: 0x0, symName: __ZNKSt3__16vectorIhNS_9allocatorIhEEE20__throw_length_errorB8ne190107Ev, symObjAddr: 0x41F0, symBinAddr: 0x50F0, symSize: 0x10 }
  - { offset: 0x317E4, size: 0x8, addend: 0x0, symName: __ZNSt3__16__treeINS_12__value_typeINS_12basic_stringIcNS_11char_traitsIcEENS_9allocatorIcEEEE25llama_adapter_lora_weightEENS_19__map_value_compareIS7_S9_NS_4lessIS7_EELb1EEENS5_IS9_EEE7destroyEPNS_11__tree_nodeIS9_PvEE, symObjAddr: 0x4200, symBinAddr: 0x5100, symSize: 0x50 }
  - { offset: 0x31EF2, size: 0x8, addend: 0x0, symName: __ZNSt3__112basic_stringIcNS_11char_traitsIcEENS_9allocatorIcEEE25__init_copy_ctor_externalEPKcm, symObjAddr: 0x33D0, symBinAddr: 0x42D0, symSize: 0x80 }
  - { offset: 0x3211E, size: 0x8, addend: 0x0, symName: __ZNSt3__110unique_ptrINS_11__tree_nodeINS_12__value_typeINS_12basic_stringIcNS_11char_traitsIcEENS_9allocatorIcEEEE25llama_adapter_lora_weightEEPvEENS_22__tree_node_destructorINS6_ISC_EEEEED1B8ne190107Ev, symObjAddr: 0x3380, symBinAddr: 0x4280, symSize: 0x50 }
  - { offset: 0x32AD3, size: 0x8, addend: 0x0, symName: __ZNKSt3__121__murmur2_or_cityhashImLm64EEclB8ne190107EPKvm, symObjAddr: 0x3A80, symBinAddr: 0x4980, symSize: 0x4B0 }
  - { offset: 0x335FC, size: 0x8, addend: 0x0, symName: __ZNSt3__112__hash_tableINS_17__hash_value_typeINS_12basic_stringIcNS_11char_traitsIcEENS_9allocatorIcEEEE25llama_adapter_lora_weightEENS_22__unordered_map_hasherIS7_S9_NS_4hashIS7_EENS_8equal_toIS7_EELb1EEENS_21__unordered_map_equalIS7_S9_SE_SC_Lb1EEENS5_IS9_EEE11__do_rehashILb1EEEvm, symObjAddr: 0x3F30, symBinAddr: 0x4E30, symSize: 0x2B0 }
  - { offset: 0x33ABC, size: 0x8, addend: 0x0, symName: __ZNSt3__110unique_ptrINS_11__hash_nodeINS_17__hash_value_typeINS_12basic_stringIcNS_11char_traitsIcEENS_9allocatorIcEEEE25llama_adapter_lora_weightEEPvEENS_22__hash_node_destructorINS6_ISC_EEEEED1B8ne190107Ev, symObjAddr: 0x3A30, symBinAddr: 0x4930, symSize: 0x50 }
  - { offset: 0x3696C, size: 0x8, addend: 0x0, symName: __ZL14LLM_ARCH_NAMES, symObjAddr: 0xB5E48, symBinAddr: 0x296370, symSize: 0x0 }
  - { offset: 0x46782, size: 0x8, addend: 0x0, symName: __ZNSt3__120__throw_out_of_rangeB8ne190107EPKc, symObjAddr: 0x1270, symBinAddr: 0x6650, symSize: 0x50 }
  - { offset: 0x483C8, size: 0x8, addend: 0x0, symName: __ZL12LLM_KV_NAMES, symObjAddr: 0xB5E60, symBinAddr: 0x296388, symSize: 0x0 }
  - { offset: 0x4881F, size: 0x8, addend: 0x0, symName: __ZL16LLM_TENSOR_NAMES, symObjAddr: 0xB5E78, symBinAddr: 0x2963A0, symSize: 0x0 }
  - { offset: 0x493EE, size: 0x8, addend: 0x0, symName: __ZL16LLM_TENSOR_INFOS, symObjAddr: 0xB5E90, symBinAddr: 0x2963B8, symSize: 0x0 }
  - { offset: 0x499DC, size: 0x8, addend: 0x0, symName: __ZNSt3__13mapI8llm_archPKcNS_4lessIS1_EENS_9allocatorINS_4pairIKS1_S3_EEEEED1B8ne190107Ev, symObjAddr: 0x0, symBinAddr: 0x5570, symSize: 0x10 }
  - { offset: 0x49A8F, size: 0x8, addend: 0x0, symName: __ZNSt3__16__treeINS_12__value_typeI8llm_archPKcEENS_19__map_value_compareIS2_S5_NS_4lessIS2_EELb1EEENS_9allocatorIS5_EEE7destroyEPNS_11__tree_nodeIS5_PvEE, symObjAddr: 0xA70, symBinAddr: 0x5E50, symSize: 0x40 }
  - { offset: 0x49C51, size: 0x8, addend: 0x0, symName: __ZNSt3__13mapI6llm_kvPKcNS_4lessIS1_EENS_9allocatorINS_4pairIKS1_S3_EEEEED1B8ne190107Ev, symObjAddr: 0x10, symBinAddr: 0x5580, symSize: 0x10 }
  - { offset: 0x49D04, size: 0x8, addend: 0x0, symName: __ZNSt3__16__treeINS_12__value_typeI6llm_kvPKcEENS_19__map_value_compareIS2_S5_NS_4lessIS2_EELb1EEENS_9allocatorIS5_EEE7destroyEPNS_11__tree_nodeIS5_PvEE, symObjAddr: 0xC20, symBinAddr: 0x6000, symSize: 0x40 }
  - { offset: 0x4A1B7, size: 0x8, addend: 0x0, symName: __ZNSt3__13mapI10llm_tensorPKcNS_4lessIS1_EENS_9allocatorINS_4pairIKS1_S3_EEEEEC2B8ne190107ESt16initializer_listIS9_ERKS5_, symObjAddr: 0xC60, symBinAddr: 0x6040, symSize: 0x170 }
  - { offset: 0x4A6FB, size: 0x8, addend: 0x0, symName: __ZNSt3__13mapI10llm_tensorPKcNS_4lessIS1_EENS_9allocatorINS_4pairIKS1_S3_EEEEE6insertB8ne190107INS_20__map_const_iteratorINS_21__tree_const_iteratorINS_12__value_typeIS1_S3_EEPNS_11__tree_nodeISG_PvEElEEEEEEvT_SN_, symObjAddr: 0x4C0, symBinAddr: 0x5A30, symSize: 0x110 }
  - { offset: 0x4A741, size: 0x8, addend: 0x0, symName: __ZNSt3__13mapI10llm_tensorPKcNS_4lessIS1_EENS_9allocatorINS_4pairIKS1_S3_EEEEE6insertB8ne190107INS_20__map_const_iteratorINS_21__tree_const_iteratorINS_12__value_typeIS1_S3_EEPNS_11__tree_nodeISG_PvEElEEEEEEvT_SN_, symObjAddr: 0x4C0, symBinAddr: 0x5A30, symSize: 0x110 }
  - { offset: 0x4AA73, size: 0x8, addend: 0x0, symName: __ZNSt3__16__treeINS_12__value_typeI8llm_archNS_3mapI10llm_tensorPKcNS_4lessIS4_EENS_9allocatorINS_4pairIKS4_S6_EEEEEEEENS_19__map_value_compareIS2_SF_NS7_IS2_EELb1EEENS9_ISF_EEE30__emplace_hint_unique_key_argsIS2_JRKNSA_IKS2_SE_EEEEENSA_INS_15__tree_iteratorISF_PNS_11__tree_nodeISF_PvEElEEbEENS_21__tree_const_iteratorISF_SU_lEERKT_DpOT0_, symObjAddr: 0xDD0, symBinAddr: 0x61B0, symSize: 0xF0 }
  - { offset: 0x4B02D, size: 0x8, addend: 0x0, symName: __ZNSt3__16__treeINS_12__value_typeI10llm_tensorPKcEENS_19__map_value_compareIS2_S5_NS_4lessIS2_EELb1EEENS_9allocatorIS5_EEE7destroyEPNS_11__tree_nodeIS5_PvEE, symObjAddr: 0x8C0, symBinAddr: 0x5CA0, symSize: 0x40 }
  - { offset: 0x4B17D, size: 0x8, addend: 0x0, symName: __ZNSt3__16__treeINS_12__value_typeI8llm_archNS_3mapI10llm_tensorPKcNS_4lessIS4_EENS_9allocatorINS_4pairIKS4_S6_EEEEEEEENS_19__map_value_compareIS2_SF_NS7_IS2_EELb1EEENS9_ISF_EEE7destroyEPNS_11__tree_nodeISF_PvEE, symObjAddr: 0x1070, symBinAddr: 0x6450, symSize: 0x50 }
  - { offset: 0x4B40E, size: 0x8, addend: 0x0, symName: __ZNSt3__13mapI8llm_archNS0_I10llm_tensorPKcNS_4lessIS2_EENS_9allocatorINS_4pairIKS2_S4_EEEEEENS5_IS1_EENS7_INS8_IKS1_SC_EEEEED1B8ne190107Ev, symObjAddr: 0x20, symBinAddr: 0x5590, symSize: 0x10 }
  - { offset: 0x4B533, size: 0x8, addend: 0x0, symName: __ZNSt3__13mapI10llm_tensor15llm_tensor_infoNS_4lessIS1_EENS_9allocatorINS_4pairIKS1_S2_EEEEED1B8ne190107Ev, symObjAddr: 0x30, symBinAddr: 0x55A0, symSize: 0x10 }
  - { offset: 0x4B5E6, size: 0x8, addend: 0x0, symName: __ZNSt3__16__treeINS_12__value_typeI10llm_tensor15llm_tensor_infoEENS_19__map_value_compareIS2_S4_NS_4lessIS2_EELb1EEENS_9allocatorIS4_EEE7destroyEPNS_11__tree_nodeIS4_PvEE, symObjAddr: 0x1230, symBinAddr: 0x6610, symSize: 0x40 }
  - { offset: 0x4B73B, size: 0x8, addend: 0x0, symName: __ZN6LLM_KVC2E8llm_archPKc, symObjAddr: 0x40, symBinAddr: 0x55B0, symSize: 0x10 }
  - { offset: 0x4B7A3, size: 0x8, addend: 0x0, symName: __ZN6LLM_KVC1E8llm_archPKc, symObjAddr: 0x50, symBinAddr: 0x55C0, symSize: 0x10 }
  - { offset: 0x4BA72, size: 0x8, addend: 0x0, symName: __ZNK6LLM_KVclE6llm_kv, symObjAddr: 0x60, symBinAddr: 0x55D0, symSize: 0x130 }
  - { offset: 0x4C31C, size: 0x8, addend: 0x0, symName: __ZNK11LLM_TN_IMPL3strEv, symObjAddr: 0x190, symBinAddr: 0x5700, symSize: 0x1B0 }
  - { offset: 0x4CBF1, size: 0x8, addend: 0x0, symName: __Z13llm_arch_name8llm_arch, symObjAddr: 0x340, symBinAddr: 0x58B0, symSize: 0x50 }
  - { offset: 0x4CC32, size: 0x8, addend: 0x0, symName: __Z13llm_arch_name8llm_arch, symObjAddr: 0x340, symBinAddr: 0x58B0, symSize: 0x50 }
  - { offset: 0x4CC47, size: 0x8, addend: 0x0, symName: __Z13llm_arch_name8llm_arch, symObjAddr: 0x340, symBinAddr: 0x58B0, symSize: 0x50 }
  - { offset: 0x4CC65, size: 0x8, addend: 0x0, symName: __Z13llm_arch_name8llm_arch, symObjAddr: 0x340, symBinAddr: 0x58B0, symSize: 0x50 }
  - { offset: 0x4CE56, size: 0x8, addend: 0x0, symName: __Z20llm_arch_from_stringRKNSt3__112basic_stringIcNS_11char_traitsIcEENS_9allocatorIcEEEE, symObjAddr: 0x390, symBinAddr: 0x5900, symSize: 0xE0 }
  - { offset: 0x4D0F2, size: 0x8, addend: 0x0, symName: __ZNKSt3__112basic_stringIcNS_11char_traitsIcEENS_9allocatorIcEEE20__throw_out_of_rangeB8ne190107Ev, symObjAddr: 0x12F0, symBinAddr: 0x66D0, symSize: 0x10 }
  - { offset: 0x4D221, size: 0x8, addend: 0x0, symName: __Z19llm_tensor_info_for10llm_tensor, symObjAddr: 0x470, symBinAddr: 0x59E0, symSize: 0x50 }
  - { offset: 0x4D5B3, size: 0x8, addend: 0x0, symName: __ZNSt3__16__treeINS_12__value_typeI10llm_tensorPKcEENS_19__map_value_compareIS2_S5_NS_4lessIS2_EELb1EEENS_9allocatorIS5_EEE12__find_equalIS2_EERPNS_16__tree_node_baseIPvEENS_21__tree_const_iteratorIS5_PNS_11__tree_nodeIS5_SF_EElEERPNS_15__tree_end_nodeISH_EESI_RKT_, symObjAddr: 0x5D0, symBinAddr: 0x5B40, symSize: 0x160 }
  - { offset: 0x4DE6E, size: 0x8, addend: 0x0, symName: __ZNSt3__13mapI8llm_archPKcNS_4lessIS1_EENS_9allocatorINS_4pairIKS1_S3_EEEEEC2B8ne190107ESt16initializer_listIS9_ERKS5_, symObjAddr: 0x900, symBinAddr: 0x5CE0, symSize: 0x170 }
  - { offset: 0x4E81D, size: 0x8, addend: 0x0, symName: __ZNSt3__13mapI6llm_kvPKcNS_4lessIS1_EENS_9allocatorINS_4pairIKS1_S3_EEEEEC2B8ne190107ESt16initializer_listIS9_ERKS5_, symObjAddr: 0xAB0, symBinAddr: 0x5E90, symSize: 0x170 }
  - { offset: 0x4F250, size: 0x8, addend: 0x0, symName: __ZNSt3__16__treeINS_12__value_typeI8llm_archNS_3mapI10llm_tensorPKcNS_4lessIS4_EENS_9allocatorINS_4pairIKS4_S6_EEEEEEEENS_19__map_value_compareIS2_SF_NS7_IS2_EELb1EEENS9_ISF_EEE12__find_equalIS2_EERPNS_16__tree_node_baseIPvEENS_21__tree_const_iteratorISF_PNS_11__tree_nodeISF_SN_EElEERPNS_15__tree_end_nodeISP_EESQ_RKT_, symObjAddr: 0xEC0, symBinAddr: 0x62A0, symSize: 0x160 }
  - { offset: 0x4F692, size: 0x8, addend: 0x0, symName: __ZNSt3__110unique_ptrINS_11__tree_nodeINS_12__value_typeI8llm_archNS_3mapI10llm_tensorPKcNS_4lessIS5_EENS_9allocatorINS_4pairIKS5_S7_EEEEEEEEPvEENS_22__tree_node_destructorINSA_ISI_EEEEED1B8ne190107Ev, symObjAddr: 0x1020, symBinAddr: 0x6400, symSize: 0x50 }
  - { offset: 0x4FEAC, size: 0x8, addend: 0x0, symName: __ZNSt3__13mapI10llm_tensor15llm_tensor_infoNS_4lessIS1_EENS_9allocatorINS_4pairIKS1_S2_EEEEEC2B8ne190107ESt16initializer_listIS8_ERKS4_, symObjAddr: 0x10C0, symBinAddr: 0x64A0, symSize: 0x170 }
  - { offset: 0x50448, size: 0x8, addend: 0x0, symName: __ZNSt12out_of_rangeC1B8ne190107EPKc, symObjAddr: 0x12C0, symBinAddr: 0x66A0, symSize: 0x30 }
  - { offset: 0x523D6, size: 0x8, addend: 0x0, symName: __ZN12llama_sbatch14reserve_ubatchEmb, symObjAddr: 0x0, symBinAddr: 0xA310, symSize: 0x320 }
  - { offset: 0x5A602, size: 0x8, addend: 0x0, symName: '__ZNSt3__111__introsortINS_17_ClassicAlgPolicyERZN12llama_sbatch10from_batchERK11llama_batchmbbE3$_0PxLb0EEEvT1_S9_T0_NS_15iterator_traitsIS9_E15difference_typeEb', symObjAddr: 0x2220, symBinAddr: 0xC470, symSize: 0x1600 }
  - { offset: 0x5B609, size: 0x8, addend: 0x0, symName: '__ZNSt3__127__insertion_sort_incompleteB8ne190107INS_17_ClassicAlgPolicyERZN12llama_sbatch10from_batchERK11llama_batchmbbE3$_0PxEEbT1_S9_T0_', symObjAddr: 0x3DC0, symBinAddr: 0xE010, symSize: 0x310 }
  - { offset: 0x5B94B, size: 0x8, addend: 0x0, symName: '__ZNSt3__111__introsortINS_17_ClassicAlgPolicyERZN12llama_sbatch10from_batchERK11llama_batchmbbE3$_1P16llama_sbatch_seqLb0EEEvT1_SA_T0_NS_15iterator_traitsISA_E15difference_typeEb', symObjAddr: 0x42C0, symBinAddr: 0xE510, symSize: 0x15D0 }
  - { offset: 0x5D1F6, size: 0x8, addend: 0x0, symName: '__ZNSt3__127__insertion_sort_incompleteB8ne190107INS_17_ClassicAlgPolicyERZN12llama_sbatch10from_batchERK11llama_batchmbbE3$_1P16llama_sbatch_seqEEbT1_SA_T0_', symObjAddr: 0x5890, symBinAddr: 0xFAE0, symSize: 0x6A0 }
  - { offset: 0x5F287, size: 0x8, addend: 0x0, symName: '__ZNSt3__17__sort3B8ne190107INS_17_ClassicAlgPolicyERZN12llama_sbatch10from_batchERK11llama_batchmbbE3$_0PxEEjT1_S9_S9_T0_', symObjAddr: 0x3AC0, symBinAddr: 0xDD10, symSize: 0x300 }
  - { offset: 0x5F6CF, size: 0x8, addend: 0x0, symName: '__ZNSt3__124__sort5_maybe_branchlessB8ne190107INS_17_ClassicAlgPolicyERZN12llama_sbatch10from_batchERK11llama_batchmbbE3$_0PxTnNS_9enable_ifIXntsr21__use_branchless_sortIT0_T1_EE5valueEiE4typeELi0EEEvSB_SB_SB_SB_SB_SA_', symObjAddr: 0x3820, symBinAddr: 0xDA70, symSize: 0x2A0 }
  - { offset: 0x5FAA1, size: 0x8, addend: 0x0, symName: '__ZNSt3__17__sort4B8ne190107INS_17_ClassicAlgPolicyERZN12llama_sbatch10from_batchERK11llama_batchmbbE3$_0PxEEvT1_S9_S9_S9_T0_', symObjAddr: 0x40D0, symBinAddr: 0xE320, symSize: 0x1F0 }
  - { offset: 0x6071F, size: 0x8, addend: 0x0, symName: '__ZNSt3__17__sort4B8ne190107INS_17_ClassicAlgPolicyERZN12llama_sbatch10from_batchERK11llama_batchmbbE3$_1P16llama_sbatch_seqEEvT1_SA_SA_SA_T0_', symObjAddr: 0x5F30, symBinAddr: 0x10180, symSize: 0x25E }
  - { offset: 0x62A44, size: 0x8, addend: 0x0, symName: __ZN12llama_sbatch14reserve_ubatchEmb, symObjAddr: 0x0, symBinAddr: 0xA310, symSize: 0x320 }
  - { offset: 0x63416, size: 0x8, addend: 0x0, symName: __ZNSt3__16vectorIiNS_9allocatorIiEEE8__appendEm, symObjAddr: 0x1A30, symBinAddr: 0xBD40, symSize: 0x160 }
  - { offset: 0x6387B, size: 0x8, addend: 0x0, symName: __ZNSt3__16vectorIfNS_9allocatorIfEEE8__appendEm, symObjAddr: 0x1C60, symBinAddr: 0xBEB0, symSize: 0x160 }
  - { offset: 0x63CE0, size: 0x8, addend: 0x0, symName: __ZNSt3__16vectorIPiNS_9allocatorIS1_EEE8__appendEm, symObjAddr: 0x1DD0, symBinAddr: 0xC020, symSize: 0x160 }
  - { offset: 0x64145, size: 0x8, addend: 0x0, symName: __ZNKSt3__16vectorIaNS_9allocatorIaEEE20__throw_length_errorB8ne190107Ev, symObjAddr: 0x1F40, symBinAddr: 0xC190, symSize: 0x10 }
  - { offset: 0x6416F, size: 0x8, addend: 0x0, symName: __ZNKSt3__16vectorIxNS_9allocatorIxEEE20__throw_length_errorB8ne190107Ev, symObjAddr: 0x1F50, symBinAddr: 0xC1A0, symSize: 0x10 }
  - { offset: 0x6460A, size: 0x8, addend: 0x0, symName: __ZN12llama_sbatch17add_seq_to_ubatchER12llama_ubatchR16llama_sbatch_seqm, symObjAddr: 0x320, symBinAddr: 0xA630, symSize: 0xAD0 }
  - { offset: 0x65A29, size: 0x8, addend: 0x0, symName: __ZNKSt3__16vectorIxNS_9allocatorIxEEE20__throw_length_errorB8ne190107Ev, symObjAddr: 0x1F50, symBinAddr: 0xC1A0, symSize: 0x10 }
  - { offset: 0x65A53, size: 0x8, addend: 0x0, symName: __ZNSt3__16vectorIxNS_9allocatorIxEEE8__appendEm, symObjAddr: 0x1F60, symBinAddr: 0xC1B0, symSize: 0x160 }
  - { offset: 0x65A8F, size: 0x8, addend: 0x0, symName: __ZN12llama_sbatch12split_simpleEm, symObjAddr: 0xDF0, symBinAddr: 0xB100, symSize: 0xA0 }
  - { offset: 0x65BB6, size: 0x8, addend: 0x0, symName: __ZN12llama_sbatch11split_equalEm, symObjAddr: 0xE90, symBinAddr: 0xB1A0, symSize: 0x120 }
  - { offset: 0x65D15, size: 0x8, addend: 0x0, symName: __ZN12llama_sbatch9split_seqEm, symObjAddr: 0xFB0, symBinAddr: 0xB2C0, symSize: 0xA0 }
  - { offset: 0x65F1D, size: 0x8, addend: 0x0, symName: __ZN12llama_sbatch10from_batchERK11llama_batchmbb, symObjAddr: 0x1050, symBinAddr: 0xB360, symSize: 0x3F0 }
  - { offset: 0x66C57, size: 0x8, addend: 0x0, symName: __ZNSt3__16vectorIxNS_9allocatorIxEEE8__appendEm, symObjAddr: 0x1F60, symBinAddr: 0xC1B0, symSize: 0x160 }
  - { offset: 0x670BC, size: 0x8, addend: 0x0, symName: __ZNSt3__16vectorI16llama_sbatch_seqNS_9allocatorIS1_EEE8__appendEm, symObjAddr: 0x20C0, symBinAddr: 0xC310, symSize: 0x150 }
  - { offset: 0x6752E, size: 0x8, addend: 0x0, symName: __ZNKSt3__16vectorI16llama_sbatch_seqNS_9allocatorIS1_EEE20__throw_length_errorB8ne190107Ev, symObjAddr: 0x2210, symBinAddr: 0xC460, symSize: 0x10 }
  - { offset: 0x67558, size: 0x8, addend: 0x0, symName: '__ZNSt3__111__introsortINS_17_ClassicAlgPolicyERZN12llama_sbatch10from_batchERK11llama_batchmbbE3$_0PxLb0EEEvT1_S9_T0_NS_15iterator_traitsIS9_E15difference_typeEb', symObjAddr: 0x2220, symBinAddr: 0xC470, symSize: 0x1600 }
  - { offset: 0x6788B, size: 0x8, addend: 0x0, symName: __ZN18llama_batch_allocrC2E11llama_batchi, symObjAddr: 0x1440, symBinAddr: 0xB750, symSize: 0x430 }
  - { offset: 0x68613, size: 0x8, addend: 0x0, symName: __ZN18llama_batch_allocrC1E11llama_batchi, symObjAddr: 0x1870, symBinAddr: 0xBB80, symSize: 0x10 }
  - { offset: 0x6867B, size: 0x8, addend: 0x0, symName: _llama_batch_get_one, symObjAddr: 0x1880, symBinAddr: 0xBB90, symSize: 0x30 }
  - { offset: 0x686B5, size: 0x8, addend: 0x0, symName: _llama_batch_init, symObjAddr: 0x18B0, symBinAddr: 0xBBC0, symSize: 0xE0 }
  - { offset: 0x687BA, size: 0x8, addend: 0x0, symName: _llama_batch_free, symObjAddr: 0x1990, symBinAddr: 0xBCA0, symSize: 0xA0 }
  - { offset: 0x68B05, size: 0x8, addend: 0x0, symName: __ZNKSt3__16vectorIiNS_9allocatorIiEEE20__throw_length_errorB8ne190107Ev, symObjAddr: 0x1B90, symBinAddr: 0xBEA0, symSize: 0x10 }
  - { offset: 0x68EA0, size: 0x8, addend: 0x0, symName: __ZNKSt3__16vectorIfNS_9allocatorIfEEE20__throw_length_errorB8ne190107Ev, symObjAddr: 0x1DC0, symBinAddr: 0xC010, symSize: 0x10 }
  - { offset: 0x68ECA, size: 0x8, addend: 0x0, symName: __ZNSt3__16vectorIPiNS_9allocatorIS1_EEE8__appendEm, symObjAddr: 0x1DD0, symBinAddr: 0xC020, symSize: 0x160 }
  - { offset: 0x69164, size: 0x8, addend: 0x0, symName: __ZNKSt3__16vectorIPiNS_9allocatorIS1_EEE20__throw_length_errorB8ne190107Ev, symObjAddr: 0x1F30, symBinAddr: 0xC180, symSize: 0x10 }
  - { offset: 0x6918E, size: 0x8, addend: 0x0, symName: __ZNKSt3__16vectorIaNS_9allocatorIaEEE20__throw_length_errorB8ne190107Ev, symObjAddr: 0x1F40, symBinAddr: 0xC190, symSize: 0x10 }
  - { offset: 0x6B487, size: 0x8, addend: 0x0, symName: __ZL18LLM_CHAT_TEMPLATES, symObjAddr: 0x7D2E8, symBinAddr: 0x2963D0, symSize: 0x0 }
  - { offset: 0x7206C, size: 0x8, addend: 0x0, symName: __ZNSt3__124__put_character_sequenceB8ne190107IcNS_11char_traitsIcEEEERNS_13basic_ostreamIT_T0_EES7_PKS4_m, symObjAddr: 0x4F40, symBinAddr: 0x14F60, symSize: 0x150 }
  - { offset: 0x740B2, size: 0x8, addend: 0x0, symName: __ZNSt3__1eqB8ne190107IcNS_11char_traitsIcEENS_9allocatorIcEEEEbRKNS_12basic_stringIT_T0_T1_EEPKS6_, symObjAddr: 0x4290, symBinAddr: 0x145E0, symSize: 0x80 }
  - { offset: 0x74237, size: 0x8, addend: 0x0, symName: __ZNSt3__1lsB8ne190107IcNS_11char_traitsIcEENS_9allocatorIcEEEERNS_13basic_ostreamIT_T0_EES9_RKNS_12basic_stringIS6_S7_T1_EE, symObjAddr: 0x4310, symBinAddr: 0x14660, symSize: 0x30 }
  - { offset: 0x74C8A, size: 0x8, addend: 0x0, symName: __ZNSt3__116__pad_and_outputB8ne190107IcNS_11char_traitsIcEEEENS_19ostreambuf_iteratorIT_T0_EES6_PKS4_S8_S8_RNS_8ios_baseES4_, symObjAddr: 0x5090, symBinAddr: 0x150B0, symSize: 0x167 }
  - { offset: 0x76B27, size: 0x8, addend: 0x0, symName: __ZNSt3__13mapINS_12basic_stringIcNS_11char_traitsIcEENS_9allocatorIcEEEE17llm_chat_templateNS_4lessIS6_EENS4_INS_4pairIKS6_S7_EEEEED1B8ne190107Ev, symObjAddr: 0x0, symBinAddr: 0x103E0, symSize: 0x10 }
  - { offset: 0x76BDA, size: 0x8, addend: 0x0, symName: __ZNSt3__16__treeINS_12__value_typeINS_12basic_stringIcNS_11char_traitsIcEENS_9allocatorIcEEEE17llm_chat_templateEENS_19__map_value_compareIS7_S9_NS_4lessIS7_EELb1EEENS5_IS9_EEE7destroyEPNS_11__tree_nodeIS9_PvEE, symObjAddr: 0x4E70, symBinAddr: 0x14F10, symSize: 0x50 }
  - { offset: 0x76F0B, size: 0x8, addend: 0x0, symName: __Z26llm_chat_template_from_strRKNSt3__112basic_stringIcNS_11char_traitsIcEENS_9allocatorIcEEEE, symObjAddr: 0x10, symBinAddr: 0x103F0, symSize: 0x20 }
  - { offset: 0x76F3E, size: 0x8, addend: 0x0, symName: __ZNKSt3__13mapINS_12basic_stringIcNS_11char_traitsIcEENS_9allocatorIcEEEE17llm_chat_templateNS_4lessIS6_EENS4_INS_4pairIKS6_S7_EEEEE2atERSB_, symObjAddr: 0x30, symBinAddr: 0x10410, symSize: 0x100 }
  - { offset: 0x774ED, size: 0x8, addend: 0x0, symName: __Z24llm_chat_detect_templateRKNSt3__112basic_stringIcNS_11char_traitsIcEENS_9allocatorIcEEEE, symObjAddr: 0x130, symBinAddr: 0x10510, symSize: 0x520 }
  - { offset: 0x779A2, size: 0x8, addend: 0x0, symName: '__ZZ24llm_chat_detect_templateRKNSt3__112basic_stringIcNS_11char_traitsIcEENS_9allocatorIcEEEEENK3$_0clEPKc', symObjAddr: 0x650, symBinAddr: 0x10A30, symSize: 0xD0 }
  - { offset: 0x77BDA, size: 0x8, addend: 0x0, symName: __ZNKSt3__112basic_stringIcNS_11char_traitsIcEENS_9allocatorIcEEE4findB8ne190107EPKcm, symObjAddr: 0x720, symBinAddr: 0x10B00, symSize: 0xE0 }
  - { offset: 0x785A5, size: 0x8, addend: 0x0, symName: __Z23llm_chat_apply_template17llm_chat_templateRKNSt3__16vectorIPK18llama_chat_messageNS0_9allocatorIS4_EEEERNS0_12basic_stringIcNS0_11char_traitsIcEENS5_IcEEEEb, symObjAddr: 0x800, symBinAddr: 0x10BE0, symSize: 0x38C0 }
  - { offset: 0x85BDD, size: 0x8, addend: 0x0, symName: __ZNSt3__118basic_stringstreamIcNS_11char_traitsIcEENS_9allocatorIcEEEC1B8ne190107Ev, symObjAddr: 0x40C0, symBinAddr: 0x144A0, symSize: 0x140 }
  - { offset: 0x85D24, size: 0x8, addend: 0x0, symName: __ZL4trimRKNSt3__112basic_stringIcNS_11char_traitsIcEENS_9allocatorIcEEEE, symObjAddr: 0x4340, symBinAddr: 0x14690, symSize: 0x1B0 }
  - { offset: 0x865F6, size: 0x8, addend: 0x0, symName: __ZNSt3__118basic_stringstreamIcNS_11char_traitsIcEENS_9allocatorIcEEED1Ev, symObjAddr: 0x44F0, symBinAddr: 0x14840, symSize: 0x90 }
  - { offset: 0x86B24, size: 0x8, addend: 0x0, symName: _llama_chat_builtin_templates, symObjAddr: 0x4580, symBinAddr: 0x148D0, symSize: 0xA0 }
  - { offset: 0x8706A, size: 0x8, addend: 0x0, symName: __ZNSt3__16__treeINS_12__value_typeINS_12basic_stringIcNS_11char_traitsIcEENS_9allocatorIcEEEE17llm_chat_templateEENS_19__map_value_compareIS7_S9_NS_4lessIS7_EELb1EEENS5_IS9_EEE30__emplace_hint_unique_key_argsIS7_JRKNS_4pairIKS7_S8_EEEEENSH_INS_15__tree_iteratorIS9_PNS_11__tree_nodeIS9_PvEElEEbEENS_21__tree_const_iteratorIS9_SQ_lEERKT_DpOT0_, symObjAddr: 0x4750, symBinAddr: 0x14970, symSize: 0xF0 }
  - { offset: 0x8748D, size: 0x8, addend: 0x0, symName: __ZNSt3__16__treeINS_12__value_typeINS_12basic_stringIcNS_11char_traitsIcEENS_9allocatorIcEEEE17llm_chat_templateEENS_19__map_value_compareIS7_S9_NS_4lessIS7_EELb1EEENS5_IS9_EEE12__find_equalIS7_EERPNS_16__tree_node_baseIPvEENS_21__tree_const_iteratorIS9_PNS_11__tree_nodeIS9_SI_EElEERPNS_15__tree_end_nodeISK_EESL_RKT_, symObjAddr: 0x4840, symBinAddr: 0x14A60, symSize: 0x460 }
  - { offset: 0x88254, size: 0x8, addend: 0x0, symName: __ZNSt3__110unique_ptrINS_11__tree_nodeINS_12__value_typeINS_12basic_stringIcNS_11char_traitsIcEENS_9allocatorIcEEEE17llm_chat_templateEEPvEENS_22__tree_node_destructorINS6_ISC_EEEEED1B8ne190107Ev, symObjAddr: 0x4CA0, symBinAddr: 0x14EC0, symSize: 0x50 }
  - { offset: 0xB077D, size: 0x8, addend: 0x0, symName: __ZNSt3__125__throw_bad_function_callB8ne190107Ev, symObjAddr: 0xAC90, symBinAddr: 0x20800, symSize: 0x40 }
  - { offset: 0xB8CA8, size: 0x8, addend: 0x0, symName: __ZNK13llama_context12graph_get_cbEv, symObjAddr: 0x77B0, symBinAddr: 0x1D400, symSize: 0x20 }
  - { offset: 0xBB626, size: 0x8, addend: 0x0, symName: __ZN13llama_contextC2ERK11llama_model20llama_context_params, symObjAddr: 0x0, symBinAddr: 0x15CC0, symSize: 0x23C0 }
  - { offset: 0xC0669, size: 0x8, addend: 0x0, symName: __ZN13llama_context14output_reserveEi, symObjAddr: 0x2470, symBinAddr: 0x18130, symSize: 0x260 }
  - { offset: 0xC0D58, size: 0x8, addend: 0x0, symName: __ZNKSt3__16vectorINS_10unique_ptrI12ggml_backend20ggml_backend_deleterEENS_9allocatorIS4_EEE20__throw_length_errorB8ne190107Ev, symObjAddr: 0xAAB0, symBinAddr: 0x20640, symSize: 0x10 }
  - { offset: 0xC0D82, size: 0x8, addend: 0x0, symName: __ZNKSt3__16vectorINS_4pairIP12ggml_backendPFvS3_iEEENS_9allocatorIS6_EEE20__throw_length_errorB8ne190107Ev, symObjAddr: 0xAAC0, symBinAddr: 0x20650, symSize: 0x10 }
  - { offset: 0xC0DA5, size: 0x8, addend: 0x0, symName: __ZNKSt3__16vectorIP12ggml_backendNS_9allocatorIS2_EEE20__throw_length_errorB8ne190107Ev, symObjAddr: 0xAAE0, symBinAddr: 0x20660, symSize: 0x10 }
  - { offset: 0xC0DB0, size: 0x8, addend: 0x0, symName: __ZNKSt3__16vectorIP12ggml_backendNS_9allocatorIS2_EEE20__throw_length_errorB8ne190107Ev, symObjAddr: 0xAAE0, symBinAddr: 0x20660, symSize: 0x10 }
  - { offset: 0xC0DE5, size: 0x8, addend: 0x0, symName: __ZNKSt3__16vectorINS_4pairIP12ggml_backendPFvS3_iEEENS_9allocatorIS6_EEE20__throw_length_errorB8ne190107Ev, symObjAddr: 0xAAC0, symBinAddr: 0x20650, symSize: 0x10 }
  - { offset: 0xC0E32, size: 0x8, addend: 0x0, symName: __ZN16llm_graph_resultD1Ev, symObjAddr: 0xAB00, symBinAddr: 0x20670, symSize: 0x90 }
  - { offset: 0xC0F05, size: 0x8, addend: 0x0, symName: __ZNSt3__16vectorINS_10unique_ptrI12ggml_backend20ggml_backend_deleterEENS_9allocatorIS4_EEED1B8ne190107Ev, symObjAddr: 0x2920, symBinAddr: 0x18580, symSize: 0x90 }
  - { offset: 0xC1113, size: 0x8, addend: 0x0, symName: __ZNSt3__110unique_ptrI18ggml_backend_sched26ggml_backend_sched_deleterED1B8ne190107Ev, symObjAddr: 0x29B0, symBinAddr: 0x18610, symSize: 0x30 }
  - { offset: 0xC11A7, size: 0x8, addend: 0x0, symName: __ZNSt3__16__treeINS_12__value_typeIiNS_6vectorIfNS_9allocatorIfEEEEEENS_19__map_value_compareIiS6_NS_4lessIiEELb1EEENS3_IS6_EEE7destroyEPNS_11__tree_nodeIS6_PvEE, symObjAddr: 0xAA50, symBinAddr: 0x205E0, symSize: 0x60 }
  - { offset: 0xC1509, size: 0x8, addend: 0x0, symName: __ZN11llama_crossD1Ev, symObjAddr: 0x29E0, symBinAddr: 0x18640, symSize: 0x90 }
  - { offset: 0xC1922, size: 0x8, addend: 0x0, symName: __ZN12llama_sbatchD2Ev, symObjAddr: 0xA070, symBinAddr: 0x1FCC0, symSize: 0x130 }
  - { offset: 0xC277B, size: 0x8, addend: 0x0, symName: __ZNSt3__113unordered_mapIP18llama_adapter_lorafNS_4hashIS2_EENS_8equal_toIS2_EENS_9allocatorINS_4pairIKS2_fEEEEED1B8ne190107Ev, symObjAddr: 0x2A70, symBinAddr: 0x186D0, symSize: 0x60 }
  - { offset: 0xC2A83, size: 0x8, addend: 0x0, symName: __ZN18llama_adapter_cvecD2Ev, symObjAddr: 0xA1A0, symBinAddr: 0x1FDF0, symSize: 0xF0 }
  - { offset: 0xC304B, size: 0x8, addend: 0x0, symName: _llama_set_abort_callback, symObjAddr: 0x23C0, symBinAddr: 0x18080, symSize: 0xB0 }
  - { offset: 0xC362A, size: 0x8, addend: 0x0, symName: __ZNK13llama_context15graph_max_nodesEv, symObjAddr: 0x26D0, symBinAddr: 0x18390, symSize: 0x20 }
  - { offset: 0xC364C, size: 0x8, addend: 0x0, symName: __ZN13llama_context10graph_initEv, symObjAddr: 0x26F0, symBinAddr: 0x183B0, symSize: 0xA0 }
  - { offset: 0xC3749, size: 0x8, addend: 0x0, symName: __ZN13llama_context11graph_buildEP12ggml_contextP11ggml_cgraphRK12llama_ubatch14llm_graph_type, symObjAddr: 0x2790, symBinAddr: 0x18450, symSize: 0x130 }
  - { offset: 0xC3ED2, size: 0x8, addend: 0x0, symName: __ZNSt3__16__treeIiNS_4lessIiEENS_9allocatorIiEEE7destroyEPNS_11__tree_nodeIiPvEE, symObjAddr: 0xA030, symBinAddr: 0x1FC80, symSize: 0x40 }
  - { offset: 0xC4203, size: 0x8, addend: 0x0, symName: __ZN13llama_contextC1ERK11llama_model20llama_context_params, symObjAddr: 0x2AD0, symBinAddr: 0x18730, symSize: 0x10 }
  - { offset: 0xC42ED, size: 0x8, addend: 0x0, symName: __ZN13llama_contextD2Ev, symObjAddr: 0x2AE0, symBinAddr: 0x18740, symSize: 0x2B0 }
  - { offset: 0xC579B, size: 0x8, addend: 0x0, symName: __ZN13llama_contextD1Ev, symObjAddr: 0x2D90, symBinAddr: 0x189F0, symSize: 0x10 }
  - { offset: 0xC57D1, size: 0x8, addend: 0x0, symName: __ZN13llama_context11synchronizeEv, symObjAddr: 0x2DA0, symBinAddr: 0x18A00, symSize: 0xC0 }
  - { offset: 0xC586E, size: 0x8, addend: 0x0, symName: __ZNK13llama_context9get_modelEv, symObjAddr: 0x2E60, symBinAddr: 0x18AC0, symSize: 0x10 }
  - { offset: 0xC588E, size: 0x8, addend: 0x0, symName: __ZNK13llama_context5n_ctxEv, symObjAddr: 0x2E70, symBinAddr: 0x18AD0, symSize: 0x10 }
  - { offset: 0xC58AE, size: 0x8, addend: 0x0, symName: __ZNK13llama_context13n_ctx_per_seqEv, symObjAddr: 0x2E80, symBinAddr: 0x18AE0, symSize: 0x10 }
  - { offset: 0xC58CE, size: 0x8, addend: 0x0, symName: __ZNK13llama_context7n_batchEv, symObjAddr: 0x2E90, symBinAddr: 0x18AF0, symSize: 0x10 }
  - { offset: 0xC58EE, size: 0x8, addend: 0x0, symName: __ZNK13llama_context8n_ubatchEv, symObjAddr: 0x2EA0, symBinAddr: 0x18B00, symSize: 0x10 }
  - { offset: 0xC590E, size: 0x8, addend: 0x0, symName: __ZNK13llama_context9n_seq_maxEv, symObjAddr: 0x2EB0, symBinAddr: 0x18B10, symSize: 0x10 }
  - { offset: 0xC592E, size: 0x8, addend: 0x0, symName: __ZNK13llama_context9n_threadsEv, symObjAddr: 0x2EC0, symBinAddr: 0x18B20, symSize: 0x10 }
  - { offset: 0xC594E, size: 0x8, addend: 0x0, symName: __ZNK13llama_context15n_threads_batchEv, symObjAddr: 0x2ED0, symBinAddr: 0x18B30, symSize: 0x10 }
  - { offset: 0xC596E, size: 0x8, addend: 0x0, symName: __ZN13llama_context11get_kv_selfEv, symObjAddr: 0x2EE0, symBinAddr: 0x18B40, symSize: 0x10 }
  - { offset: 0xC59AE, size: 0x8, addend: 0x0, symName: __ZNK13llama_context11get_kv_selfEv, symObjAddr: 0x2EF0, symBinAddr: 0x18B50, symSize: 0x10 }
  - { offset: 0xC5A3E, size: 0x8, addend: 0x0, symName: __ZNK13llama_context16build_rope_shiftEP12ggml_contextP11ggml_tensorS3_S3_ffP19ggml_backend_buffer, symObjAddr: 0x2F00, symBinAddr: 0x18B60, symSize: 0x180 }
  - { offset: 0xC5E46, size: 0x8, addend: 0x0, symName: __ZN23llm_graph_input_k_shift9set_inputEPK12llama_ubatch, symObjAddr: 0x3080, symBinAddr: 0x18CE0, symSize: 0x50 }
  - { offset: 0xC636B, size: 0x8, addend: 0x0, symName: __ZNK13llama_context19build_kv_self_shiftEP12ggml_contextP11ggml_cgraph, symObjAddr: 0x30D0, symBinAddr: 0x18D30, symSize: 0x300 }
  - { offset: 0xC6B4E, size: 0x8, addend: 0x0, symName: __ZN16llm_graph_result9add_inputENSt3__110unique_ptrI17llm_graph_input_iNS0_14default_deleteIS2_EEEE, symObjAddr: 0x33D0, symBinAddr: 0x19030, symSize: 0x120 }
  - { offset: 0xC75E5, size: 0x8, addend: 0x0, symName: __ZNKSt3__16vectorINS_10unique_ptrI17llm_graph_input_iNS_14default_deleteIS2_EEEENS_9allocatorIS5_EEE20__throw_length_errorB8ne190107Ev, symObjAddr: 0xA290, symBinAddr: 0x1FEE0, symSize: 0x10 }
  - { offset: 0xC7635, size: 0x8, addend: 0x0, symName: __ZNK13llama_context20build_kv_self_defragEP12ggml_contextP11ggml_cgraph, symObjAddr: 0x34F0, symBinAddr: 0x19150, symSize: 0x460 }
  - { offset: 0xC7EF3, size: 0x8, addend: 0x0, symName: __ZN13llama_context14kv_self_updateEv, symObjAddr: 0x3950, symBinAddr: 0x195B0, symSize: 0x650 }
  - { offset: 0xC8C08, size: 0x8, addend: 0x0, symName: __ZN13llama_context13graph_computeEP11ggml_cgraphb, symObjAddr: 0x3FA0, symBinAddr: 0x19C00, symSize: 0xD0 }
  - { offset: 0xC8E78, size: 0x8, addend: 0x0, symName: __ZNK13llama_context12pooling_typeEv, symObjAddr: 0x4070, symBinAddr: 0x19CD0, symSize: 0x10 }
  - { offset: 0xC8E98, size: 0x8, addend: 0x0, symName: __ZN13llama_context10get_logitsEv, symObjAddr: 0x4080, symBinAddr: 0x19CE0, symSize: 0x20 }
  - { offset: 0xC8ECF, size: 0x8, addend: 0x0, symName: __ZN13llama_context14output_reorderEv, symObjAddr: 0x40A0, symBinAddr: 0x19D00, symSize: 0x7E0 }
  - { offset: 0xC926B, size: 0x8, addend: 0x0, symName: __ZN13llama_context14get_logits_ithEi, symObjAddr: 0x4880, symBinAddr: 0x1A4E0, symSize: 0x2E0 }
  - { offset: 0xC9445, size: 0x8, addend: 0x0, symName: __ZN13llama_context14get_embeddingsEv, symObjAddr: 0x4B70, symBinAddr: 0x1A7C0, symSize: 0x20 }
  - { offset: 0xC947C, size: 0x8, addend: 0x0, symName: __ZN13llama_context18get_embeddings_ithEi, symObjAddr: 0x4B90, symBinAddr: 0x1A7E0, symSize: 0x2E0 }
  - { offset: 0xC97A1, size: 0x8, addend: 0x0, symName: __ZN13llama_context18get_embeddings_seqEi, symObjAddr: 0x4E70, symBinAddr: 0x1AAC0, symSize: 0x50 }
  - { offset: 0xC97D5, size: 0x8, addend: 0x0, symName: __ZN13llama_context18get_embeddings_seqEi, symObjAddr: 0x4E70, symBinAddr: 0x1AAC0, symSize: 0x50 }
  - { offset: 0xC97F3, size: 0x8, addend: 0x0, symName: __ZN13llama_context18get_embeddings_seqEi, symObjAddr: 0x4E70, symBinAddr: 0x1AAC0, symSize: 0x50 }
  - { offset: 0xC981A, size: 0x8, addend: 0x0, symName: __ZN13llama_context18get_embeddings_seqEi, symObjAddr: 0x4E70, symBinAddr: 0x1AAC0, symSize: 0x50 }
  - { offset: 0xC992F, size: 0x8, addend: 0x0, symName: __ZN13llama_context17attach_threadpoolEP15ggml_threadpoolS1_, symObjAddr: 0x4EC0, symBinAddr: 0x1AB10, symSize: 0x50 }
  - { offset: 0xC9976, size: 0x8, addend: 0x0, symName: __ZN13llama_context17detach_threadpoolEv, symObjAddr: 0x4F10, symBinAddr: 0x1AB60, symSize: 0x40 }
  - { offset: 0xC99AB, size: 0x8, addend: 0x0, symName: __ZN13llama_context13set_n_threadsEii, symObjAddr: 0x4F50, symBinAddr: 0x1ABA0, symSize: 0x50 }
  - { offset: 0xC99FE, size: 0x8, addend: 0x0, symName: __ZN13llama_context18set_abort_callbackEPFbPvES0_, symObjAddr: 0x4FA0, symBinAddr: 0x1ABF0, symSize: 0xB0 }
  - { offset: 0xC9B8D, size: 0x8, addend: 0x0, symName: __ZN13llama_context14set_embeddingsEb, symObjAddr: 0x5050, symBinAddr: 0x1ACA0, symSize: 0x40 }
  - { offset: 0xC9BD1, size: 0x8, addend: 0x0, symName: __ZN13llama_context15set_causal_attnEb, symObjAddr: 0x5090, symBinAddr: 0x1ACE0, symSize: 0x40 }
  - { offset: 0xC9C15, size: 0x8, addend: 0x0, symName: __ZN13llama_context10set_warmupEb, symObjAddr: 0x50D0, symBinAddr: 0x1AD20, symSize: 0x40 }
  - { offset: 0xC9C7D, size: 0x8, addend: 0x0, symName: __ZN13llama_context16set_adapter_loraEP18llama_adapter_loraf, symObjAddr: 0x5110, symBinAddr: 0x1AD60, symSize: 0x70 }
  - { offset: 0xC9D26, size: 0x8, addend: 0x0, symName: __ZNSt3__112__hash_tableINS_17__hash_value_typeIP18llama_adapter_lorafEENS_22__unordered_map_hasherIS3_S4_NS_4hashIS3_EENS_8equal_toIS3_EELb1EEENS_21__unordered_map_equalIS3_S4_S9_S7_Lb1EEENS_9allocatorIS4_EEE25__emplace_unique_key_argsIS3_JRKNS_21piecewise_construct_tENS_5tupleIJRKS3_EEENSK_IJEEEEEENS_4pairINS_15__hash_iteratorIPNS_11__hash_nodeIS4_PvEEEEbEERKT_DpOT0_, symObjAddr: 0xACD0, symBinAddr: 0x20840, symSize: 0x460 }
  - { offset: 0xCA6BA, size: 0x8, addend: 0x0, symName: __ZN13llama_context15rm_adapter_loraEP18llama_adapter_lora, symObjAddr: 0x5180, symBinAddr: 0x1ADD0, symSize: 0x90 }
  - { offset: 0xCA930, size: 0x8, addend: 0x0, symName: __ZNSt3__112__hash_tableINS_17__hash_value_typeIP18llama_adapter_lorafEENS_22__unordered_map_hasherIS3_S4_NS_4hashIS3_EENS_8equal_toIS3_EELb1EEENS_21__unordered_map_equalIS3_S4_S9_S7_Lb1EEENS_9allocatorIS4_EEE4findIS3_EENS_15__hash_iteratorIPNS_11__hash_nodeIS4_PvEEEERKT_, symObjAddr: 0xB3E0, symBinAddr: 0x20F50, symSize: 0x180 }
  - { offset: 0xCA987, size: 0x8, addend: 0x0, symName: __ZNSt3__112__hash_tableINS_17__hash_value_typeIP18llama_adapter_lorafEENS_22__unordered_map_hasherIS3_S4_NS_4hashIS3_EENS_8equal_toIS3_EELb1EEENS_21__unordered_map_equalIS3_S4_S9_S7_Lb1EEENS_9allocatorIS4_EEE4findIS3_EENS_15__hash_iteratorIPNS_11__hash_nodeIS4_PvEEEERKT_, symObjAddr: 0xB3E0, symBinAddr: 0x20F50, symSize: 0x180 }
  - { offset: 0xCA9A3, size: 0x8, addend: 0x0, symName: __ZNSt3__112__hash_tableINS_17__hash_value_typeIP18llama_adapter_lorafEENS_22__unordered_map_hasherIS3_S4_NS_4hashIS3_EENS_8equal_toIS3_EELb1EEENS_21__unordered_map_equalIS3_S4_S9_S7_Lb1EEENS_9allocatorIS4_EEE4findIS3_EENS_15__hash_iteratorIPNS_11__hash_nodeIS4_PvEEEERKT_, symObjAddr: 0xB3E0, symBinAddr: 0x20F50, symSize: 0x180 }
  - { offset: 0xCAAAB, size: 0x8, addend: 0x0, symName: __ZNSt3__112__hash_tableINS_17__hash_value_typeIP18llama_adapter_lorafEENS_22__unordered_map_hasherIS3_S4_NS_4hashIS3_EENS_8equal_toIS3_EELb1EEENS_21__unordered_map_equalIS3_S4_S9_S7_Lb1EEENS_9allocatorIS4_EEE6removeENS_21__hash_const_iteratorIPNS_11__hash_nodeIS4_PvEEEE, symObjAddr: 0xB560, symBinAddr: 0x210D0, symSize: 0x1F0 }
  - { offset: 0xCAE10, size: 0x8, addend: 0x0, symName: __ZN13llama_context18clear_adapter_loraEv, symObjAddr: 0x5210, symBinAddr: 0x1AE60, symSize: 0x110 }
  - { offset: 0xCB041, size: 0x8, addend: 0x0, symName: __ZN13llama_context18apply_adapter_cvecEPKfmiii, symObjAddr: 0x5320, symBinAddr: 0x1AF70, symSize: 0x80 }
  - { offset: 0xCBBBF, size: 0x8, addend: 0x0, symName: __ZN13llama_context6encodeER11llama_batch, symObjAddr: 0x53A0, symBinAddr: 0x1AFF0, symSize: 0xCC0 }
  - { offset: 0xCDC5F, size: 0x8, addend: 0x0, symName: __ZNSt3__16vectorINS_3setIiNS_4lessIiEENS_9allocatorIiEEEENS4_IS6_EEE8__appendEm, symObjAddr: 0xBA40, symBinAddr: 0x212C0, symSize: 0x230 }
  - { offset: 0xCE410, size: 0x8, addend: 0x0, symName: __ZN18llama_batch_allocrD1Ev, symObjAddr: 0x6060, symBinAddr: 0x1BCB0, symSize: 0x90 }
  - { offset: 0xCEAAE, size: 0x8, addend: 0x0, symName: __ZN13llama_context6decodeER11llama_batch, symObjAddr: 0x60F0, symBinAddr: 0x1BD40, symSize: 0x1600 }
  - { offset: 0xD194C, size: 0x8, addend: 0x0, symName: __ZN22llama_kv_slot_restorer4saveERK24llama_kv_cache_slot_info, symObjAddr: 0xA360, symBinAddr: 0x1FEF0, symSize: 0x140 }
  - { offset: 0xD1D76, size: 0x8, addend: 0x0, symName: __ZZN13llama_context6decodeER11llama_batchEN11batch_guardD1Ev, symObjAddr: 0x76F0, symBinAddr: 0x1D340, symSize: 0xC0 }
  - { offset: 0xD2162, size: 0x8, addend: 0x0, symName: __ZN13llama_context14state_get_sizeEv, symObjAddr: 0x77D0, symBinAddr: 0x1D420, symSize: 0x90 }
  - { offset: 0xD2224, size: 0x8, addend: 0x0, symName: __ZN13llama_context16state_write_dataER16llama_io_write_i, symObjAddr: 0x7860, symBinAddr: 0x1D4B0, symSize: 0x390 }
  - { offset: 0xD2FE9, size: 0x8, addend: 0x0, symName: __ZN20llama_io_write_dummyD1Ev, symObjAddr: 0x7BF0, symBinAddr: 0x1D840, symSize: 0x10 }
  - { offset: 0xD3160, size: 0x8, addend: 0x0, symName: __ZN13llama_context14state_get_dataEPhm, symObjAddr: 0x7C00, symBinAddr: 0x1D850, symSize: 0xA0 }
  - { offset: 0xD325E, size: 0x8, addend: 0x0, symName: __ZN21llama_io_write_bufferD1Ev, symObjAddr: 0x7CA0, symBinAddr: 0x1D8F0, symSize: 0x10 }
  - { offset: 0xD33CF, size: 0x8, addend: 0x0, symName: __ZN13llama_context14state_set_dataEPKhm, symObjAddr: 0x7CB0, symBinAddr: 0x1D900, symSize: 0xA0 }
  - { offset: 0xD34CD, size: 0x8, addend: 0x0, symName: __ZN13llama_context15state_read_dataER15llama_io_read_i, symObjAddr: 0x7D50, symBinAddr: 0x1D9A0, symSize: 0x5B0 }
  - { offset: 0xD49C8, size: 0x8, addend: 0x0, symName: __ZN20llama_io_read_bufferD1Ev, symObjAddr: 0x8300, symBinAddr: 0x1DF50, symSize: 0x10 }
  - { offset: 0xD4A25, size: 0x8, addend: 0x0, symName: __ZN13llama_context18state_seq_get_sizeEi, symObjAddr: 0x8310, symBinAddr: 0x1DF60, symSize: 0xA0 }
  - { offset: 0xD4B3F, size: 0x8, addend: 0x0, symName: __ZN13llama_context20state_seq_write_dataER16llama_io_write_ii, symObjAddr: 0x83B0, symBinAddr: 0x1E000, symSize: 0x30 }
  - { offset: 0xD4B9F, size: 0x8, addend: 0x0, symName: __ZN13llama_context18state_seq_get_dataEiPhm, symObjAddr: 0x83E0, symBinAddr: 0x1E030, symSize: 0xB0 }
  - { offset: 0xD4D26, size: 0x8, addend: 0x0, symName: __ZN13llama_context18state_seq_set_dataEiPKhm, symObjAddr: 0x8490, symBinAddr: 0x1E0E0, symSize: 0xB0 }
  - { offset: 0xD4E7C, size: 0x8, addend: 0x0, symName: __ZN13llama_context19state_seq_read_dataER15llama_io_read_ii, symObjAddr: 0x8540, symBinAddr: 0x1E190, symSize: 0x30 }
  - { offset: 0xD5181, size: 0x8, addend: 0x0, symName: __ZN13llama_context15state_load_fileEPKcPimPm, symObjAddr: 0x8570, symBinAddr: 0x1E1C0, symSize: 0x1C0 }
  - { offset: 0xD5711, size: 0x8, addend: 0x0, symName: __ZN18llama_io_read_fileD1Ev, symObjAddr: 0x8730, symBinAddr: 0x1E380, symSize: 0x40 }
  - { offset: 0xD5A3E, size: 0x8, addend: 0x0, symName: __ZN13llama_context15state_save_fileEPKcPKim, symObjAddr: 0x8770, symBinAddr: 0x1E3C0, symSize: 0x110 }
  - { offset: 0xD5F08, size: 0x8, addend: 0x0, symName: __ZN19llama_io_write_fileD1Ev, symObjAddr: 0x8880, symBinAddr: 0x1E4D0, symSize: 0x40 }
  - { offset: 0xD60CD, size: 0x8, addend: 0x0, symName: __ZN13llama_context19state_seq_load_fileEiPKcPimPm, symObjAddr: 0x88C0, symBinAddr: 0x1E510, symSize: 0x250 }
  - { offset: 0xD66C5, size: 0x8, addend: 0x0, symName: __ZN13llama_context19state_seq_save_fileEiPKcPKim, symObjAddr: 0x8B10, symBinAddr: 0x1E760, symSize: 0x170 }
  - { offset: 0xD6C2B, size: 0x8, addend: 0x0, symName: __ZN19llama_io_write_file7n_bytesEv, symObjAddr: 0x8C80, symBinAddr: 0x1E8D0, symSize: 0x10 }
  - { offset: 0xD6C89, size: 0x8, addend: 0x0, symName: __ZNK13llama_context13perf_get_dataEv, symObjAddr: 0x8C90, symBinAddr: 0x1E8E0, symSize: 0x80 }
  - { offset: 0xD6CF1, size: 0x8, addend: 0x0, symName: __ZN13llama_context10perf_resetEv, symObjAddr: 0x8D10, symBinAddr: 0x1E960, symSize: 0x40 }
  - { offset: 0xD6D21, size: 0x8, addend: 0x0, symName: _llama_context_default_params, symObjAddr: 0x8D50, symBinAddr: 0x1E9A0, symSize: 0x60 }
  - { offset: 0xD6D7F, size: 0x8, addend: 0x0, symName: _llama_init_from_model, symObjAddr: 0x8DB0, symBinAddr: 0x1EA00, symSize: 0x1B0 }
  - { offset: 0xD6E7C, size: 0x8, addend: 0x0, symName: _llama_new_context_with_model, symObjAddr: 0x8F60, symBinAddr: 0x1EBB0, symSize: 0x10 }
  - { offset: 0xD6EEA, size: 0x8, addend: 0x0, symName: _llama_free, symObjAddr: 0x8F70, symBinAddr: 0x1EBC0, symSize: 0x30 }
  - { offset: 0xD6F56, size: 0x8, addend: 0x0, symName: _llama_n_ctx, symObjAddr: 0x8FA0, symBinAddr: 0x1EBF0, symSize: 0x10 }
  - { offset: 0xD6F9E, size: 0x8, addend: 0x0, symName: _llama_n_batch, symObjAddr: 0x8FB0, symBinAddr: 0x1EC00, symSize: 0x10 }
  - { offset: 0xD6FFF, size: 0x8, addend: 0x0, symName: _llama_n_ubatch, symObjAddr: 0x8FC0, symBinAddr: 0x1EC10, symSize: 0x10 }
  - { offset: 0xD7047, size: 0x8, addend: 0x0, symName: _llama_n_seq_max, symObjAddr: 0x8FD0, symBinAddr: 0x1EC20, symSize: 0x10 }
  - { offset: 0xD70A8, size: 0x8, addend: 0x0, symName: _llama_get_model, symObjAddr: 0x8FE0, symBinAddr: 0x1EC30, symSize: 0x10 }
  - { offset: 0xD7109, size: 0x8, addend: 0x0, symName: _llama_get_kv_self, symObjAddr: 0x8FF0, symBinAddr: 0x1EC40, symSize: 0x10 }
  - { offset: 0xD7171, size: 0x8, addend: 0x0, symName: _llama_kv_self_update, symObjAddr: 0x9000, symBinAddr: 0x1EC50, symSize: 0x10 }
  - { offset: 0xD71BC, size: 0x8, addend: 0x0, symName: _llama_pooling_type, symObjAddr: 0x9010, symBinAddr: 0x1EC60, symSize: 0x10 }
  - { offset: 0xD7235, size: 0x8, addend: 0x0, symName: _llama_attach_threadpool, symObjAddr: 0x9020, symBinAddr: 0x1EC70, symSize: 0x50 }
  - { offset: 0xD72DA, size: 0x8, addend: 0x0, symName: _llama_detach_threadpool, symObjAddr: 0x9070, symBinAddr: 0x1ECC0, symSize: 0x40 }
  - { offset: 0xD7365, size: 0x8, addend: 0x0, symName: _llama_set_n_threads, symObjAddr: 0x90B0, symBinAddr: 0x1ED00, symSize: 0x50 }
  - { offset: 0xD7416, size: 0x8, addend: 0x0, symName: _llama_n_threads, symObjAddr: 0x9100, symBinAddr: 0x1ED50, symSize: 0x10 }
  - { offset: 0xD7477, size: 0x8, addend: 0x0, symName: _llama_n_threads_batch, symObjAddr: 0x9110, symBinAddr: 0x1ED60, symSize: 0x10 }
  - { offset: 0xD74E4, size: 0x8, addend: 0x0, symName: _llama_set_embeddings, symObjAddr: 0x9120, symBinAddr: 0x1ED70, symSize: 0x40 }
  - { offset: 0xD7588, size: 0x8, addend: 0x0, symName: _llama_set_causal_attn, symObjAddr: 0x9160, symBinAddr: 0x1EDB0, symSize: 0x40 }
  - { offset: 0xD762C, size: 0x8, addend: 0x0, symName: _llama_set_warmup, symObjAddr: 0x91A0, symBinAddr: 0x1EDF0, symSize: 0x40 }
  - { offset: 0xD76AB, size: 0x8, addend: 0x0, symName: _llama_synchronize, symObjAddr: 0x91E0, symBinAddr: 0x1EE30, symSize: 0x10 }
  - { offset: 0xD7701, size: 0x8, addend: 0x0, symName: _llama_get_logits, symObjAddr: 0x91F0, symBinAddr: 0x1EE40, symSize: 0x30 }
  - { offset: 0xD7773, size: 0x8, addend: 0x0, symName: _llama_get_logits_ith, symObjAddr: 0x9220, symBinAddr: 0x1EE70, symSize: 0x20 }
  - { offset: 0xD77EB, size: 0x8, addend: 0x0, symName: _llama_get_embeddings, symObjAddr: 0x9240, symBinAddr: 0x1EE90, symSize: 0x30 }
  - { offset: 0xD785D, size: 0x8, addend: 0x0, symName: _llama_get_embeddings_ith, symObjAddr: 0x9270, symBinAddr: 0x1EEC0, symSize: 0x20 }
  - { offset: 0xD78ED, size: 0x8, addend: 0x0, symName: _llama_get_embeddings_seq, symObjAddr: 0x9290, symBinAddr: 0x1EEE0, symSize: 0x60 }
  - { offset: 0xD7AEB, size: 0x8, addend: 0x0, symName: _llama_set_adapter_lora, symObjAddr: 0x92F0, symBinAddr: 0x1EF40, symSize: 0x70 }
  - { offset: 0xD7C01, size: 0x8, addend: 0x0, symName: _llama_rm_adapter_lora, symObjAddr: 0x9360, symBinAddr: 0x1EFB0, symSize: 0x90 }
  - { offset: 0xD7EEC, size: 0x8, addend: 0x0, symName: _llama_clear_adapter_lora, symObjAddr: 0x93F0, symBinAddr: 0x1F040, symSize: 0x110 }
  - { offset: 0xD8197, size: 0x8, addend: 0x0, symName: _llama_apply_adapter_cvec, symObjAddr: 0x9500, symBinAddr: 0x1F150, symSize: 0x80 }
  - { offset: 0xD82A8, size: 0x8, addend: 0x0, symName: _llama_kv_cache_view_init, symObjAddr: 0x9580, symBinAddr: 0x1F1D0, symSize: 0x60 }
  - { offset: 0xD8408, size: 0x8, addend: 0x0, symName: _llama_kv_cache_view_update, symObjAddr: 0x95E0, symBinAddr: 0x1F230, symSize: 0x40 }
  - { offset: 0xD84E6, size: 0x8, addend: 0x0, symName: _llama_get_kv_cache_token_count, symObjAddr: 0x9620, symBinAddr: 0x1F270, symSize: 0x20 }
  - { offset: 0xD8591, size: 0x8, addend: 0x0, symName: _llama_kv_self_n_tokens, symObjAddr: 0x9640, symBinAddr: 0x1F290, symSize: 0x20 }
  - { offset: 0xD8615, size: 0x8, addend: 0x0, symName: _llama_get_kv_cache_used_cells, symObjAddr: 0x9660, symBinAddr: 0x1F2B0, symSize: 0x20 }
  - { offset: 0xD86C0, size: 0x8, addend: 0x0, symName: _llama_kv_self_used_cells, symObjAddr: 0x9680, symBinAddr: 0x1F2D0, symSize: 0x20 }
  - { offset: 0xD8740, size: 0x8, addend: 0x0, symName: _llama_kv_cache_clear, symObjAddr: 0x96A0, symBinAddr: 0x1F2F0, symSize: 0x20 }
  - { offset: 0xD87E3, size: 0x8, addend: 0x0, symName: _llama_kv_self_clear, symObjAddr: 0x96C0, symBinAddr: 0x1F310, symSize: 0x20 }
  - { offset: 0xD888B, size: 0x8, addend: 0x0, symName: _llama_kv_cache_seq_rm, symObjAddr: 0x96E0, symBinAddr: 0x1F330, symSize: 0x20 }
  - { offset: 0xD899D, size: 0x8, addend: 0x0, symName: _llama_kv_self_seq_rm, symObjAddr: 0x9700, symBinAddr: 0x1F350, symSize: 0x20 }
  - { offset: 0xD8A78, size: 0x8, addend: 0x0, symName: _llama_kv_cache_seq_cp, symObjAddr: 0x9720, symBinAddr: 0x1F370, symSize: 0x20 }
  - { offset: 0xD8BA4, size: 0x8, addend: 0x0, symName: _llama_kv_self_seq_cp, symObjAddr: 0x9740, symBinAddr: 0x1F390, symSize: 0x20 }
  - { offset: 0xD8C69, size: 0x8, addend: 0x0, symName: _llama_kv_cache_seq_keep, symObjAddr: 0x9760, symBinAddr: 0x1F3B0, symSize: 0x20 }
  - { offset: 0xD8D30, size: 0x8, addend: 0x0, symName: _llama_kv_self_seq_keep, symObjAddr: 0x9780, symBinAddr: 0x1F3D0, symSize: 0x20 }
  - { offset: 0xD8DEF, size: 0x8, addend: 0x0, symName: _llama_kv_cache_seq_add, symObjAddr: 0x97A0, symBinAddr: 0x1F3F0, symSize: 0x20 }
  - { offset: 0xD8F1C, size: 0x8, addend: 0x0, symName: _llama_kv_self_seq_add, symObjAddr: 0x97C0, symBinAddr: 0x1F410, symSize: 0x20 }
  - { offset: 0xD9005, size: 0x8, addend: 0x0, symName: _llama_kv_cache_seq_div, symObjAddr: 0x97E0, symBinAddr: 0x1F430, symSize: 0x20 }
  - { offset: 0xD9132, size: 0x8, addend: 0x0, symName: _llama_kv_self_seq_div, symObjAddr: 0x9800, symBinAddr: 0x1F450, symSize: 0x20 }
  - { offset: 0xD91FB, size: 0x8, addend: 0x0, symName: _llama_kv_cache_seq_pos_max, symObjAddr: 0x9820, symBinAddr: 0x1F470, symSize: 0x20 }
  - { offset: 0xD92CA, size: 0x8, addend: 0x0, symName: _llama_kv_self_seq_pos_max, symObjAddr: 0x9840, symBinAddr: 0x1F490, symSize: 0x20 }
  - { offset: 0xD9359, size: 0x8, addend: 0x0, symName: _llama_kv_cache_defrag, symObjAddr: 0x9860, symBinAddr: 0x1F4B0, symSize: 0x20 }
  - { offset: 0xD93FD, size: 0x8, addend: 0x0, symName: _llama_kv_self_defrag, symObjAddr: 0x9880, symBinAddr: 0x1F4D0, symSize: 0x20 }
  - { offset: 0xD9481, size: 0x8, addend: 0x0, symName: _llama_kv_cache_can_shift, symObjAddr: 0x98A0, symBinAddr: 0x1F4F0, symSize: 0x20 }
  - { offset: 0xD952D, size: 0x8, addend: 0x0, symName: _llama_kv_self_can_shift, symObjAddr: 0x98C0, symBinAddr: 0x1F510, symSize: 0x20 }
  - { offset: 0xD95AD, size: 0x8, addend: 0x0, symName: _llama_kv_cache_update, symObjAddr: 0x98E0, symBinAddr: 0x1F530, symSize: 0x10 }
  - { offset: 0xD9622, size: 0x8, addend: 0x0, symName: _llama_get_state_size, symObjAddr: 0x98F0, symBinAddr: 0x1F540, symSize: 0x10 }
  - { offset: 0xD9680, size: 0x8, addend: 0x0, symName: _llama_state_get_size, symObjAddr: 0x9900, symBinAddr: 0x1F550, symSize: 0x10 }
  - { offset: 0xD96E5, size: 0x8, addend: 0x0, symName: _llama_copy_state_data, symObjAddr: 0x9910, symBinAddr: 0x1F560, symSize: 0x30 }
  - { offset: 0xD9783, size: 0x8, addend: 0x0, symName: _llama_state_get_data, symObjAddr: 0x9940, symBinAddr: 0x1F590, symSize: 0x30 }
  - { offset: 0xD9809, size: 0x8, addend: 0x0, symName: _llama_set_state_data, symObjAddr: 0x9970, symBinAddr: 0x1F5C0, symSize: 0x30 }
  - { offset: 0xD98A7, size: 0x8, addend: 0x0, symName: _llama_state_set_data, symObjAddr: 0x99A0, symBinAddr: 0x1F5F0, symSize: 0x30 }
  - { offset: 0xD98FA, size: 0x8, addend: 0x0, symName: _llama_load_session_file, symObjAddr: 0x99D0, symBinAddr: 0x1F620, symSize: 0x10 }
  - { offset: 0xD9993, size: 0x8, addend: 0x0, symName: _llama_state_load_file, symObjAddr: 0x99E0, symBinAddr: 0x1F630, symSize: 0xA0 }
  - { offset: 0xD9A6F, size: 0x8, addend: 0x0, symName: _llama_save_session_file, symObjAddr: 0x9A80, symBinAddr: 0x1F6D0, symSize: 0x10 }
  - { offset: 0xD9AF2, size: 0x8, addend: 0x0, symName: _llama_state_save_file, symObjAddr: 0x9A90, symBinAddr: 0x1F6E0, symSize: 0xA0 }
  - { offset: 0xD9BB8, size: 0x8, addend: 0x0, symName: _llama_state_seq_get_size, symObjAddr: 0x9B30, symBinAddr: 0x1F780, symSize: 0x10 }
  - { offset: 0xD9C0F, size: 0x8, addend: 0x0, symName: _llama_state_seq_get_data, symObjAddr: 0x9B40, symBinAddr: 0x1F790, symSize: 0x40 }
  - { offset: 0xD9C8E, size: 0x8, addend: 0x0, symName: _llama_state_seq_set_data, symObjAddr: 0x9B80, symBinAddr: 0x1F7D0, symSize: 0x40 }
  - { offset: 0xD9D0D, size: 0x8, addend: 0x0, symName: _llama_state_seq_save_file, symObjAddr: 0x9BC0, symBinAddr: 0x1F810, symSize: 0xA0 }
  - { offset: 0xD9DE9, size: 0x8, addend: 0x0, symName: _llama_state_seq_load_file, symObjAddr: 0x9C60, symBinAddr: 0x1F8B0, symSize: 0xB0 }
  - { offset: 0xD9EDD, size: 0x8, addend: 0x0, symName: _llama_encode, symObjAddr: 0x9D10, symBinAddr: 0x1F960, symSize: 0x40 }
  - { offset: 0xD9F57, size: 0x8, addend: 0x0, symName: _llama_decode, symObjAddr: 0x9D50, symBinAddr: 0x1F9A0, symSize: 0x40 }
  - { offset: 0xD9FF6, size: 0x8, addend: 0x0, symName: _llama_perf_context, symObjAddr: 0x9D90, symBinAddr: 0x1F9E0, symSize: 0xA0 }
  - { offset: 0xDA096, size: 0x8, addend: 0x0, symName: _llama_perf_context_print, symObjAddr: 0x9E30, symBinAddr: 0x1FA80, symSize: 0x1A0 }
  - { offset: 0xDA290, size: 0x8, addend: 0x0, symName: _llama_perf_context_reset, symObjAddr: 0x9FD0, symBinAddr: 0x1FC20, symSize: 0x40 }
  - { offset: 0xDA2E5, size: 0x8, addend: 0x0, symName: __ZN23llm_graph_input_k_shiftD1Ev, symObjAddr: 0xA010, symBinAddr: 0x1FC60, symSize: 0x10 }
  - { offset: 0xDA30E, size: 0x8, addend: 0x0, symName: __ZN23llm_graph_input_k_shiftD0Ev, symObjAddr: 0xA020, symBinAddr: 0x1FC70, symSize: 0x10 }
  - { offset: 0xDAC48, size: 0x8, addend: 0x0, symName: __ZNKSt3__16vectorINS_4pairIjjEENS_9allocatorIS2_EEE20__throw_length_errorB8ne190107Ev, symObjAddr: 0xA4A0, symBinAddr: 0x20030, symSize: 0x10 }
  - { offset: 0xDAC72, size: 0x8, addend: 0x0, symName: __ZN20llama_io_write_dummyD0Ev, symObjAddr: 0xA4B0, symBinAddr: 0x20040, symSize: 0x10 }
  - { offset: 0xDAC7D, size: 0x8, addend: 0x0, symName: __ZN20llama_io_write_dummyD0Ev, symObjAddr: 0xA4B0, symBinAddr: 0x20040, symSize: 0x10 }
  - { offset: 0xDACA9, size: 0x8, addend: 0x0, symName: __ZN20llama_io_write_dummy5writeEPKvm, symObjAddr: 0xA4C0, symBinAddr: 0x20050, symSize: 0x10 }
  - { offset: 0xDACE8, size: 0x8, addend: 0x0, symName: __ZN20llama_io_write_dummy12write_tensorEPK11ggml_tensormm, symObjAddr: 0xA4D0, symBinAddr: 0x20060, symSize: 0x10 }
  - { offset: 0xDAD32, size: 0x8, addend: 0x0, symName: __ZN20llama_io_write_dummy7n_bytesEv, symObjAddr: 0xA4E0, symBinAddr: 0x20070, symSize: 0x10 }
  - { offset: 0xDAD57, size: 0x8, addend: 0x0, symName: __ZN21llama_io_write_bufferD0Ev, symObjAddr: 0xA4F0, symBinAddr: 0x20080, symSize: 0x10 }
  - { offset: 0xDAD83, size: 0x8, addend: 0x0, symName: __ZN21llama_io_write_buffer5writeEPKvm, symObjAddr: 0xA500, symBinAddr: 0x20090, symSize: 0x80 }
  - { offset: 0xDADCA, size: 0x8, addend: 0x0, symName: __ZN21llama_io_write_buffer12write_tensorEPK11ggml_tensormm, symObjAddr: 0xA580, symBinAddr: 0x20110, symSize: 0x80 }
  - { offset: 0xDAE4B, size: 0x8, addend: 0x0, symName: __ZN21llama_io_write_buffer7n_bytesEv, symObjAddr: 0xA600, symBinAddr: 0x20190, symSize: 0x10 }
  - { offset: 0xDAE70, size: 0x8, addend: 0x0, symName: __ZN20llama_io_read_bufferD0Ev, symObjAddr: 0xA610, symBinAddr: 0x201A0, symSize: 0x10 }
  - { offset: 0xDAE9C, size: 0x8, addend: 0x0, symName: __ZN20llama_io_read_buffer4readEm, symObjAddr: 0xA620, symBinAddr: 0x201B0, symSize: 0x70 }
  - { offset: 0xDAEE3, size: 0x8, addend: 0x0, symName: __ZN20llama_io_read_buffer7read_toEPvm, symObjAddr: 0xA690, symBinAddr: 0x20220, symSize: 0x30 }
  - { offset: 0xDAF45, size: 0x8, addend: 0x0, symName: __ZN20llama_io_read_buffer7n_bytesEv, symObjAddr: 0xA6C0, symBinAddr: 0x20250, symSize: 0x10 }
  - { offset: 0xDAF6A, size: 0x8, addend: 0x0, symName: __ZN18llama_io_read_fileD0Ev, symObjAddr: 0xA6D0, symBinAddr: 0x20260, symSize: 0x50 }
  - { offset: 0xDAF9A, size: 0x8, addend: 0x0, symName: __ZN18llama_io_read_fileD0Ev, symObjAddr: 0xA6D0, symBinAddr: 0x20260, symSize: 0x50 }
  - { offset: 0xDAFB8, size: 0x8, addend: 0x0, symName: __ZN18llama_io_read_fileD0Ev, symObjAddr: 0xA6D0, symBinAddr: 0x20260, symSize: 0x50 }
  - { offset: 0xDB184, size: 0x8, addend: 0x0, symName: __ZN18llama_io_read_file4readEm, symObjAddr: 0xA720, symBinAddr: 0x202B0, symSize: 0x130 }
  - { offset: 0xDB650, size: 0x8, addend: 0x0, symName: __ZN18llama_io_read_file7read_toEPvm, symObjAddr: 0xA850, symBinAddr: 0x203E0, symSize: 0x20 }
  - { offset: 0xDB697, size: 0x8, addend: 0x0, symName: __ZN18llama_io_read_file7n_bytesEv, symObjAddr: 0xA870, symBinAddr: 0x20400, symSize: 0x10 }
  - { offset: 0xDB6BC, size: 0x8, addend: 0x0, symName: __ZN19llama_io_write_fileD0Ev, symObjAddr: 0xA880, symBinAddr: 0x20410, symSize: 0x50 }
  - { offset: 0xDB6EC, size: 0x8, addend: 0x0, symName: __ZN19llama_io_write_fileD0Ev, symObjAddr: 0xA880, symBinAddr: 0x20410, symSize: 0x50 }
  - { offset: 0xDB70A, size: 0x8, addend: 0x0, symName: __ZN19llama_io_write_fileD0Ev, symObjAddr: 0xA880, symBinAddr: 0x20410, symSize: 0x50 }
  - { offset: 0xDB8C0, size: 0x8, addend: 0x0, symName: __ZN19llama_io_write_file5writeEPKvm, symObjAddr: 0xA8D0, symBinAddr: 0x20460, symSize: 0x20 }
  - { offset: 0xDB907, size: 0x8, addend: 0x0, symName: __ZN19llama_io_write_file12write_tensorEPK11ggml_tensormm, symObjAddr: 0xA8F0, symBinAddr: 0x20480, symSize: 0x160 }
  - { offset: 0xDC03F, size: 0x8, addend: 0x0, symName: __ZN16llm_graph_resultD1Ev, symObjAddr: 0xAB00, symBinAddr: 0x20670, symSize: 0x90 }
  - { offset: 0xDC2DF, size: 0x8, addend: 0x0, symName: __ZN16llm_graph_resultD0Ev, symObjAddr: 0xAB90, symBinAddr: 0x20700, symSize: 0x90 }
  - { offset: 0xDC591, size: 0x8, addend: 0x0, symName: __ZN16llm_graph_result10get_logitsEv, symObjAddr: 0xAC20, symBinAddr: 0x20790, symSize: 0x10 }
  - { offset: 0xDC5B6, size: 0x8, addend: 0x0, symName: __ZN16llm_graph_result8get_embdEv, symObjAddr: 0xAC30, symBinAddr: 0x207A0, symSize: 0x10 }
  - { offset: 0xDC5DB, size: 0x8, addend: 0x0, symName: __ZN16llm_graph_result15get_embd_pooledEv, symObjAddr: 0xAC40, symBinAddr: 0x207B0, symSize: 0x10 }
  - { offset: 0xDC666, size: 0x8, addend: 0x0, symName: __ZN16llm_graph_result10set_inputsEPK12llama_ubatch, symObjAddr: 0xAC50, symBinAddr: 0x207C0, symSize: 0x40 }
  - { offset: 0xDCDA5, size: 0x8, addend: 0x0, symName: __ZNSt3__112__hash_tableINS_17__hash_value_typeIP18llama_adapter_lorafEENS_22__unordered_map_hasherIS3_S4_NS_4hashIS3_EENS_8equal_toIS3_EELb1EEENS_21__unordered_map_equalIS3_S4_S9_S7_Lb1EEENS_9allocatorIS4_EEE11__do_rehashILb1EEEvm, symObjAddr: 0xB130, symBinAddr: 0x20CA0, symSize: 0x2B0 }
  - { offset: 0xDD724, size: 0x8, addend: 0x0, symName: __ZNSt3__16vectorINS_3setIiNS_4lessIiEENS_9allocatorIiEEEENS4_IS6_EEE8__appendEm, symObjAddr: 0xBA40, symBinAddr: 0x212C0, symSize: 0x230 }
  - { offset: 0xDDC68, size: 0x8, addend: 0x0, symName: __ZNKSt3__16vectorINS_3setIiNS_4lessIiEENS_9allocatorIiEEEENS4_IS6_EEE20__throw_length_errorB8ne190107Ev, symObjAddr: 0xBC70, symBinAddr: 0x214F0, symSize: 0x10 }
  - { offset: 0xDDF3A, size: 0x8, addend: 0x0, symName: '__ZNSt3__110__function6__funcIZNK13llama_context12graph_get_cbEvE3$_0NS_9allocatorIS3_EEFvRK12llama_ubatchP11ggml_tensorPKciEED1Ev', symObjAddr: 0xBDF0, symBinAddr: 0x21500, symSize: 0x10 }
  - { offset: 0xDDF45, size: 0x8, addend: 0x0, symName: '__ZNSt3__110__function6__funcIZNK13llama_context12graph_get_cbEvE3$_0NS_9allocatorIS3_EEFvRK12llama_ubatchP11ggml_tensorPKciEED1Ev', symObjAddr: 0xBDF0, symBinAddr: 0x21500, symSize: 0x10 }
  - { offset: 0xDDF6E, size: 0x8, addend: 0x0, symName: '__ZNSt3__110__function6__funcIZNK13llama_context12graph_get_cbEvE3$_0NS_9allocatorIS3_EEFvRK12llama_ubatchP11ggml_tensorPKciEED0Ev', symObjAddr: 0xBE00, symBinAddr: 0x21510, symSize: 0x10 }
  - { offset: 0xDE171, size: 0x8, addend: 0x0, symName: '__ZNKSt3__110__function6__funcIZNK13llama_context12graph_get_cbEvE3$_0NS_9allocatorIS3_EEFvRK12llama_ubatchP11ggml_tensorPKciEE7__cloneEv', symObjAddr: 0xBE10, symBinAddr: 0x21520, symSize: 0x30 }
  - { offset: 0xDE454, size: 0x8, addend: 0x0, symName: '__ZNKSt3__110__function6__funcIZNK13llama_context12graph_get_cbEvE3$_0NS_9allocatorIS3_EEFvRK12llama_ubatchP11ggml_tensorPKciEE7__cloneEPNS0_6__baseISD_EE', symObjAddr: 0xBE40, symBinAddr: 0x21550, symSize: 0x20 }
  - { offset: 0xDE559, size: 0x8, addend: 0x0, symName: '__ZNSt3__110__function6__funcIZNK13llama_context12graph_get_cbEvE3$_0NS_9allocatorIS3_EEFvRK12llama_ubatchP11ggml_tensorPKciEE7destroyEv', symObjAddr: 0xBE60, symBinAddr: 0x21570, symSize: 0x10 }
  - { offset: 0xDE5A8, size: 0x8, addend: 0x0, symName: '__ZNSt3__110__function6__funcIZNK13llama_context12graph_get_cbEvE3$_0NS_9allocatorIS3_EEFvRK12llama_ubatchP11ggml_tensorPKciEE18destroy_deallocateEv', symObjAddr: 0xBE70, symBinAddr: 0x21580, symSize: 0x10 }
  - { offset: 0xDE7BC, size: 0x8, addend: 0x0, symName: '__ZNSt3__110__function6__funcIZNK13llama_context12graph_get_cbEvE3$_0NS_9allocatorIS3_EEFvRK12llama_ubatchP11ggml_tensorPKciEEclES8_OSA_OSC_Oi', symObjAddr: 0xBE80, symBinAddr: 0x21590, symSize: 0x140 }
  - { offset: 0xDEB0C, size: 0x8, addend: 0x0, symName: '__ZNKSt3__110__function6__funcIZNK13llama_context12graph_get_cbEvE3$_0NS_9allocatorIS3_EEFvRK12llama_ubatchP11ggml_tensorPKciEE6targetERKSt9type_info', symObjAddr: 0xBFC0, symBinAddr: 0x216D0, symSize: 0x20 }
  - { offset: 0xDEB7C, size: 0x8, addend: 0x0, symName: '__ZNKSt3__110__function6__funcIZNK13llama_context12graph_get_cbEvE3$_0NS_9allocatorIS3_EEFvRK12llama_ubatchP11ggml_tensorPKciEE11target_typeEv', symObjAddr: 0xBFE0, symBinAddr: 0x216F0, symSize: 0x10 }
  - { offset: 0xE0BDD, size: 0x8, addend: 0x0, symName: __ZN20llama_grammar_parser13get_symbol_idEPKcm, symObjAddr: 0x0, symBinAddr: 0x21700, symSize: 0xF0 }
  - { offset: 0xE0C6E, size: 0x8, addend: 0x0, symName: __ZNSt3__119piecewise_constructE, symObjAddr: 0x186A0, symBinAddr: 0x1DBA20, symSize: 0x0 }
  - { offset: 0x106E75, size: 0x8, addend: 0x0, symName: __ZNSt3__1plB8ne190107IcNS_11char_traitsIcEENS_9allocatorIcEEEENS_12basic_stringIT_T0_T1_EEOS9_SA_, symObjAddr: 0x330, symBinAddr: 0x21A30, symSize: 0x60 }
  - { offset: 0x109452, size: 0x8, addend: 0x0, symName: __ZNSt3__135__uninitialized_allocator_copy_implB8ne190107INS_9allocatorINS_6vectorI21llama_grammar_elementNS1_IS3_EEEEEEPS5_S7_S7_EET2_RT_T0_T1_S8_, symObjAddr: 0x13D80, symBinAddr: 0x35080, symSize: 0x110 }
  - { offset: 0x109A3D, size: 0x8, addend: 0x0, symName: __ZNSt3__135__uninitialized_allocator_copy_implB8ne190107INS_9allocatorINS_6vectorIPK21llama_grammar_elementNS1_IS5_EEEEEEPS7_S9_S9_EET2_RT_T0_T1_SA_, symObjAddr: 0x13F60, symBinAddr: 0x35260, symSize: 0x110 }
  - { offset: 0x10A028, size: 0x8, addend: 0x0, symName: __ZNSt3__130__uninitialized_allocator_copyB8ne190107INS_9allocatorI29llama_grammar_trigger_patternEEPS2_S4_S4_EET2_RT_T0_T1_S5_, symObjAddr: 0x140C0, symBinAddr: 0x353C0, symSize: 0x110 }
  - { offset: 0x10AC46, size: 0x8, addend: 0x0, symName: __ZNSt3__111regex_matchB8ne190107INS_11__wrap_iterIPKcEENS_9allocatorINS_9sub_matchIS4_EEEEcNS_12regex_traitsIcEEEEbT_SB_RNS_13match_resultsISB_T0_EERKNS_11basic_regexIT1_T2_EENS_15regex_constants15match_flag_typeE, symObjAddr: 0x141E0, symBinAddr: 0x354E0, symSize: 0x110 }
  - { offset: 0x10B9E8, size: 0x8, addend: 0x0, symName: __ZNSt3__134__uninitialized_allocator_relocateB8ne190107INS_9allocatorI29llama_grammar_trigger_patternEES2_EEvRT_PT0_S7_S7_, symObjAddr: 0xA910, symBinAddr: 0x2BCA0, symSize: 0x130 }
  - { offset: 0x10BA43, size: 0x8, addend: 0x0, symName: __ZNSt3__134__uninitialized_allocator_relocateB8ne190107INS_9allocatorI29llama_grammar_trigger_patternEES2_EEvRT_PT0_S7_S7_, symObjAddr: 0xA910, symBinAddr: 0x2BCA0, symSize: 0x130 }
  - { offset: 0x10C18D, size: 0x8, addend: 0x0, symName: __ZNSt3__119__throw_regex_errorB8ne190107ILNS_15regex_constants10error_typeE17EEEvv, symObjAddr: 0xAE40, symBinAddr: 0x2C1D0, symSize: 0x50 }
  - { offset: 0x10CF1C, size: 0x8, addend: 0x0, symName: __ZNSt3__119__throw_regex_errorB8ne190107ILNS_15regex_constants10error_typeE14EEEvv, symObjAddr: 0xB7C0, symBinAddr: 0x2CB50, symSize: 0x50 }
  - { offset: 0x10D2BE, size: 0x8, addend: 0x0, symName: __ZNSt3__119__throw_regex_errorB8ne190107ILNS_15regex_constants10error_typeE15EEEvv, symObjAddr: 0x13080, symBinAddr: 0x34400, symSize: 0x50 }
  - { offset: 0x10D5CB, size: 0x8, addend: 0x0, symName: __ZNSt3__119__throw_regex_errorB8ne190107ILNS_15regex_constants10error_typeE6EEEvv, symObjAddr: 0xC440, symBinAddr: 0x2D7D0, symSize: 0x50 }
  - { offset: 0x10D77A, size: 0x8, addend: 0x0, symName: __ZNSt3__119__throw_regex_errorB8ne190107ILNS_15regex_constants10error_typeE11EEEvv, symObjAddr: 0xDEF0, symBinAddr: 0x2F280, symSize: 0x50 }
  - { offset: 0x10D7BE, size: 0x8, addend: 0x0, symName: __ZNSt3__119__throw_regex_errorB8ne190107ILNS_15regex_constants10error_typeE8EEEvv, symObjAddr: 0x129D0, symBinAddr: 0x33D50, symSize: 0x50 }
  - { offset: 0x10D7E4, size: 0x8, addend: 0x0, symName: __ZNSt3__119__throw_regex_errorB8ne190107ILNS_15regex_constants10error_typeE7EEEvv, symObjAddr: 0x12A20, symBinAddr: 0x33DA0, symSize: 0x50 }
  - { offset: 0x10DBFD, size: 0x8, addend: 0x0, symName: __ZNSt3__119__throw_regex_errorB8ne190107ILNS_15regex_constants10error_typeE12EEEvv, symObjAddr: 0xD250, symBinAddr: 0x2E5E0, symSize: 0x50 }
  - { offset: 0x10DC23, size: 0x8, addend: 0x0, symName: __ZNSt3__119__throw_regex_errorB8ne190107ILNS_15regex_constants10error_typeE16EEEvv, symObjAddr: 0xD2A0, symBinAddr: 0x2E630, symSize: 0x50 }
  - { offset: 0x10E54E, size: 0x8, addend: 0x0, symName: __ZNSt3__119__throw_regex_errorB8ne190107ILNS_15regex_constants10error_typeE4EEEvv, symObjAddr: 0xEA00, symBinAddr: 0x2FD90, symSize: 0x50 }
  - { offset: 0x10E574, size: 0x8, addend: 0x0, symName: __ZNSt3__119__throw_regex_errorB8ne190107ILNS_15regex_constants10error_typeE3EEEvv, symObjAddr: 0xE160, symBinAddr: 0x2F4F0, symSize: 0x50 }
  - { offset: 0x10E59A, size: 0x8, addend: 0x0, symName: __ZNSt3__119__throw_regex_errorB8ne190107ILNS_15regex_constants10error_typeE5EEEvv, symObjAddr: 0x10770, symBinAddr: 0x31AF0, symSize: 0x50 }
  - { offset: 0x10F0A7, size: 0x8, addend: 0x0, symName: __ZNSt3__119__throw_regex_errorB8ne190107ILNS_15regex_constants10error_typeE1EEEvv, symObjAddr: 0x11B20, symBinAddr: 0x32EA0, symSize: 0x50 }
  - { offset: 0x10F0CD, size: 0x8, addend: 0x0, symName: __ZNSt3__119__throw_regex_errorB8ne190107ILNS_15regex_constants10error_typeE2EEEvv, symObjAddr: 0x12130, symBinAddr: 0x334B0, symSize: 0x50 }
  - { offset: 0x10F12F, size: 0x8, addend: 0x0, symName: __ZNSt3__119__throw_regex_errorB8ne190107ILNS_15regex_constants10error_typeE9EEEvv, symObjAddr: 0x126F0, symBinAddr: 0x33A70, symSize: 0x50 }
  - { offset: 0x111ED9, size: 0x8, addend: 0x0, symName: __ZL11decode_utf8RKNSt3__112basic_stringIcNS_11char_traitsIcEENS_9allocatorIcEEEE18llama_partial_utf8, symObjAddr: 0x8400, symBinAddr: 0x29A70, symSize: 0x620 }
  - { offset: 0x111F03, size: 0x8, addend: 0x0, symName: __ZZL11decode_utf8RKNSt3__112basic_stringIcNS_11char_traitsIcEENS_9allocatorIcEEEE18llama_partial_utf8E6lookup, symObjAddr: 0x18660, symBinAddr: 0x1DB9E0, symSize: 0x0 }
  - { offset: 0x1167A5, size: 0x8, addend: 0x0, symName: __ZN20llama_grammar_parser13get_symbol_idEPKcm, symObjAddr: 0x0, symBinAddr: 0x21700, symSize: 0xF0 }
  - { offset: 0x116DF5, size: 0x8, addend: 0x0, symName: __ZNSt3__16__treeINS_12__value_typeINS_12basic_stringIcNS_11char_traitsIcEENS_9allocatorIcEEEEjEENS_19__map_value_compareIS7_S8_NS_4lessIS7_EELb1EEENS5_IS8_EEE25__emplace_unique_key_argsIS7_JS7_RjEEENS_4pairINS_15__tree_iteratorIS8_PNS_11__tree_nodeIS8_PvEElEEbEERKT_DpOT0_, symObjAddr: 0x9C30, symBinAddr: 0x2B150, symSize: 0x1A0 }
  - { offset: 0x1173F6, size: 0x8, addend: 0x0, symName: __ZNSt3__16__treeINS_12__value_typeINS_12basic_stringIcNS_11char_traitsIcEENS_9allocatorIcEEEEjEENS_19__map_value_compareIS7_S8_NS_4lessIS7_EELb1EEENS5_IS8_EEE25__emplace_unique_key_argsIS7_JS7_RjEEENS_4pairINS_15__tree_iteratorIS8_PNS_11__tree_nodeIS8_PvEElEEbEERKT_DpOT0_, symObjAddr: 0x9C30, symBinAddr: 0x2B150, symSize: 0x1A0 }
  - { offset: 0x1175C4, size: 0x8, addend: 0x0, symName: __ZN20llama_grammar_parser18generate_symbol_idERKNSt3__112basic_stringIcNS0_11char_traitsIcEENS0_9allocatorIcEEEE, symObjAddr: 0xF0, symBinAddr: 0x217F0, symSize: 0x240 }
  - { offset: 0x1182DD, size: 0x8, addend: 0x0, symName: __ZNSt3__16__treeINS_12__value_typeINS_12basic_stringIcNS_11char_traitsIcEENS_9allocatorIcEEEEjEENS_19__map_value_compareIS7_S8_NS_4lessIS7_EELb1EEENS5_IS8_EEE25__emplace_unique_key_argsIS7_JRKNS_21piecewise_construct_tENS_5tupleIJOS7_EEENSJ_IJEEEEEENS_4pairINS_15__tree_iteratorIS8_PNS_11__tree_nodeIS8_PvEElEEbEERKT_DpOT0_, symObjAddr: 0x9F50, symBinAddr: 0x2B2F0, symSize: 0x180 }
  - { offset: 0x118B49, size: 0x8, addend: 0x0, symName: __ZN20llama_grammar_parser8add_ruleEjRKNSt3__16vectorI21llama_grammar_elementNS0_9allocatorIS2_EEEE, symObjAddr: 0x390, symBinAddr: 0x21A90, symSize: 0xE0 }
  - { offset: 0x118E97, size: 0x8, addend: 0x0, symName: __ZNSt3__16vectorINS0_I21llama_grammar_elementNS_9allocatorIS1_EEEENS2_IS4_EEE8__appendEm, symObjAddr: 0xA0D0, symBinAddr: 0x2B470, symSize: 0x1C0 }
  - { offset: 0x119350, size: 0x8, addend: 0x0, symName: __ZNSt3__16vectorI21llama_grammar_elementNS_9allocatorIS1_EEE18__assign_with_sizeB8ne190107IPS1_S6_EEvT_T0_l, symObjAddr: 0xA2A0, symBinAddr: 0x2B640, symSize: 0x150 }
  - { offset: 0x11A15F, size: 0x8, addend: 0x0, symName: __ZN20llama_grammar_parser16parse_alternatesEPKcRKNSt3__112basic_stringIcNS2_11char_traitsIcEENS2_9allocatorIcEEEEjb, symObjAddr: 0x470, symBinAddr: 0x21B70, symSize: 0x3E0 }
  - { offset: 0x11B145, size: 0x8, addend: 0x0, symName: __ZN20llama_grammar_parser14parse_sequenceEPKcRKNSt3__112basic_stringIcNS2_11char_traitsIcEENS2_9allocatorIcEEEERNS2_6vectorI21llama_grammar_elementNS6_ISC_EEEEb, symObjAddr: 0x850, symBinAddr: 0x21F50, symSize: 0x1710 }
  - { offset: 0x11DD50, size: 0x8, addend: 0x0, symName: __ZNKSt3__16vectorI21llama_grammar_elementNS_9allocatorIS1_EEE20__throw_length_errorB8ne190107Ev, symObjAddr: 0x9280, symBinAddr: 0x2A8F0, symSize: 0x10 }
  - { offset: 0x11DDBF, size: 0x8, addend: 0x0, symName: __ZL10parse_namePKc, symObjAddr: 0x22E0, symBinAddr: 0x239E0, symSize: 0x140 }
  - { offset: 0x11E13A, size: 0x8, addend: 0x0, symName: __ZL10parse_charPKc, symObjAddr: 0x1F60, symBinAddr: 0x23660, symSize: 0x380 }
  - { offset: 0x11E51F, size: 0x8, addend: 0x0, symName: '__ZZN20llama_grammar_parser14parse_sequenceEPKcRKNSt3__112basic_stringIcNS2_11char_traitsIcEENS2_9allocatorIcEEEERNS2_6vectorI21llama_grammar_elementNS6_ISC_EEEEbENK3$_0clEii', symObjAddr: 0x24B0, symBinAddr: 0x23B20, symSize: 0x8D0 }
  - { offset: 0x120834, size: 0x8, addend: 0x0, symName: __ZL9parse_intPKc, symObjAddr: 0x2D80, symBinAddr: 0x243F0, symSize: 0x120 }
  - { offset: 0x120E03, size: 0x8, addend: 0x0, symName: __ZL9parse_hexPKci, symObjAddr: 0x9050, symBinAddr: 0x2A6C0, symSize: 0x230 }
  - { offset: 0x1219E4, size: 0x8, addend: 0x0, symName: __ZNSt3__16vectorI21llama_grammar_elementNS_9allocatorIS1_EEE18__insert_with_sizeB8ne190107INS_11__wrap_iterIPS1_EES8_EES8_NS6_IPKS1_EET_T0_l, symObjAddr: 0x94B0, symBinAddr: 0x2AA60, symSize: 0x2F0 }
  - { offset: 0x1223E3, size: 0x8, addend: 0x0, symName: __ZNSt3__16vectorI21llama_grammar_elementNS_9allocatorIS1_EEE8__appendEm, symObjAddr: 0x9350, symBinAddr: 0x2A900, symSize: 0x160 }
  - { offset: 0x122848, size: 0x8, addend: 0x0, symName: __ZN20llama_grammar_parser10parse_ruleEPKc, symObjAddr: 0x2EA0, symBinAddr: 0x24510, symSize: 0x3A0 }
  - { offset: 0x1231E8, size: 0x8, addend: 0x0, symName: __ZN20llama_grammar_parser5parseEPKc, symObjAddr: 0x3240, symBinAddr: 0x248B0, symSize: 0x390 }
  - { offset: 0x12439E, size: 0x8, addend: 0x0, symName: __ZN20llama_grammar_parser5printEP7__sFILE, symObjAddr: 0x35D0, symBinAddr: 0x24C40, symSize: 0x950 }
  - { offset: 0x1256F5, size: 0x8, addend: 0x0, symName: __ZNSt3__16__treeINS_12__value_typeIjNS_12basic_stringIcNS_11char_traitsIcEENS_9allocatorIcEEEEEENS_19__map_value_compareIjS8_NS_4lessIjEELb1EEENS5_IS8_EEE7destroyEPNS_11__tree_nodeIS8_PvEE, symObjAddr: 0xA3F0, symBinAddr: 0x2B790, symSize: 0x50 }
  - { offset: 0x125E91, size: 0x8, addend: 0x0, symName: __ZNK20llama_grammar_parser7c_rulesEv, symObjAddr: 0x3F20, symBinAddr: 0x25590, symSize: 0x210 }
  - { offset: 0x126713, size: 0x8, addend: 0x0, symName: __ZNKSt3__16vectorIPK21llama_grammar_elementNS_9allocatorIS3_EEE20__throw_length_errorB8ne190107Ev, symObjAddr: 0x99E0, symBinAddr: 0x2AF10, symSize: 0x10 }
  - { offset: 0x12673D, size: 0x8, addend: 0x0, symName: __ZNSt3__114__split_bufferINS_6vectorIPK21llama_grammar_elementNS_9allocatorIS4_EEEERNS5_IS7_EEED1Ev, symObjAddr: 0x99F0, symBinAddr: 0x2AF20, symSize: 0x70 }
  - { offset: 0x126748, size: 0x8, addend: 0x0, symName: __Z23llama_grammar_get_rulesPK13llama_grammar, symObjAddr: 0x4130, symBinAddr: 0x257A0, symSize: 0x10 }
  - { offset: 0x126777, size: 0x8, addend: 0x0, symName: __Z24llama_grammar_get_stacksP13llama_grammar, symObjAddr: 0x4140, symBinAddr: 0x257B0, symSize: 0x10 }
  - { offset: 0x126E83, size: 0x8, addend: 0x0, symName: __Z20llama_grammar_acceptP13llama_grammarj, symObjAddr: 0x4150, symBinAddr: 0x257C0, symSize: 0x3E0 }
  - { offset: 0x127E41, size: 0x8, addend: 0x0, symName: __ZL27llama_grammar_advance_stackRKNSt3__16vectorINS0_I21llama_grammar_elementNS_9allocatorIS1_EEEENS2_IS4_EEEERKNS0_IPKS1_NS2_ISA_EEEERNS0_ISC_NS2_ISC_EEEE, symObjAddr: 0x4530, symBinAddr: 0x25BA0, symSize: 0x510 }
  - { offset: 0x129596, size: 0x8, addend: 0x0, symName: __ZNKSt3__16vectorINS0_IPK21llama_grammar_elementNS_9allocatorIS3_EEEENS4_IS6_EEE20__throw_length_errorB8ne190107Ev, symObjAddr: 0x9A60, symBinAddr: 0x2AF90, symSize: 0x10 }
  - { offset: 0x1295C0, size: 0x8, addend: 0x0, symName: __ZNSt3__110shared_ptrINS_13__empty_stateIcEEED1B8ne190107Ev, symObjAddr: 0x9A70, symBinAddr: 0x2AFA0, symSize: 0x40 }
  - { offset: 0x1295CB, size: 0x8, addend: 0x0, symName: __ZNSt3__16vectorINS0_IPK21llama_grammar_elementNS_9allocatorIS3_EEEENS4_IS6_EEED1B8ne190107Ev, symObjAddr: 0x4A40, symBinAddr: 0x260B0, symSize: 0x80 }
  - { offset: 0x129D2E, size: 0x8, addend: 0x0, symName: __ZNSt3__16vectorINS0_IPK21llama_grammar_elementNS_9allocatorIS3_EEEENS4_IS6_EEE24__emplace_back_slow_pathIJRKS6_EEEPS6_DpOT_, symObjAddr: 0x9820, symBinAddr: 0x2AD50, symSize: 0x1C0 }
  - { offset: 0x12ACA6, size: 0x8, addend: 0x0, symName: __Z41llama_grammar_reject_candidates_for_stackRKNSt3__16vectorINS0_I21llama_grammar_elementNS_9allocatorIS1_EEEENS2_IS4_EEEERKNS0_IPKS1_NS2_ISA_EEEERKNS0_I23llama_grammar_candidateNS2_ISF_EEEE, symObjAddr: 0x4AC0, symBinAddr: 0x26130, symSize: 0xE80 }
  - { offset: 0x12D8B2, size: 0x8, addend: 0x0, symName: __ZL31llama_grammar_reject_candidatesRKNSt3__16vectorINS0_I21llama_grammar_elementNS_9allocatorIS1_EEEENS2_IS4_EEEERKNS0_INS0_IPKS1_NS2_ISA_EEEENS2_ISC_EEEERKNS0_I23llama_grammar_candidateNS2_ISH_EEEE, symObjAddr: 0x5940, symBinAddr: 0x26FB0, symSize: 0x120 }
  - { offset: 0x12DD51, size: 0x8, addend: 0x0, symName: __ZNKSt3__16vectorI23llama_grammar_candidateNS_9allocatorIS1_EEE20__throw_length_errorB8ne190107Ev, symObjAddr: 0xA440, symBinAddr: 0x2B7E0, symSize: 0x10 }
  - { offset: 0x12DD7B, size: 0x8, addend: 0x0, symName: __ZNSt3__128__exception_guard_exceptionsINS_6vectorINS1_I21llama_grammar_elementNS_9allocatorIS2_EEEENS3_IS5_EEE16__destroy_vectorEED1B8ne190107Ev, symObjAddr: 0xA450, symBinAddr: 0x2B7F0, symSize: 0x80 }
  - { offset: 0x12E53D, size: 0x8, addend: 0x0, symName: __Z23llama_grammar_init_implPK11llama_vocabPPK21llama_grammar_elementmm, symObjAddr: 0x5A60, symBinAddr: 0x270D0, symSize: 0x910 }
  - { offset: 0x13097B, size: 0x8, addend: 0x0, symName: __ZL35llama_grammar_detect_left_recursionRKNSt3__16vectorINS0_I21llama_grammar_elementNS_9allocatorIS1_EEEENS2_IS4_EEEEmPNS0_IbNS2_IbEEEESB_SB_, symObjAddr: 0x6370, symBinAddr: 0x279E0, symSize: 0x180 }
  - { offset: 0x130CB5, size: 0x8, addend: 0x0, symName: __ZNKSt3__16vectorINS0_I21llama_grammar_elementNS_9allocatorIS1_EEEENS2_IS4_EEE20__throw_length_errorB8ne190107Ev, symObjAddr: 0xA290, symBinAddr: 0x2B630, symSize: 0x10 }
  - { offset: 0x130CDF, size: 0x8, addend: 0x0, symName: __ZNSt3__16vectorI21llama_grammar_elementNS_9allocatorIS1_EEE18__assign_with_sizeB8ne190107IPS1_S6_EEvT_T0_l, symObjAddr: 0xA2A0, symBinAddr: 0x2B640, symSize: 0x150 }
  - { offset: 0x130CEA, size: 0x8, addend: 0x0, symName: __ZNSt3__128__exception_guard_exceptionsINS_6vectorINS1_I21llama_grammar_elementNS_9allocatorIS2_EEEENS3_IS5_EEE16__destroy_vectorEED1B8ne190107Ev, symObjAddr: 0xA450, symBinAddr: 0x2B7F0, symSize: 0x80 }
  - { offset: 0x131007, size: 0x8, addend: 0x0, symName: __ZNSt3__16vectorINS0_I21llama_grammar_elementNS_9allocatorIS1_EEEENS2_IS4_EEED1B8ne190107Ev, symObjAddr: 0x64F0, symBinAddr: 0x27B60, symSize: 0x80 }
  - { offset: 0x131F0A, size: 0x8, addend: 0x0, symName: __Z23llama_grammar_init_implPK11llama_vocabPKcS3_bPS3_mPKim, symObjAddr: 0x6570, symBinAddr: 0x27BE0, symSize: 0x1170 }
  - { offset: 0x13694A, size: 0x8, addend: 0x0, symName: __ZNSt3__16__treeINS_12__value_typeINS_12basic_stringIcNS_11char_traitsIcEENS_9allocatorIcEEEEjEENS_19__map_value_compareIS7_S8_NS_4lessIS7_EELb1EEENS5_IS8_EEE4findIS7_EENS_15__tree_iteratorIS8_PNS_11__tree_nodeIS8_PvEElEERKT_, symObjAddr: 0xA5A0, symBinAddr: 0x2B940, symSize: 0x110 }
  - { offset: 0x136C91, size: 0x8, addend: 0x0, symName: __ZNSt3__16__treeINS_12__value_typeINS_12basic_stringIcNS_11char_traitsIcEENS_9allocatorIcEEEEjEENS_19__map_value_compareIS7_S8_NS_4lessIS7_EELb1EEENS5_IS8_EEE7destroyEPNS_11__tree_nodeIS8_PvEE, symObjAddr: 0x9AB0, symBinAddr: 0x2AFE0, symSize: 0x50 }
  - { offset: 0x136FC2, size: 0x8, addend: 0x0, symName: __ZNSt3__13mapINS_12basic_stringIcNS_11char_traitsIcEENS_9allocatorIcEEEEjNS_4lessIS6_EENS4_INS_4pairIKS6_jEEEEE2atERSA_, symObjAddr: 0x76E0, symBinAddr: 0x28D50, symSize: 0x100 }
  - { offset: 0x1372D2, size: 0x8, addend: 0x0, symName: __ZNSt3__16vectorI29llama_grammar_trigger_patternNS_9allocatorIS1_EEE24__emplace_back_slow_pathIJEEEPS1_DpOT_, symObjAddr: 0xA6C0, symBinAddr: 0x2BA50, symSize: 0x1E0 }
  - { offset: 0x137A38, size: 0x8, addend: 0x0, symName: __ZNSt3__111basic_regexIcNS_12regex_traitsIcEEEC2B8ne190107INS_11char_traitsIcEENS_9allocatorIcEEEERKNS_12basic_stringIcT_T0_EENS_15regex_constants18syntax_option_typeE, symObjAddr: 0xABB0, symBinAddr: 0x2BF40, symSize: 0xD0 }
  - { offset: 0x137C2C, size: 0x8, addend: 0x0, symName: __ZNSt3__16vectorI29llama_grammar_trigger_patternNS_9allocatorIS1_EEE16__destroy_vectorclB8ne190107Ev, symObjAddr: 0xA4D0, symBinAddr: 0x2B870, symSize: 0xD0 }
  - { offset: 0x138071, size: 0x8, addend: 0x0, symName: __ZNSt3__16vectorI29llama_grammar_trigger_patternNS_9allocatorIS1_EEE24__emplace_back_slow_pathIJEEEPS1_DpOT_, symObjAddr: 0xA6C0, symBinAddr: 0x2BA50, symSize: 0x1E0 }
  - { offset: 0x13807C, size: 0x8, addend: 0x0, symName: __ZN20llama_grammar_parserD1Ev, symObjAddr: 0x7830, symBinAddr: 0x28EA0, symSize: 0x80 }
  - { offset: 0x13862C, size: 0x8, addend: 0x0, symName: __ZNSt3__111basic_regexIcNS_12regex_traitsIcEEED1Ev, symObjAddr: 0x77E0, symBinAddr: 0x28E50, symSize: 0x50 }
  - { offset: 0x138DC1, size: 0x8, addend: 0x0, symName: __Z23llama_grammar_free_implP13llama_grammar, symObjAddr: 0x78B0, symBinAddr: 0x28F20, symSize: 0x30 }
  - { offset: 0x138E18, size: 0x8, addend: 0x0, symName: __ZN13llama_grammarD2Ev, symObjAddr: 0x9B00, symBinAddr: 0x2B030, symSize: 0x110 }
  - { offset: 0x139F6E, size: 0x8, addend: 0x0, symName: __Z24llama_grammar_clone_implRK13llama_grammar, symObjAddr: 0x78E0, symBinAddr: 0x28F50, symSize: 0x4E0 }
  - { offset: 0x13B09D, size: 0x8, addend: 0x0, symName: __ZNKSt3__16vectorI29llama_grammar_trigger_patternNS_9allocatorIS1_EEE20__throw_length_errorB8ne190107Ev, symObjAddr: 0xA900, symBinAddr: 0x2BC90, symSize: 0x10 }
  - { offset: 0x13B0C7, size: 0x8, addend: 0x0, symName: __ZNSt3__134__uninitialized_allocator_relocateB8ne190107INS_9allocatorI29llama_grammar_trigger_patternEES2_EEvRT_PT0_S7_S7_, symObjAddr: 0xA910, symBinAddr: 0x2BCA0, symSize: 0x130 }
  - { offset: 0x13B0D2, size: 0x8, addend: 0x0, symName: __ZNSt3__128__exception_guard_exceptionsINS_6vectorINS1_IPK21llama_grammar_elementNS_9allocatorIS4_EEEENS5_IS7_EEE16__destroy_vectorEED1B8ne190107Ev, symObjAddr: 0x13EE0, symBinAddr: 0x351E0, symSize: 0x80 }
  - { offset: 0x13B8AF, size: 0x8, addend: 0x0, symName: __Z24llama_grammar_apply_implRK13llama_grammarP22llama_token_data_array, symObjAddr: 0x7DC0, symBinAddr: 0x29430, symSize: 0x4E0 }
  - { offset: 0x13CFB3, size: 0x8, addend: 0x0, symName: __ZNSt3__16vectorINS_4pairINS0_IjNS_9allocatorIjEEEE18llama_partial_utf8EENS2_IS6_EEE9push_backB8ne190107EOS6_, symObjAddr: 0x82A0, symBinAddr: 0x29910, symSize: 0x160 }
  - { offset: 0x13D529, size: 0x8, addend: 0x0, symName: __ZNKSt3__16vectorINS_4pairINS0_IjNS_9allocatorIjEEEE18llama_partial_utf8EENS2_IS6_EEE20__throw_length_errorB8ne190107Ev, symObjAddr: 0x141D0, symBinAddr: 0x354D0, symSize: 0x10 }
  - { offset: 0x13D553, size: 0x8, addend: 0x0, symName: __ZNSt3__111regex_matchB8ne190107INS_11__wrap_iterIPKcEENS_9allocatorINS_9sub_matchIS4_EEEEcNS_12regex_traitsIcEEEEbT_SB_RNS_13match_resultsISB_T0_EERKNS_11basic_regexIT1_T2_EENS_15regex_constants15match_flag_typeE, symObjAddr: 0x141E0, symBinAddr: 0x354E0, symSize: 0x110 }
  - { offset: 0x13D55E, size: 0x8, addend: 0x0, symName: __ZNSt3__16vectorINS_4pairINS0_IjNS_9allocatorIjEEEE18llama_partial_utf8EENS2_IS6_EEED1B8ne190107Ev, symObjAddr: 0x8A20, symBinAddr: 0x2A090, symSize: 0x80 }
  - { offset: 0x13E016, size: 0x8, addend: 0x0, symName: __ZNKSt3__16vectorIjNS_9allocatorIjEEE20__throw_length_errorB8ne190107Ev, symObjAddr: 0x9C10, symBinAddr: 0x2B140, symSize: 0x10 }
  - { offset: 0x13E4D7, size: 0x8, addend: 0x0, symName: __Z25llama_grammar_accept_implR13llama_grammari, symObjAddr: 0x8AA0, symBinAddr: 0x2A110, symSize: 0x460 }
  - { offset: 0x13F860, size: 0x8, addend: 0x0, symName: __Z24llama_grammar_accept_strR13llama_grammarRKNSt3__112basic_stringIcNS1_11char_traitsIcEENS1_9allocatorIcEEEE, symObjAddr: 0x8F00, symBinAddr: 0x2A570, symSize: 0x150 }
  - { offset: 0x13FE84, size: 0x8, addend: 0x0, symName: __ZNSt3__14pairINS_12basic_stringIcNS_11char_traitsIcEENS_9allocatorIcEEEES6_ED1Ev, symObjAddr: 0x100A0, symBinAddr: 0x31420, symSize: 0x50 }
  - { offset: 0x14049D, size: 0x8, addend: 0x0, symName: __ZNSt3__114__split_bufferINS_6vectorIPK21llama_grammar_elementNS_9allocatorIS4_EEEERNS5_IS7_EEED1Ev, symObjAddr: 0x99F0, symBinAddr: 0x2AF20, symSize: 0x70 }
  - { offset: 0x14084A, size: 0x8, addend: 0x0, symName: __ZNSt3__110shared_ptrINS_13__empty_stateIcEEED1B8ne190107Ev, symObjAddr: 0x9A70, symBinAddr: 0x2AFA0, symSize: 0x40 }
  - { offset: 0x14145C, size: 0x8, addend: 0x0, symName: __ZNSt3__114__split_bufferI29llama_grammar_trigger_patternRNS_9allocatorIS1_EEED2Ev, symObjAddr: 0xAAD0, symBinAddr: 0x2BE60, symSize: 0xE0 }
  - { offset: 0x141863, size: 0x8, addend: 0x0, symName: __ZNSt3__111basic_regexIcNS_12regex_traitsIcEEEC1B8ne190107Ev, symObjAddr: 0xA8A0, symBinAddr: 0x2BC30, symSize: 0x60 }
  - { offset: 0x141AB5, size: 0x8, addend: 0x0, symName: __ZNSt3__128__exception_guard_exceptionsINS_29_AllocatorDestroyRangeReverseINS_9allocatorI29llama_grammar_trigger_patternEEPS3_EEED1B8ne190107Ev, symObjAddr: 0xAA40, symBinAddr: 0x2BDD0, symSize: 0x90 }
  - { offset: 0x141EA0, size: 0x8, addend: 0x0, symName: __ZNSt3__111basic_regexIcNS_12regex_traitsIcEEE7__parseINS_11__wrap_iterIPKcEEEET_S9_S9_, symObjAddr: 0xAC80, symBinAddr: 0x2C010, symSize: 0x1C0 }
  - { offset: 0x142998, size: 0x8, addend: 0x0, symName: __ZNSt3__111basic_regexIcNS_12regex_traitsIcEEE13__parse_egrepINS_11__wrap_iterIPKcEEEET_S9_S9_, symObjAddr: 0xB5E0, symBinAddr: 0x2C970, symSize: 0x1E0 }
  - { offset: 0x142FF2, size: 0x8, addend: 0x0, symName: __ZNSt3__111basic_regexIcNS_12regex_traitsIcEEE24__parse_extended_reg_expINS_11__wrap_iterIPKcEEEET_S9_S9_, symObjAddr: 0xB270, symBinAddr: 0x2C600, symSize: 0x190 }
  - { offset: 0x14344A, size: 0x8, addend: 0x0, symName: __ZNSt3__111basic_regexIcNS_12regex_traitsIcEEE21__parse_basic_reg_expINS_11__wrap_iterIPKcEEEET_S9_S9_, symObjAddr: 0xB110, symBinAddr: 0x2C4A0, symSize: 0x160 }
  - { offset: 0x14389C, size: 0x8, addend: 0x0, symName: __ZNSt3__111basic_regexIcNS_12regex_traitsIcEEE12__parse_grepINS_11__wrap_iterIPKcEEEET_S9_S9_, symObjAddr: 0xB400, symBinAddr: 0x2C790, symSize: 0x1E0 }
  - { offset: 0x143EF6, size: 0x8, addend: 0x0, symName: __ZNSt3__111basic_regexIcNS_12regex_traitsIcEEE16__parse_ecma_expINS_11__wrap_iterIPKcEEEET_S9_S9_, symObjAddr: 0xAE90, symBinAddr: 0x2C220, symSize: 0x280 }
  - { offset: 0x1445D0, size: 0x8, addend: 0x0, symName: __ZNSt3__113__empty_stateIcED0Ev, symObjAddr: 0xB920, symBinAddr: 0x2CCB0, symSize: 0x40 }
  - { offset: 0x144600, size: 0x8, addend: 0x0, symName: __ZNSt3__113__empty_stateIcED0Ev, symObjAddr: 0xB920, symBinAddr: 0x2CCB0, symSize: 0x40 }
  - { offset: 0x14461E, size: 0x8, addend: 0x0, symName: __ZNSt3__113__empty_stateIcED0Ev, symObjAddr: 0xB920, symBinAddr: 0x2CCB0, symSize: 0x40 }
  - { offset: 0x14463C, size: 0x8, addend: 0x0, symName: __ZNSt3__113__empty_stateIcED0Ev, symObjAddr: 0xB920, symBinAddr: 0x2CCB0, symSize: 0x40 }
  - { offset: 0x144899, size: 0x8, addend: 0x0, symName: __ZNSt3__111basic_regexIcNS_12regex_traitsIcEEE17__parse_assertionINS_11__wrap_iterIPKcEEEET_S9_S9_, symObjAddr: 0xB9F0, symBinAddr: 0x2CD80, symSize: 0x2E0 }
  - { offset: 0x144FE1, size: 0x8, addend: 0x0, symName: __ZNSt3__111basic_regexIcNS_12regex_traitsIcEEE12__parse_atomINS_11__wrap_iterIPKcEEEET_S9_S9_, symObjAddr: 0xBCD0, symBinAddr: 0x2D060, symSize: 0x2C0 }
  - { offset: 0x14545E, size: 0x8, addend: 0x0, symName: __ZNSt3__111basic_regexIcNS_12regex_traitsIcEEE23__parse_ERE_dupl_symbolINS_11__wrap_iterIPKcEEEET_S9_S9_PNS_16__owns_one_stateIcEEjj, symObjAddr: 0xBF90, symBinAddr: 0x2D320, symSize: 0x3F0 }
  - { offset: 0x145DAF, size: 0x8, addend: 0x0, symName: __ZNSt3__111basic_regexIcNS_12regex_traitsIcEEE18__parse_nondupl_REINS_11__wrap_iterIPKcEEEET_S9_S9_, symObjAddr: 0x130D0, symBinAddr: 0x34450, symSize: 0x1E0 }
  - { offset: 0x146417, size: 0x8, addend: 0x0, symName: __ZNSt3__111basic_regexIcNS_12regex_traitsIcEEE22__parse_RE_dupl_symbolINS_11__wrap_iterIPKcEEEET_S9_S9_PNS_16__owns_one_stateIcEEjj, symObjAddr: 0x132B0, symBinAddr: 0x34630, symSize: 0x260 }
  - { offset: 0x146C26, size: 0x8, addend: 0x0, symName: __ZNSt3__111basic_regexIcNS_12regex_traitsIcEEE22__parse_ERE_expressionINS_11__wrap_iterIPKcEEEET_S9_S9_, symObjAddr: 0x136F0, symBinAddr: 0x34A70, symSize: 0x260 }
  - { offset: 0x1471B2, size: 0x8, addend: 0x0, symName: __ZNSt3__111__end_stateIcED1Ev, symObjAddr: 0xB810, symBinAddr: 0x2CBA0, symSize: 0x10 }
  - { offset: 0x1471DE, size: 0x8, addend: 0x0, symName: __ZNSt3__111__end_stateIcED0Ev, symObjAddr: 0xB820, symBinAddr: 0x2CBB0, symSize: 0x10 }
  - { offset: 0x14720A, size: 0x8, addend: 0x0, symName: __ZNKSt3__111__end_stateIcE6__execERNS_7__stateIcEE, symObjAddr: 0xB830, symBinAddr: 0x2CBC0, symSize: 0x10 }
  - { offset: 0x14723E, size: 0x8, addend: 0x0, symName: __ZNKSt3__16__nodeIcE12__exec_splitEbRNS_7__stateIcEE, symObjAddr: 0xB840, symBinAddr: 0x2CBD0, symSize: 0x10 }
  - { offset: 0x147285, size: 0x8, addend: 0x0, symName: __ZNKSt3__16__nodeIcE6__execERNS_7__stateIcEE, symObjAddr: 0xB850, symBinAddr: 0x2CBE0, symSize: 0x10 }
  - { offset: 0x1472D1, size: 0x8, addend: 0x0, symName: __ZNSt3__120__shared_ptr_pointerIPNS_13__empty_stateIcEENS_10shared_ptrIS2_E27__shared_ptr_default_deleteIS2_S2_EENS_9allocatorIS2_EEED1Ev, symObjAddr: 0xB860, symBinAddr: 0x2CBF0, symSize: 0x10 }
  - { offset: 0x147329, size: 0x8, addend: 0x0, symName: __ZNSt3__120__shared_ptr_pointerIPNS_13__empty_stateIcEENS_10shared_ptrIS2_E27__shared_ptr_default_deleteIS2_S2_EENS_9allocatorIS2_EEED0Ev, symObjAddr: 0xB870, symBinAddr: 0x2CC00, symSize: 0x30 }
  - { offset: 0x14738E, size: 0x8, addend: 0x0, symName: __ZNSt3__120__shared_ptr_pointerIPNS_13__empty_stateIcEENS_10shared_ptrIS2_E27__shared_ptr_default_deleteIS2_S2_EENS_9allocatorIS2_EEE16__on_zero_sharedEv, symObjAddr: 0xB8A0, symBinAddr: 0x2CC30, symSize: 0x20 }
  - { offset: 0x147422, size: 0x8, addend: 0x0, symName: __ZNKSt3__120__shared_ptr_pointerIPNS_13__empty_stateIcEENS_10shared_ptrIS2_E27__shared_ptr_default_deleteIS2_S2_EENS_9allocatorIS2_EEE13__get_deleterERKSt9type_info, symObjAddr: 0xB8C0, symBinAddr: 0x2CC50, symSize: 0x20 }
  - { offset: 0x1474E2, size: 0x8, addend: 0x0, symName: __ZNSt3__120__shared_ptr_pointerIPNS_13__empty_stateIcEENS_10shared_ptrIS2_E27__shared_ptr_default_deleteIS2_S2_EENS_9allocatorIS2_EEE21__on_zero_shared_weakEv, symObjAddr: 0xB8E0, symBinAddr: 0x2CC70, symSize: 0x10 }
  - { offset: 0x1475EB, size: 0x8, addend: 0x0, symName: __ZNSt3__113__empty_stateIcED1Ev, symObjAddr: 0xB8F0, symBinAddr: 0x2CC80, symSize: 0x30 }
  - { offset: 0x14768F, size: 0x8, addend: 0x0, symName: __ZNKSt3__113__empty_stateIcE6__execERNS_7__stateIcEE, symObjAddr: 0xB960, symBinAddr: 0x2CCF0, symSize: 0x20 }
  - { offset: 0x1476E2, size: 0x8, addend: 0x0, symName: __ZNSt3__116__owns_one_stateIcED1Ev, symObjAddr: 0xB980, symBinAddr: 0x2CD10, symSize: 0x30 }
  - { offset: 0x14774B, size: 0x8, addend: 0x0, symName: __ZNSt3__116__owns_one_stateIcED0Ev, symObjAddr: 0xB9B0, symBinAddr: 0x2CD40, symSize: 0x40 }
  - { offset: 0x14777A, size: 0x8, addend: 0x0, symName: __ZNSt3__116__owns_one_stateIcED0Ev, symObjAddr: 0xB9B0, symBinAddr: 0x2CD40, symSize: 0x40 }
  - { offset: 0x147798, size: 0x8, addend: 0x0, symName: __ZNSt3__116__owns_one_stateIcED0Ev, symObjAddr: 0xB9B0, symBinAddr: 0x2CD40, symSize: 0x40 }
  - { offset: 0x1478BF, size: 0x8, addend: 0x0, symName: __ZNSt3__111basic_regexIcNS_12regex_traitsIcEEE16__push_lookaheadERKS3_bj, symObjAddr: 0xC380, symBinAddr: 0x2D710, symSize: 0xC0 }
  - { offset: 0x147CB5, size: 0x8, addend: 0x0, symName: __ZNSt3__111basic_regexIcNS_12regex_traitsIcEEE19__parse_atom_escapeINS_11__wrap_iterIPKcEEEET_S9_S9_, symObjAddr: 0xDC70, symBinAddr: 0x2F000, symSize: 0x130 }
  - { offset: 0x147F60, size: 0x8, addend: 0x0, symName: __ZNSt3__111basic_regexIcNS_12regex_traitsIcEEE26__parse_bracket_expressionINS_11__wrap_iterIPKcEEEET_S9_S9_, symObjAddr: 0xDDA0, symBinAddr: 0x2F130, symSize: 0x150 }
  - { offset: 0x14826F, size: 0x8, addend: 0x0, symName: __ZNSt3__111basic_regexIcNS_12regex_traitsIcEEE25__parse_pattern_characterINS_11__wrap_iterIPKcEEEET_S9_S9_, symObjAddr: 0xDF40, symBinAddr: 0x2F2D0, symSize: 0x1B0 }
  - { offset: 0x14846D, size: 0x8, addend: 0x0, symName: __ZNSt3__111basic_regexIcNS_12regex_traitsIcEEE11__push_loopEmmPNS_16__owns_one_stateIcEEmmb, symObjAddr: 0x128A0, symBinAddr: 0x33C20, symSize: 0x130 }
  - { offset: 0x1489DC, size: 0x8, addend: 0x0, symName: __ZNSt3__120__l_anchor_multilineIcED1Ev, symObjAddr: 0xC490, symBinAddr: 0x2D820, symSize: 0x30 }
  - { offset: 0x148A65, size: 0x8, addend: 0x0, symName: __ZNSt3__120__l_anchor_multilineIcED0Ev, symObjAddr: 0xC4C0, symBinAddr: 0x2D850, symSize: 0x40 }
  - { offset: 0x148A95, size: 0x8, addend: 0x0, symName: __ZNSt3__120__l_anchor_multilineIcED0Ev, symObjAddr: 0xC4C0, symBinAddr: 0x2D850, symSize: 0x40 }
  - { offset: 0x148AB3, size: 0x8, addend: 0x0, symName: __ZNSt3__120__l_anchor_multilineIcED0Ev, symObjAddr: 0xC4C0, symBinAddr: 0x2D850, symSize: 0x40 }
  - { offset: 0x148AD1, size: 0x8, addend: 0x0, symName: __ZNSt3__120__l_anchor_multilineIcED0Ev, symObjAddr: 0xC4C0, symBinAddr: 0x2D850, symSize: 0x40 }
  - { offset: 0x148AFC, size: 0x8, addend: 0x0, symName: __ZNKSt3__120__l_anchor_multilineIcE6__execERNS_7__stateIcEE, symObjAddr: 0xC500, symBinAddr: 0x2D890, symSize: 0x60 }
  - { offset: 0x148B61, size: 0x8, addend: 0x0, symName: __ZNSt3__120__r_anchor_multilineIcED1Ev, symObjAddr: 0xC560, symBinAddr: 0x2D8F0, symSize: 0x30 }
  - { offset: 0x148BEA, size: 0x8, addend: 0x0, symName: __ZNSt3__120__r_anchor_multilineIcED0Ev, symObjAddr: 0xC590, symBinAddr: 0x2D920, symSize: 0x40 }
  - { offset: 0x148C1A, size: 0x8, addend: 0x0, symName: __ZNSt3__120__r_anchor_multilineIcED0Ev, symObjAddr: 0xC590, symBinAddr: 0x2D920, symSize: 0x40 }
  - { offset: 0x148C38, size: 0x8, addend: 0x0, symName: __ZNSt3__120__r_anchor_multilineIcED0Ev, symObjAddr: 0xC590, symBinAddr: 0x2D920, symSize: 0x40 }
  - { offset: 0x148C56, size: 0x8, addend: 0x0, symName: __ZNSt3__120__r_anchor_multilineIcED0Ev, symObjAddr: 0xC590, symBinAddr: 0x2D920, symSize: 0x40 }
  - { offset: 0x148C81, size: 0x8, addend: 0x0, symName: __ZNKSt3__120__r_anchor_multilineIcE6__execERNS_7__stateIcEE, symObjAddr: 0xC5D0, symBinAddr: 0x2D960, symSize: 0x60 }
  - { offset: 0x148D0C, size: 0x8, addend: 0x0, symName: __ZNSt3__115__word_boundaryIcNS_12regex_traitsIcEEED1Ev, symObjAddr: 0xC630, symBinAddr: 0x2D9C0, symSize: 0x50 }
  - { offset: 0x148DCF, size: 0x8, addend: 0x0, symName: __ZNSt3__115__word_boundaryIcNS_12regex_traitsIcEEED0Ev, symObjAddr: 0xC680, symBinAddr: 0x2DA10, symSize: 0x50 }
  - { offset: 0x148F18, size: 0x8, addend: 0x0, symName: __ZNKSt3__115__word_boundaryIcNS_12regex_traitsIcEEE6__execERNS_7__stateIcEE, symObjAddr: 0xC6D0, symBinAddr: 0x2DA60, symSize: 0x100 }
  - { offset: 0x1490E4, size: 0x8, addend: 0x0, symName: __ZNSt3__111__lookaheadIcNS_12regex_traitsIcEEED1Ev, symObjAddr: 0xC7D0, symBinAddr: 0x2DB60, symSize: 0x90 }
  - { offset: 0x14927E, size: 0x8, addend: 0x0, symName: __ZNSt3__111__lookaheadIcNS_12regex_traitsIcEEED0Ev, symObjAddr: 0xC860, symBinAddr: 0x2DBF0, symSize: 0x90 }
  - { offset: 0x149709, size: 0x8, addend: 0x0, symName: __ZNKSt3__111__lookaheadIcNS_12regex_traitsIcEEE6__execERNS_7__stateIcEE, symObjAddr: 0xC8F0, symBinAddr: 0x2DC80, symSize: 0x1B0 }
  - { offset: 0x149D5B, size: 0x8, addend: 0x0, symName: __ZNSt3__16vectorINS_9sub_matchIPKcEENS_9allocatorIS4_EEE6assignEmRKS4_, symObjAddr: 0xCFD0, symBinAddr: 0x2E360, symSize: 0x220 }
  - { offset: 0x14A3FF, size: 0x8, addend: 0x0, symName: __ZNKSt3__111basic_regexIcNS_12regex_traitsIcEEE21__match_at_start_ecmaINS_9allocatorINS_9sub_matchIPKcEEEEEEbS8_S8_RNS_13match_resultsIS8_T_EENS_15regex_constants15match_flag_typeEb, symObjAddr: 0xCAA0, symBinAddr: 0x2DE30, symSize: 0x530 }
  - { offset: 0x14BEF1, size: 0x8, addend: 0x0, symName: __ZNSt3__16vectorINS_7__stateIcEENS_9allocatorIS2_EEE21__push_back_slow_pathIS2_EEPS2_OT_, symObjAddr: 0xD390, symBinAddr: 0x2E720, symSize: 0x1E0 }
  - { offset: 0x14C7B8, size: 0x8, addend: 0x0, symName: __ZNSt3__16vectorINS_9sub_matchIPKcEENS_9allocatorIS4_EEE8__appendEmRKS4_, symObjAddr: 0xD790, symBinAddr: 0x2EB20, symSize: 0x1D0 }
  - { offset: 0x14CC86, size: 0x8, addend: 0x0, symName: __ZNSt3__16vectorINS_4pairImPKcEENS_9allocatorIS4_EEE8__appendEm, symObjAddr: 0xD960, symBinAddr: 0x2ECF0, symSize: 0x150 }
  - { offset: 0x14D14E, size: 0x8, addend: 0x0, symName: __ZNSt3__17__stateIcEC2ERKS1_, symObjAddr: 0xDAC0, symBinAddr: 0x2EE50, symSize: 0x1B0 }
  - { offset: 0x14D86B, size: 0x8, addend: 0x0, symName: __ZNSt3__17__stateIcED1Ev, symObjAddr: 0xD200, symBinAddr: 0x2E590, symSize: 0x50 }
  - { offset: 0x14DBC8, size: 0x8, addend: 0x0, symName: __ZNSt3__16vectorINS_7__stateIcEENS_9allocatorIS2_EEED1B8ne190107Ev, symObjAddr: 0xD2F0, symBinAddr: 0x2E680, symSize: 0xA0 }
  - { offset: 0x14E390, size: 0x8, addend: 0x0, symName: __ZNKSt3__16vectorINS_9sub_matchIPKcEENS_9allocatorIS4_EEE20__throw_length_errorB8ne190107Ev, symObjAddr: 0xD1F0, symBinAddr: 0x2E580, symSize: 0x10 }
  - { offset: 0x14E3BA, size: 0x8, addend: 0x0, symName: __ZNSt3__17__stateIcED1Ev, symObjAddr: 0xD200, symBinAddr: 0x2E590, symSize: 0x50 }
  - { offset: 0x14E641, size: 0x8, addend: 0x0, symName: __ZNSt3__16vectorINS_7__stateIcEENS_9allocatorIS2_EEE26__swap_out_circular_bufferERNS_14__split_bufferIS2_RS4_EE, symObjAddr: 0xD570, symBinAddr: 0x2E900, symSize: 0x180 }
  - { offset: 0x14ECA3, size: 0x8, addend: 0x0, symName: __ZNKSt3__16vectorINS_7__stateIcEENS_9allocatorIS2_EEE20__throw_length_errorB8ne190107Ev, symObjAddr: 0xD780, symBinAddr: 0x2EB10, symSize: 0x10 }
  - { offset: 0x14ECCD, size: 0x8, addend: 0x0, symName: __ZNSt3__16vectorINS_9sub_matchIPKcEENS_9allocatorIS4_EEE8__appendEmRKS4_, symObjAddr: 0xD790, symBinAddr: 0x2EB20, symSize: 0x1D0 }
  - { offset: 0x14ECD8, size: 0x8, addend: 0x0, symName: __ZNSt3__114__split_bufferINS_7__stateIcEERNS_9allocatorIS2_EEED1Ev, symObjAddr: 0xD6F0, symBinAddr: 0x2EA80, symSize: 0x90 }
  - { offset: 0x14F6A2, size: 0x8, addend: 0x0, symName: __ZNKSt3__16vectorINS_4pairImPKcEENS_9allocatorIS4_EEE20__throw_length_errorB8ne190107Ev, symObjAddr: 0xDAB0, symBinAddr: 0x2EE40, symSize: 0x10 }
  - { offset: 0x14F6CC, size: 0x8, addend: 0x0, symName: __ZNSt3__17__stateIcEC2ERKS1_, symObjAddr: 0xDAC0, symBinAddr: 0x2EE50, symSize: 0x1B0 }
  - { offset: 0x14FAFD, size: 0x8, addend: 0x0, symName: __ZNSt3__111basic_regexIcNS_12regex_traitsIcEEE11__push_charEc, symObjAddr: 0xE8C0, symBinAddr: 0x2FC50, symSize: 0x140 }
  - { offset: 0x14FE9C, size: 0x8, addend: 0x0, symName: __ZNSt3__111basic_regexIcNS_12regex_traitsIcEEE15__push_back_refEi, symObjAddr: 0xEA50, symBinAddr: 0x2FDE0, symSize: 0xD0 }
  - { offset: 0x1500F0, size: 0x8, addend: 0x0, symName: __ZNSt3__111basic_regexIcNS_12regex_traitsIcEEE30__parse_character_class_escapeINS_11__wrap_iterIPKcEEEET_S9_S9_, symObjAddr: 0xE1B0, symBinAddr: 0x2F540, symSize: 0x2E0 }
  - { offset: 0x15068F, size: 0x8, addend: 0x0, symName: __ZNSt3__111basic_regexIcNS_12regex_traitsIcEEE24__parse_character_escapeINS_11__wrap_iterIPKcEEEET_S9_S9_PNS_12basic_stringIcNS_11char_traitsIcEENS_9allocatorIcEEEE, symObjAddr: 0xE490, symBinAddr: 0x2F820, symSize: 0x430 }
  - { offset: 0x150CE4, size: 0x8, addend: 0x0, symName: __ZNSt3__120__bracket_expressionIcNS_12regex_traitsIcEEEC2B8ne190107ERKS2_PNS_6__nodeIcEEbbb, symObjAddr: 0xF2C0, symBinAddr: 0x30650, symSize: 0x1D0 }
  - { offset: 0x1515BA, size: 0x8, addend: 0x0, symName: __ZNSt3__120__bracket_expressionIcNS_12regex_traitsIcEEE10__add_charB8ne190107Ec, symObjAddr: 0xF140, symBinAddr: 0x304D0, symSize: 0x180 }
  - { offset: 0x1518BA, size: 0x8, addend: 0x0, symName: __ZNSt3__111basic_regexIcNS_12regex_traitsIcEEE23__parse_expression_termINS_11__wrap_iterIPKcEEEET_S9_S9_PNS_20__bracket_expressionIcS2_EE, symObjAddr: 0x107C0, symBinAddr: 0x31B40, symSize: 0x480 }
  - { offset: 0x152B46, size: 0x8, addend: 0x0, symName: __ZNSt3__123__match_any_but_newlineIcED1Ev, symObjAddr: 0xE0F0, symBinAddr: 0x2F480, symSize: 0x30 }
  - { offset: 0x152BCF, size: 0x8, addend: 0x0, symName: __ZNSt3__123__match_any_but_newlineIcED0Ev, symObjAddr: 0xE120, symBinAddr: 0x2F4B0, symSize: 0x40 }
  - { offset: 0x152BFF, size: 0x8, addend: 0x0, symName: __ZNSt3__123__match_any_but_newlineIcED0Ev, symObjAddr: 0xE120, symBinAddr: 0x2F4B0, symSize: 0x40 }
  - { offset: 0x152C1D, size: 0x8, addend: 0x0, symName: __ZNSt3__123__match_any_but_newlineIcED0Ev, symObjAddr: 0xE120, symBinAddr: 0x2F4B0, symSize: 0x40 }
  - { offset: 0x152C3B, size: 0x8, addend: 0x0, symName: __ZNSt3__123__match_any_but_newlineIcED0Ev, symObjAddr: 0xE120, symBinAddr: 0x2F4B0, symSize: 0x40 }
  - { offset: 0x15306D, size: 0x8, addend: 0x0, symName: __ZNSt3__118__match_char_icaseIcNS_12regex_traitsIcEEED1Ev, symObjAddr: 0xEB20, symBinAddr: 0x2FEB0, symSize: 0x50 }
  - { offset: 0x153130, size: 0x8, addend: 0x0, symName: __ZNSt3__118__match_char_icaseIcNS_12regex_traitsIcEEED0Ev, symObjAddr: 0xEB70, symBinAddr: 0x2FF00, symSize: 0x50 }
  - { offset: 0x1531FF, size: 0x8, addend: 0x0, symName: __ZNKSt3__118__match_char_icaseIcNS_12regex_traitsIcEEE6__execERNS_7__stateIcEE, symObjAddr: 0xEBC0, symBinAddr: 0x2FF50, symSize: 0x50 }
  - { offset: 0x1532B8, size: 0x8, addend: 0x0, symName: __ZNSt3__120__match_char_collateIcNS_12regex_traitsIcEEED1Ev, symObjAddr: 0xEC10, symBinAddr: 0x2FFA0, symSize: 0x50 }
  - { offset: 0x15337B, size: 0x8, addend: 0x0, symName: __ZNSt3__120__match_char_collateIcNS_12regex_traitsIcEEED0Ev, symObjAddr: 0xEC60, symBinAddr: 0x2FFF0, symSize: 0x50 }
  - { offset: 0x15344A, size: 0x8, addend: 0x0, symName: __ZNKSt3__120__match_char_collateIcNS_12regex_traitsIcEEE6__execERNS_7__stateIcEE, symObjAddr: 0xECB0, symBinAddr: 0x30040, symSize: 0x40 }
  - { offset: 0x1534B8, size: 0x8, addend: 0x0, symName: __ZNSt3__112__match_charIcED1Ev, symObjAddr: 0xECF0, symBinAddr: 0x30080, symSize: 0x30 }
  - { offset: 0x153541, size: 0x8, addend: 0x0, symName: __ZNSt3__112__match_charIcED0Ev, symObjAddr: 0xED20, symBinAddr: 0x300B0, symSize: 0x40 }
  - { offset: 0x153571, size: 0x8, addend: 0x0, symName: __ZNSt3__112__match_charIcED0Ev, symObjAddr: 0xED20, symBinAddr: 0x300B0, symSize: 0x40 }
  - { offset: 0x15358F, size: 0x8, addend: 0x0, symName: __ZNSt3__112__match_charIcED0Ev, symObjAddr: 0xED20, symBinAddr: 0x300B0, symSize: 0x40 }
  - { offset: 0x1535AD, size: 0x8, addend: 0x0, symName: __ZNSt3__112__match_charIcED0Ev, symObjAddr: 0xED20, symBinAddr: 0x300B0, symSize: 0x40 }
  - { offset: 0x1535D8, size: 0x8, addend: 0x0, symName: __ZNKSt3__112__match_charIcE6__execERNS_7__stateIcEE, symObjAddr: 0xED60, symBinAddr: 0x300F0, symSize: 0x40 }
  - { offset: 0x153646, size: 0x8, addend: 0x0, symName: __ZNSt3__116__back_ref_icaseIcNS_12regex_traitsIcEEED1Ev, symObjAddr: 0xEDA0, symBinAddr: 0x30130, symSize: 0x50 }
  - { offset: 0x153709, size: 0x8, addend: 0x0, symName: __ZNSt3__116__back_ref_icaseIcNS_12regex_traitsIcEEED0Ev, symObjAddr: 0xEDF0, symBinAddr: 0x30180, symSize: 0x50 }
  - { offset: 0x1537D8, size: 0x8, addend: 0x0, symName: __ZNKSt3__116__back_ref_icaseIcNS_12regex_traitsIcEEE6__execERNS_7__stateIcEE, symObjAddr: 0xEE40, symBinAddr: 0x301D0, symSize: 0xC0 }
  - { offset: 0x153946, size: 0x8, addend: 0x0, symName: __ZNSt3__118__back_ref_collateIcNS_12regex_traitsIcEEED1Ev, symObjAddr: 0xEF00, symBinAddr: 0x30290, symSize: 0x50 }
  - { offset: 0x153A09, size: 0x8, addend: 0x0, symName: __ZNSt3__118__back_ref_collateIcNS_12regex_traitsIcEEED0Ev, symObjAddr: 0xEF50, symBinAddr: 0x302E0, symSize: 0x50 }
  - { offset: 0x153AD8, size: 0x8, addend: 0x0, symName: __ZNKSt3__118__back_ref_collateIcNS_12regex_traitsIcEEE6__execERNS_7__stateIcEE, symObjAddr: 0xEFA0, symBinAddr: 0x30330, symSize: 0x80 }
  - { offset: 0x153BB1, size: 0x8, addend: 0x0, symName: __ZNSt3__110__back_refIcED1Ev, symObjAddr: 0xF020, symBinAddr: 0x303B0, symSize: 0x30 }
  - { offset: 0x153C3A, size: 0x8, addend: 0x0, symName: __ZNSt3__110__back_refIcED0Ev, symObjAddr: 0xF050, symBinAddr: 0x303E0, symSize: 0x40 }
  - { offset: 0x153C6A, size: 0x8, addend: 0x0, symName: __ZNSt3__110__back_refIcED0Ev, symObjAddr: 0xF050, symBinAddr: 0x303E0, symSize: 0x40 }
  - { offset: 0x153C88, size: 0x8, addend: 0x0, symName: __ZNSt3__110__back_refIcED0Ev, symObjAddr: 0xF050, symBinAddr: 0x303E0, symSize: 0x40 }
  - { offset: 0x153CA6, size: 0x8, addend: 0x0, symName: __ZNSt3__110__back_refIcED0Ev, symObjAddr: 0xF050, symBinAddr: 0x303E0, symSize: 0x40 }
  - { offset: 0x153CD1, size: 0x8, addend: 0x0, symName: __ZNKSt3__110__back_refIcE6__execERNS_7__stateIcEE, symObjAddr: 0xF090, symBinAddr: 0x30420, symSize: 0xB0 }
  - { offset: 0x1540AF, size: 0x8, addend: 0x0, symName: __ZNKSt3__16vectorIcNS_9allocatorIcEEE20__throw_length_errorB8ne190107Ev, symObjAddr: 0x10760, symBinAddr: 0x31AE0, symSize: 0x10 }
  - { offset: 0x1540D9, size: 0x8, addend: 0x0, symName: __ZNSt3__119__throw_regex_errorB8ne190107ILNS_15regex_constants10error_typeE5EEEvv, symObjAddr: 0x10770, symBinAddr: 0x31AF0, symSize: 0x50 }
  - { offset: 0x15433D, size: 0x8, addend: 0x0, symName: __ZNSt3__16vectorINS_12basic_stringIcNS_11char_traitsIcEENS_9allocatorIcEEEENS4_IS6_EEED1B8ne190107Ev, symObjAddr: 0xF490, symBinAddr: 0x30820, symSize: 0x80 }
  - { offset: 0x154646, size: 0x8, addend: 0x0, symName: __ZNSt3__16vectorINS_4pairINS_12basic_stringIcNS_11char_traitsIcEENS_9allocatorIcEEEES7_EENS5_IS8_EEED1B8ne190107Ev, symObjAddr: 0xF510, symBinAddr: 0x308A0, symSize: 0xB0 }
  - { offset: 0x154D95, size: 0x8, addend: 0x0, symName: __ZNSt3__120__bracket_expressionIcNS_12regex_traitsIcEEED1Ev, symObjAddr: 0xF5C0, symBinAddr: 0x30950, symSize: 0x10 }
  - { offset: 0x154DCB, size: 0x8, addend: 0x0, symName: __ZNSt3__120__bracket_expressionIcNS_12regex_traitsIcEEED2Ev, symObjAddr: 0x100F0, symBinAddr: 0x31470, symSize: 0x190 }
  - { offset: 0x155AD9, size: 0x8, addend: 0x0, symName: __ZNSt3__120__bracket_expressionIcNS_12regex_traitsIcEEED0Ev, symObjAddr: 0xF5D0, symBinAddr: 0x30960, symSize: 0x30 }
  - { offset: 0x155F33, size: 0x8, addend: 0x0, symName: __ZNKSt3__120__bracket_expressionIcNS_12regex_traitsIcEEE6__execERNS_7__stateIcEE, symObjAddr: 0xF600, symBinAddr: 0x30990, symSize: 0xA90 }
  - { offset: 0x157AB1, size: 0x8, addend: 0x0, symName: __ZNKSt3__112regex_traitsIcE20__lookup_collatenameIPcEENS_12basic_stringIcNS_11char_traitsIcEENS_9allocatorIcEEEET_SA_c, symObjAddr: 0x103A0, symBinAddr: 0x31720, symSize: 0x240 }
  - { offset: 0x158751, size: 0x8, addend: 0x0, symName: __ZNKSt3__112regex_traitsIcE9transformIPcEENS_12basic_stringIcNS_11char_traitsIcEENS_9allocatorIcEEEET_SA_, symObjAddr: 0x10280, symBinAddr: 0x31600, symSize: 0x120 }
  - { offset: 0x158E0D, size: 0x8, addend: 0x0, symName: __ZNKSt3__112regex_traitsIcE19__transform_primaryIPcEENS_12basic_stringIcNS_11char_traitsIcEENS_9allocatorIcEEEET_SA_c, symObjAddr: 0x105E0, symBinAddr: 0x31960, symSize: 0x180 }
  - { offset: 0x1595F0, size: 0x8, addend: 0x0, symName: __ZNSt3__14pairINS_12basic_stringIcNS_11char_traitsIcEENS_9allocatorIcEEEES6_ED1Ev, symObjAddr: 0x100A0, symBinAddr: 0x31420, symSize: 0x50 }
  - { offset: 0x1599A1, size: 0x8, addend: 0x0, symName: __ZNSt3__111basic_regexIcNS_12regex_traitsIcEEE25__parse_equivalence_classINS_11__wrap_iterIPKcEEEET_S9_S9_PNS_20__bracket_expressionIcS2_EE, symObjAddr: 0x10C40, symBinAddr: 0x31FC0, symSize: 0x270 }
  - { offset: 0x15A5A1, size: 0x8, addend: 0x0, symName: __ZNSt3__111basic_regexIcNS_12regex_traitsIcEEE18__parse_awk_escapeINS_11__wrap_iterIPKcEEEET_S9_S9_PNS_12basic_stringIcNS_11char_traitsIcEENS_9allocatorIcEEEE, symObjAddr: 0x111B0, symBinAddr: 0x32530, symSize: 0x2E0 }
  - { offset: 0x15A71B, size: 0x8, addend: 0x0, symName: __ZNSt3__111basic_regexIcNS_12regex_traitsIcEEE23__parse_character_classINS_11__wrap_iterIPKcEEEET_S9_S9_PNS_20__bracket_expressionIcS2_EE, symObjAddr: 0x10EB0, symBinAddr: 0x32230, symSize: 0x90 }
  - { offset: 0x15AA41, size: 0x8, addend: 0x0, symName: __ZNSt3__111basic_regexIcNS_12regex_traitsIcEEE24__parse_collating_symbolINS_11__wrap_iterIPKcEEEET_S9_S9_RNS_12basic_stringIcNS_11char_traitsIcEENS_9allocatorIcEEEE, symObjAddr: 0x10F40, symBinAddr: 0x322C0, symSize: 0xD0 }
  - { offset: 0x15AEAC, size: 0x8, addend: 0x0, symName: __ZNSt3__111basic_regexIcNS_12regex_traitsIcEEE20__parse_class_escapeINS_11__wrap_iterIPKcEEEET_S9_S9_RNS_12basic_stringIcNS_11char_traitsIcEENS_9allocatorIcEEEEPNS_20__bracket_expressionIcS2_EE, symObjAddr: 0x11010, symBinAddr: 0x32390, symSize: 0x1A0 }
  - { offset: 0x15B08B, size: 0x8, addend: 0x0, symName: __ZNSt3__120__bracket_expressionIcNS_12regex_traitsIcEEE13__add_digraphB8ne190107Ecc, symObjAddr: 0x11910, symBinAddr: 0x32C90, symSize: 0x210 }
  - { offset: 0x15B6BE, size: 0x8, addend: 0x0, symName: __ZNSt3__120__bracket_expressionIcNS_12regex_traitsIcEEE11__add_rangeB8ne190107ENS_12basic_stringIcNS_11char_traitsIcEENS_9allocatorIcEEEES9_, symObjAddr: 0x11490, symBinAddr: 0x32810, symSize: 0x480 }
  - { offset: 0x15CBDF, size: 0x8, addend: 0x0, symName: __ZNKSt3__112regex_traitsIcE20__lookup_collatenameINS_11__wrap_iterIPKcEEEENS_12basic_stringIcNS_11char_traitsIcEENS_9allocatorIcEEEET_SD_c, symObjAddr: 0x11B70, symBinAddr: 0x32EF0, symSize: 0x240 }
  - { offset: 0x15D894, size: 0x8, addend: 0x0, symName: __ZNKSt3__112regex_traitsIcE19__transform_primaryINS_11__wrap_iterIPcEEEENS_12basic_stringIcNS_11char_traitsIcEENS_9allocatorIcEEEET_SC_c, symObjAddr: 0x11DB0, symBinAddr: 0x33130, symSize: 0x180 }
  - { offset: 0x15E08C, size: 0x8, addend: 0x0, symName: __ZNSt3__16vectorINS_12basic_stringIcNS_11char_traitsIcEENS_9allocatorIcEEEENS4_IS6_EEE21__push_back_slow_pathIRKS6_EEPS6_OT_, symObjAddr: 0x11F30, symBinAddr: 0x332B0, symSize: 0x180 }
  - { offset: 0x15E605, size: 0x8, addend: 0x0, symName: __ZNKSt3__112regex_traitsIcE18__lookup_classnameINS_11__wrap_iterIPKcEEEEjT_S7_bc, symObjAddr: 0x12180, symBinAddr: 0x33500, symSize: 0x130 }
  - { offset: 0x15EE0A, size: 0x8, addend: 0x0, symName: __ZNSt3__120__bracket_expressionIcNS_12regex_traitsIcEEE14__add_neg_charB8ne190107Ec, symObjAddr: 0x122B0, symBinAddr: 0x33630, symSize: 0x180 }
  - { offset: 0x15F1C3, size: 0x8, addend: 0x0, symName: __ZNSt3__16vectorINS_4pairINS_12basic_stringIcNS_11char_traitsIcEENS_9allocatorIcEEEES7_EENS5_IS8_EEE9push_backB8ne190107EOS8_, symObjAddr: 0x12430, symBinAddr: 0x337B0, symSize: 0x1A0 }
  - { offset: 0x15F7C7, size: 0x8, addend: 0x0, symName: __ZNKSt3__112regex_traitsIcE9transformINS_11__wrap_iterIPcEEEENS_12basic_stringIcNS_11char_traitsIcEENS_9allocatorIcEEEET_SC_, symObjAddr: 0x125D0, symBinAddr: 0x33950, symSize: 0x120 }
  - { offset: 0x160174, size: 0x8, addend: 0x0, symName: __ZNKSt3__16vectorINS_4pairIccEENS_9allocatorIS2_EEE20__throw_length_errorB8ne190107Ev, symObjAddr: 0x12750, symBinAddr: 0x33AD0, symSize: 0x10 }
  - { offset: 0x16019E, size: 0x8, addend: 0x0, symName: __ZNSt3__128__begin_marked_subexpressionIcED1Ev, symObjAddr: 0x12760, symBinAddr: 0x33AE0, symSize: 0x30 }
  - { offset: 0x1606ED, size: 0x8, addend: 0x0, symName: __ZNKSt3__16vectorINS_12basic_stringIcNS_11char_traitsIcEENS_9allocatorIcEEEENS4_IS6_EEE20__throw_length_errorB8ne190107Ev, symObjAddr: 0x12120, symBinAddr: 0x334A0, symSize: 0x10 }
  - { offset: 0x160717, size: 0x8, addend: 0x0, symName: __ZNSt3__119__throw_regex_errorB8ne190107ILNS_15regex_constants10error_typeE2EEEvv, symObjAddr: 0x12130, symBinAddr: 0x334B0, symSize: 0x50 }
  - { offset: 0x160722, size: 0x8, addend: 0x0, symName: __ZNSt3__114__split_bufferINS_12basic_stringIcNS_11char_traitsIcEENS_9allocatorIcEEEERNS4_IS6_EEED1Ev, symObjAddr: 0x120B0, symBinAddr: 0x33430, symSize: 0x70 }
  - { offset: 0x160D9C, size: 0x8, addend: 0x0, symName: __ZNKSt3__16vectorINS_4pairINS_12basic_stringIcNS_11char_traitsIcEENS_9allocatorIcEEEES7_EENS5_IS8_EEE20__throw_length_errorB8ne190107Ev, symObjAddr: 0x12740, symBinAddr: 0x33AC0, symSize: 0x10 }
  - { offset: 0x160DC6, size: 0x8, addend: 0x0, symName: __ZNKSt3__16vectorINS_4pairIccEENS_9allocatorIS2_EEE20__throw_length_errorB8ne190107Ev, symObjAddr: 0x12750, symBinAddr: 0x33AD0, symSize: 0x10 }
  - { offset: 0x160DEE, size: 0x8, addend: 0x0, symName: __ZNSt3__128__begin_marked_subexpressionIcED1Ev, symObjAddr: 0x12760, symBinAddr: 0x33AE0, symSize: 0x30 }
  - { offset: 0x160E77, size: 0x8, addend: 0x0, symName: __ZNSt3__128__begin_marked_subexpressionIcED0Ev, symObjAddr: 0x12790, symBinAddr: 0x33B10, symSize: 0x40 }
  - { offset: 0x160EA7, size: 0x8, addend: 0x0, symName: __ZNSt3__128__begin_marked_subexpressionIcED0Ev, symObjAddr: 0x12790, symBinAddr: 0x33B10, symSize: 0x40 }
  - { offset: 0x160EC5, size: 0x8, addend: 0x0, symName: __ZNSt3__128__begin_marked_subexpressionIcED0Ev, symObjAddr: 0x12790, symBinAddr: 0x33B10, symSize: 0x40 }
  - { offset: 0x160EE3, size: 0x8, addend: 0x0, symName: __ZNSt3__128__begin_marked_subexpressionIcED0Ev, symObjAddr: 0x12790, symBinAddr: 0x33B10, symSize: 0x40 }
  - { offset: 0x160F0E, size: 0x8, addend: 0x0, symName: __ZNKSt3__128__begin_marked_subexpressionIcE6__execERNS_7__stateIcEE, symObjAddr: 0x127D0, symBinAddr: 0x33B50, symSize: 0x30 }
  - { offset: 0x160FA2, size: 0x8, addend: 0x0, symName: __ZNSt3__126__end_marked_subexpressionIcED1Ev, symObjAddr: 0x12800, symBinAddr: 0x33B80, symSize: 0x30 }
  - { offset: 0x16102B, size: 0x8, addend: 0x0, symName: __ZNSt3__126__end_marked_subexpressionIcED0Ev, symObjAddr: 0x12830, symBinAddr: 0x33BB0, symSize: 0x40 }
  - { offset: 0x16105B, size: 0x8, addend: 0x0, symName: __ZNSt3__126__end_marked_subexpressionIcED0Ev, symObjAddr: 0x12830, symBinAddr: 0x33BB0, symSize: 0x40 }
  - { offset: 0x161079, size: 0x8, addend: 0x0, symName: __ZNSt3__126__end_marked_subexpressionIcED0Ev, symObjAddr: 0x12830, symBinAddr: 0x33BB0, symSize: 0x40 }
  - { offset: 0x161097, size: 0x8, addend: 0x0, symName: __ZNSt3__126__end_marked_subexpressionIcED0Ev, symObjAddr: 0x12830, symBinAddr: 0x33BB0, symSize: 0x40 }
  - { offset: 0x1610C2, size: 0x8, addend: 0x0, symName: __ZNKSt3__126__end_marked_subexpressionIcE6__execERNS_7__stateIcEE, symObjAddr: 0x12870, symBinAddr: 0x33BF0, symSize: 0x30 }
  - { offset: 0x1613CE, size: 0x8, addend: 0x0, symName: __ZNSt3__16__loopIcED0Ev, symObjAddr: 0x12AC0, symBinAddr: 0x33E40, symSize: 0x60 }
  - { offset: 0x1614C5, size: 0x8, addend: 0x0, symName: __ZNSt3__16__loopIcED1Ev, symObjAddr: 0x12A70, symBinAddr: 0x33DF0, symSize: 0x50 }
  - { offset: 0x1615ED, size: 0x8, addend: 0x0, symName: __ZNKSt3__16__loopIcE6__execERNS_7__stateIcEE, symObjAddr: 0x12B20, symBinAddr: 0x33EA0, symSize: 0x260 }
  - { offset: 0x161753, size: 0x8, addend: 0x0, symName: __ZNKSt3__16__loopIcE12__exec_splitEbRNS_7__stateIcEE, symObjAddr: 0x12D80, symBinAddr: 0x34100, symSize: 0xF0 }
  - { offset: 0x16183A, size: 0x8, addend: 0x0, symName: __ZNSt3__117__owns_two_statesIcED1Ev, symObjAddr: 0x12E70, symBinAddr: 0x341F0, symSize: 0x50 }
  - { offset: 0x1618CC, size: 0x8, addend: 0x0, symName: __ZNSt3__117__owns_two_statesIcED0Ev, symObjAddr: 0x12EC0, symBinAddr: 0x34240, symSize: 0x60 }
  - { offset: 0x16196A, size: 0x8, addend: 0x0, symName: __ZNSt3__117__repeat_one_loopIcED1Ev, symObjAddr: 0x12F20, symBinAddr: 0x342A0, symSize: 0x10 }
  - { offset: 0x161996, size: 0x8, addend: 0x0, symName: __ZNSt3__117__repeat_one_loopIcED0Ev, symObjAddr: 0x12F30, symBinAddr: 0x342B0, symSize: 0x10 }
  - { offset: 0x1619C2, size: 0x8, addend: 0x0, symName: __ZNKSt3__117__repeat_one_loopIcE6__execERNS_7__stateIcEE, symObjAddr: 0x12F40, symBinAddr: 0x342C0, symSize: 0x20 }
  - { offset: 0x161A30, size: 0x8, addend: 0x0, symName: __ZNSt3__111__alternateIcED1Ev, symObjAddr: 0x12F60, symBinAddr: 0x342E0, symSize: 0x50 }
  - { offset: 0x161AE4, size: 0x8, addend: 0x0, symName: __ZNSt3__111__alternateIcED0Ev, symObjAddr: 0x12FB0, symBinAddr: 0x34330, symSize: 0x60 }
  - { offset: 0x161BA4, size: 0x8, addend: 0x0, symName: __ZNKSt3__111__alternateIcE6__execERNS_7__stateIcEE, symObjAddr: 0x13010, symBinAddr: 0x34390, symSize: 0x10 }
  - { offset: 0x161BD8, size: 0x8, addend: 0x0, symName: __ZNKSt3__111__alternateIcE12__exec_splitEbRNS_7__stateIcEE, symObjAddr: 0x13020, symBinAddr: 0x343A0, symSize: 0x20 }
  - { offset: 0x161C27, size: 0x8, addend: 0x0, symName: __ZNSt3__121__empty_non_own_stateIcED1Ev, symObjAddr: 0x13040, symBinAddr: 0x343C0, symSize: 0x10 }
  - { offset: 0x161C53, size: 0x8, addend: 0x0, symName: __ZNSt3__121__empty_non_own_stateIcED0Ev, symObjAddr: 0x13050, symBinAddr: 0x343D0, symSize: 0x10 }
  - { offset: 0x161C7F, size: 0x8, addend: 0x0, symName: __ZNKSt3__121__empty_non_own_stateIcE6__execERNS_7__stateIcEE, symObjAddr: 0x13060, symBinAddr: 0x343E0, symSize: 0x20 }
  - { offset: 0x161DCF, size: 0x8, addend: 0x0, symName: __ZNSt3__111basic_regexIcNS_12regex_traitsIcEEE32__parse_one_char_or_coll_elem_REINS_11__wrap_iterIPKcEEEET_S9_S9_, symObjAddr: 0x13510, symBinAddr: 0x34890, symSize: 0xE0 }
  - { offset: 0x1621DC, size: 0x8, addend: 0x0, symName: __ZNSt3__111__match_anyIcED1Ev, symObjAddr: 0x135F0, symBinAddr: 0x34970, symSize: 0x30 }
  - { offset: 0x162265, size: 0x8, addend: 0x0, symName: __ZNSt3__111__match_anyIcED0Ev, symObjAddr: 0x13620, symBinAddr: 0x349A0, symSize: 0x40 }
  - { offset: 0x162295, size: 0x8, addend: 0x0, symName: __ZNSt3__111__match_anyIcED0Ev, symObjAddr: 0x13620, symBinAddr: 0x349A0, symSize: 0x40 }
  - { offset: 0x1622B3, size: 0x8, addend: 0x0, symName: __ZNSt3__111__match_anyIcED0Ev, symObjAddr: 0x13620, symBinAddr: 0x349A0, symSize: 0x40 }
  - { offset: 0x1622D1, size: 0x8, addend: 0x0, symName: __ZNSt3__111__match_anyIcED0Ev, symObjAddr: 0x13620, symBinAddr: 0x349A0, symSize: 0x40 }
  - { offset: 0x1622FC, size: 0x8, addend: 0x0, symName: __ZNKSt3__111__match_anyIcE6__execERNS_7__stateIcEE, symObjAddr: 0x13660, symBinAddr: 0x349E0, symSize: 0x40 }
  - { offset: 0x16234D, size: 0x8, addend: 0x0, symName: __ZNSt3__111basic_regexIcNS_12regex_traitsIcEEE15__test_back_refEc, symObjAddr: 0x136A0, symBinAddr: 0x34A20, symSize: 0x50 }
  - { offset: 0x162477, size: 0x8, addend: 0x0, symName: __ZNSt3__111basic_regexIcNS_12regex_traitsIcEEE20__parse_ORD_CHAR_EREINS_11__wrap_iterIPKcEEEET_S9_S9_, symObjAddr: 0x13950, symBinAddr: 0x34CD0, symSize: 0x1B0 }
  - { offset: 0x162514, size: 0x8, addend: 0x0, symName: __ZNSt3__111basic_regexIcNS_12regex_traitsIcEEE23__parse_QUOTED_CHAR_EREINS_11__wrap_iterIPKcEEEET_S9_S9_, symObjAddr: 0x13B00, symBinAddr: 0x34E80, symSize: 0x200 }
  - { offset: 0x162780, size: 0x8, addend: 0x0, symName: __ZNSt3__128__exception_guard_exceptionsINS_29_AllocatorDestroyRangeReverseINS_9allocatorINS_6vectorI21llama_grammar_elementNS2_IS4_EEEEEEPS6_EEED1B8ne190107Ev, symObjAddr: 0x13E90, symBinAddr: 0x35190, symSize: 0x50 }
  - { offset: 0x1627AD, size: 0x8, addend: 0x0, symName: __ZNSt3__128__exception_guard_exceptionsINS_29_AllocatorDestroyRangeReverseINS_9allocatorINS_6vectorI21llama_grammar_elementNS2_IS4_EEEEEEPS6_EEED1B8ne190107Ev, symObjAddr: 0x13E90, symBinAddr: 0x35190, symSize: 0x50 }
  - { offset: 0x162AD0, size: 0x8, addend: 0x0, symName: __ZNSt3__128__exception_guard_exceptionsINS_29_AllocatorDestroyRangeReverseINS_9allocatorINS_6vectorIPK21llama_grammar_elementNS2_IS6_EEEEEEPS8_EEED1B8ne190107Ev, symObjAddr: 0x14070, symBinAddr: 0x35370, symSize: 0x50 }
  - { offset: 0x162AFD, size: 0x8, addend: 0x0, symName: __ZNSt3__128__exception_guard_exceptionsINS_29_AllocatorDestroyRangeReverseINS_9allocatorINS_6vectorIPK21llama_grammar_elementNS2_IS6_EEEEEEPS8_EEED1B8ne190107Ev, symObjAddr: 0x14070, symBinAddr: 0x35370, symSize: 0x50 }
  - { offset: 0x162E65, size: 0x8, addend: 0x0, symName: __ZNKSt3__111basic_regexIcNS_12regex_traitsIcEEE8__searchINS_9allocatorINS_9sub_matchIPKcEEEEEEbS8_S8_RNS_13match_resultsIS8_T_EENS_15regex_constants15match_flag_typeE, symObjAddr: 0x142F0, symBinAddr: 0x355F0, symSize: 0x340 }
  - { offset: 0x1633F7, size: 0x8, addend: 0x0, symName: __ZNSt3__113match_resultsINS_11__wrap_iterIPKcEENS_9allocatorINS_9sub_matchIS4_EEEEE8__assignB8ne190107IS3_NS5_INS6_IS3_EEEEEEvS4_S4_RKNS0_IT_T0_EEb, symObjAddr: 0x14630, symBinAddr: 0x35930, symSize: 0x1C0 }
  - { offset: 0x163BEE, size: 0x8, addend: 0x0, symName: __ZNKSt3__111basic_regexIcNS_12regex_traitsIcEEE27__match_at_start_posix_subsINS_9allocatorINS_9sub_matchIPKcEEEEEEbS8_S8_RNS_13match_resultsIS8_T_EENS_15regex_constants15match_flag_typeEb, symObjAddr: 0x15280, symBinAddr: 0x36580, symSize: 0x750 }
  - { offset: 0x165D5B, size: 0x8, addend: 0x0, symName: __ZNKSt3__111basic_regexIcNS_12regex_traitsIcEEE29__match_at_start_posix_nosubsINS_9allocatorINS_9sub_matchIPKcEEEEEEbS8_S8_RNS_13match_resultsIS8_T_EENS_15regex_constants15match_flag_typeEb, symObjAddr: 0x147F0, symBinAddr: 0x35AF0, symSize: 0xA90 }
  - { offset: 0x168119, size: 0x8, addend: 0x0, symName: __ZNSt3__16vectorINS_9sub_matchINS_11__wrap_iterIPKcEEEENS_9allocatorIS6_EEE8__appendEm, symObjAddr: 0x17110, symBinAddr: 0x38410, symSize: 0x1A0 }
  - { offset: 0x168ABD, size: 0x8, addend: 0x0, symName: __ZNSt3__15dequeINS_7__stateIcEENS_9allocatorIS2_EEE19__add_back_capacityEv, symObjAddr: 0x15BC0, symBinAddr: 0x36EC0, symSize: 0x780 }
  - { offset: 0x16A2FD, size: 0x8, addend: 0x0, symName: __ZNSt3__15dequeINS_7__stateIcEENS_9allocatorIS2_EEE20__add_front_capacityEv, symObjAddr: 0x16750, symBinAddr: 0x37A50, symSize: 0x410 }
  - { offset: 0x16B2C7, size: 0x8, addend: 0x0, symName: __ZNSt3__15dequeINS_7__stateIcEENS_9allocatorIS2_EEED1B8ne190107Ev, symObjAddr: 0x15B40, symBinAddr: 0x36E40, symSize: 0x80 }
  - { offset: 0x16B6E1, size: 0x8, addend: 0x0, symName: __ZNSt3__16vectorINS_9sub_matchIPKcEENS_9allocatorIS4_EEE18__assign_with_sizeB8ne190107IPS4_S9_EEvT_T0_l, symObjAddr: 0x16D50, symBinAddr: 0x38050, symSize: 0x200 }
  - { offset: 0x16BF97, size: 0x8, addend: 0x0, symName: __ZNSt3__16vectorINS_4pairImPKcEENS_9allocatorIS4_EEE18__assign_with_sizeB8ne190107IPS4_S9_EEvT_T0_l, symObjAddr: 0x16F50, symBinAddr: 0x38250, symSize: 0x1C0 }
  - { offset: 0x16C7D2, size: 0x8, addend: 0x0, symName: __ZNSt3__15dequeINS_7__stateIcEENS_9allocatorIS2_EEE5clearEv, symObjAddr: 0x159D0, symBinAddr: 0x36CD0, symSize: 0x170 }
  - { offset: 0x16D41A, size: 0x8, addend: 0x0, symName: __ZNSt3__114__split_bufferIPNS_7__stateIcEENS_9allocatorIS3_EEE9push_backEOS3_, symObjAddr: 0x16340, symBinAddr: 0x37640, symSize: 0x1E0 }
  - { offset: 0x16D8C6, size: 0x8, addend: 0x0, symName: __ZNSt3__114__split_bufferIPNS_7__stateIcEENS_9allocatorIS3_EEE10push_frontEOS3_, symObjAddr: 0x16520, symBinAddr: 0x37820, symSize: 0x1F0 }
  - { offset: 0x16DD97, size: 0x8, addend: 0x0, symName: __ZNSt3__114__split_bufferIPNS_7__stateIcEERNS_9allocatorIS3_EEED1Ev, symObjAddr: 0x16710, symBinAddr: 0x37A10, symSize: 0x40 }
  - { offset: 0x16DFDD, size: 0x8, addend: 0x0, symName: __ZNSt3__114__split_bufferIPNS_7__stateIcEENS_9allocatorIS3_EEE10push_frontERKS3_, symObjAddr: 0x16B60, symBinAddr: 0x37E60, symSize: 0x1F0 }
  - { offset: 0x16E8C2, size: 0x8, addend: 0x0, symName: __ZNKSt3__16vectorINS_9sub_matchINS_11__wrap_iterIPKcEEEENS_9allocatorIS6_EEE20__throw_length_errorB8ne190107Ev, symObjAddr: 0x172B0, symBinAddr: 0x385B0, symSize: 0x10 }
  - { offset: 0x17078F, size: 0x8, addend: 0x0, symName: __ZN20llm_graph_input_embd9set_inputEPK12llama_ubatch, symObjAddr: 0x0, symBinAddr: 0x385C0, symSize: 0x90 }
  - { offset: 0x185B64, size: 0x8, addend: 0x0, symName: __ZN20llm_graph_input_embd9set_inputEPK12llama_ubatch, symObjAddr: 0x0, symBinAddr: 0x385C0, symSize: 0x90 }
  - { offset: 0x185C75, size: 0x8, addend: 0x0, symName: __ZN19llm_graph_input_pos9set_inputEPK12llama_ubatch, symObjAddr: 0x90, symBinAddr: 0x38650, symSize: 0x60 }
  - { offset: 0x185D69, size: 0x8, addend: 0x0, symName: __ZN26llm_graph_input_pos_bucket9set_inputEPK12llama_ubatch, symObjAddr: 0xF0, symBinAddr: 0x386B0, symSize: 0x5C0 }
  - { offset: 0x185E98, size: 0x8, addend: 0x0, symName: __ZN29llm_graph_input_pos_bucket_kv9set_inputEPK12llama_ubatch, symObjAddr: 0x6B0, symBinAddr: 0x38C70, symSize: 0x700 }
  - { offset: 0x185EE2, size: 0x8, addend: 0x0, symName: __ZN29llm_graph_input_pos_bucket_kv9set_inputEPK12llama_ubatch, symObjAddr: 0x6B0, symBinAddr: 0x38C70, symSize: 0x700 }
  - { offset: 0x186025, size: 0x8, addend: 0x0, symName: __ZN23llm_graph_input_out_ids9set_inputEPK12llama_ubatch, symObjAddr: 0xDB0, symBinAddr: 0x39370, symSize: 0x1F0 }
  - { offset: 0x186631, size: 0x8, addend: 0x0, symName: __ZN20llm_graph_input_mean9set_inputEPK12llama_ubatch, symObjAddr: 0xFA0, symBinAddr: 0x39560, symSize: 0x3F0 }
  - { offset: 0x186FF2, size: 0x8, addend: 0x0, symName: __ZN19llm_graph_input_cls9set_inputEPK12llama_ubatch, symObjAddr: 0x1390, symBinAddr: 0x39950, symSize: 0x940 }
  - { offset: 0x1878A3, size: 0x8, addend: 0x0, symName: __ZN22llm_graph_input_s_copy9set_inputEPK12llama_ubatch, symObjAddr: 0x1CD0, symBinAddr: 0x3A290, symSize: 0xC0 }
  - { offset: 0x187961, size: 0x8, addend: 0x0, symName: __ZN22llm_graph_input_s_mask9set_inputEPK12llama_ubatch, symObjAddr: 0x1D90, symBinAddr: 0x3A350, symSize: 0x2A0 }
  - { offset: 0x187A2A, size: 0x8, addend: 0x0, symName: __ZN26llm_graph_input_cross_embd9set_inputEPK12llama_ubatch, symObjAddr: 0x2030, symBinAddr: 0x3A5F0, symSize: 0x40 }
  - { offset: 0x187ABA, size: 0x8, addend: 0x0, symName: __ZN29llm_graph_input_attn_no_cache9set_inputEPK12llama_ubatch, symObjAddr: 0x2070, symBinAddr: 0x3A630, symSize: 0x720 }
  - { offset: 0x187F38, size: 0x8, addend: 0x0, symName: __ZN31llm_graph_input_attn_kv_unified9set_inputEPK12llama_ubatch, symObjAddr: 0x2790, symBinAddr: 0x3AD50, symSize: 0x5F0 }
  - { offset: 0x18822C, size: 0x8, addend: 0x0, symName: __ZN26llm_graph_input_attn_cross9set_inputEPK12llama_ubatch, symObjAddr: 0x2D80, symBinAddr: 0x3B340, symSize: 0x260 }
  - { offset: 0x188F9F, size: 0x8, addend: 0x0, symName: __ZN17llm_graph_contextC2ERK16llm_graph_params, symObjAddr: 0x2FE0, symBinAddr: 0x3B5A0, symSize: 0x190 }
  - { offset: 0x1890BF, size: 0x8, addend: 0x0, symName: __ZN17llm_graph_contextC1ERK16llm_graph_params, symObjAddr: 0x3170, symBinAddr: 0x3B730, symSize: 0x10 }
  - { offset: 0x189117, size: 0x8, addend: 0x0, symName: __ZNK17llm_graph_context15n_pos_per_tokenEv, symObjAddr: 0x3180, symBinAddr: 0x3B740, symSize: 0x20 }
  - { offset: 0x1891FB, size: 0x8, addend: 0x0, symName: __ZNK17llm_graph_context2cbEP11ggml_tensorPKci, symObjAddr: 0x31A0, symBinAddr: 0x3B760, symSize: 0x50 }
  - { offset: 0x189306, size: 0x8, addend: 0x0, symName: __ZNK17llm_graph_context10build_cvecEP11ggml_tensori, symObjAddr: 0x31F0, symBinAddr: 0x3B7B0, symSize: 0x20 }
  - { offset: 0x1893A1, size: 0x8, addend: 0x0, symName: __ZNK17llm_graph_context13build_lora_mmEP11ggml_tensorS1_, symObjAddr: 0x3210, symBinAddr: 0x3B7D0, symSize: 0x100 }
  - { offset: 0x1895CE, size: 0x8, addend: 0x0, symName: __ZNK17llm_graph_context16build_lora_mm_idEP11ggml_tensorS1_S1_, symObjAddr: 0x3310, symBinAddr: 0x3B8D0, symSize: 0x140 }
  - { offset: 0x1897FD, size: 0x8, addend: 0x0, symName: __ZNK17llm_graph_context10build_normEP11ggml_tensorS1_S1_13llm_norm_typei, symObjAddr: 0x3450, symBinAddr: 0x3BA10, symSize: 0x1C0 }
  - { offset: 0x189B9C, size: 0x8, addend: 0x0, symName: __ZNK17llm_graph_context9build_ffnEP11ggml_tensorS1_S1_S1_S1_S1_S1_S1_S1_S1_S1_15llm_ffn_op_type17llm_ffn_gate_typei, symObjAddr: 0x3610, symBinAddr: 0x3BBD0, symSize: 0x6D0 }
  - { offset: 0x18ACD2, size: 0x8, addend: 0x0, symName: __ZNK17llm_graph_context13build_moe_ffnEP11ggml_tensorS1_S1_S1_S1_S1_xx15llm_ffn_op_typebbf29llama_expert_gating_func_typei, symObjAddr: 0x3CE0, symBinAddr: 0x3C2A0, symSize: 0x690 }
  - { offset: 0x18C1A7, size: 0x8, addend: 0x0, symName: __ZNK17llm_graph_context14build_inp_embdEP11ggml_tensor, symObjAddr: 0x4370, symBinAddr: 0x3C930, symSize: 0x270 }
  - { offset: 0x18D208, size: 0x8, addend: 0x0, symName: __ZNK17llm_graph_context13build_inp_posEv, symObjAddr: 0x4700, symBinAddr: 0x3CBA0, symSize: 0xE0 }
  - { offset: 0x18D79A, size: 0x8, addend: 0x0, symName: __ZNK17llm_graph_context17build_inp_out_idsEv, symObjAddr: 0x47E0, symBinAddr: 0x3CC80, symSize: 0xC0 }
  - { offset: 0x18DCD5, size: 0x8, addend: 0x0, symName: __ZNK17llm_graph_context14build_inp_meanEv, symObjAddr: 0x48A0, symBinAddr: 0x3CD40, symSize: 0xC0 }
  - { offset: 0x18E225, size: 0x8, addend: 0x0, symName: __ZNK17llm_graph_context13build_inp_clsEv, symObjAddr: 0x4960, symBinAddr: 0x3CE00, symSize: 0xC0 }
  - { offset: 0x18E77A, size: 0x8, addend: 0x0, symName: __ZNK17llm_graph_context16build_inp_s_copyEv, symObjAddr: 0x4A20, symBinAddr: 0x3CEC0, symSize: 0xC0 }
  - { offset: 0x18ECDF, size: 0x8, addend: 0x0, symName: __ZNK17llm_graph_context16build_inp_s_maskEv, symObjAddr: 0x4AE0, symBinAddr: 0x3CF80, symSize: 0xC0 }
  - { offset: 0x18F253, size: 0x8, addend: 0x0, symName: __ZNK17llm_graph_context20build_inp_cross_embdEv, symObjAddr: 0x4BA0, symBinAddr: 0x3D040, symSize: 0xD0 }
  - { offset: 0x18F7E5, size: 0x8, addend: 0x0, symName: __ZNK17llm_graph_context24build_inp_pos_bucket_encEv, symObjAddr: 0x4C70, symBinAddr: 0x3D110, symSize: 0xD0 }
  - { offset: 0x18FD4B, size: 0x8, addend: 0x0, symName: __ZNK17llm_graph_context24build_inp_pos_bucket_decEv, symObjAddr: 0x4D40, symBinAddr: 0x3D1E0, symSize: 0xE0 }
  - { offset: 0x1900BA, size: 0x8, addend: 0x0, symName: __ZNK17llm_graph_context14build_pos_biasEP11ggml_tensorS1_, symObjAddr: 0x4E20, symBinAddr: 0x3D2C0, symSize: 0x120 }
  - { offset: 0x1903C4, size: 0x8, addend: 0x0, symName: __ZNK17llm_graph_context14build_attn_mhaEP11ggml_cgraphP11ggml_tensorS3_S3_S3_S3_bf, symObjAddr: 0x4F40, symBinAddr: 0x3D3E0, symSize: 0x2E0 }
  - { offset: 0x190A21, size: 0x8, addend: 0x0, symName: __ZNK17llm_graph_context23build_attn_inp_no_cacheEv, symObjAddr: 0x5220, symBinAddr: 0x3D6C0, symSize: 0x100 }
  - { offset: 0x190D76, size: 0x8, addend: 0x0, symName: __ZNK17llm_graph_context10build_attnEP29llm_graph_input_attn_no_cacheP11ggml_cgraphP11ggml_tensorS5_S5_S5_S5_S5_fi, symObjAddr: 0x5320, symBinAddr: 0x3D7C0, symSize: 0x170 }
  - { offset: 0x1912EB, size: 0x8, addend: 0x0, symName: __ZNK17llm_graph_context25build_attn_inp_kv_unifiedEv, symObjAddr: 0x5490, symBinAddr: 0x3D930, symSize: 0x1C0 }
  - { offset: 0x1916B0, size: 0x8, addend: 0x0, symName: __ZNK17llm_graph_context10build_attnEP31llm_graph_input_attn_kv_unifiedP11ggml_cgraphP11ggml_tensorS5_S5_S5_S5_S5_fi, symObjAddr: 0x5650, symBinAddr: 0x3DAF0, symSize: 0x510 }
  - { offset: 0x192040, size: 0x8, addend: 0x0, symName: __ZNK17llm_graph_context20build_attn_inp_crossEv, symObjAddr: 0x5B60, symBinAddr: 0x3E000, symSize: 0x110 }
  - { offset: 0x1923D8, size: 0x8, addend: 0x0, symName: __ZNK17llm_graph_context10build_attnEP26llm_graph_input_attn_crossP11ggml_cgraphP11ggml_tensorS5_S5_S5_S5_S5_fi, symObjAddr: 0x5C70, symBinAddr: 0x3E110, symSize: 0x170 }
  - { offset: 0x192716, size: 0x8, addend: 0x0, symName: __ZNK17llm_graph_context21build_copy_mask_stateEP11ggml_cgraphP11ggml_tensorS3_S3_ii, symObjAddr: 0x5DE0, symBinAddr: 0x3E280, symSize: 0x140 }
  - { offset: 0x1928DF, size: 0x8, addend: 0x0, symName: __ZNK17llm_graph_context27build_rwkv_token_shift_loadEP11ggml_cgraphP11ggml_tensorS3_RK12llama_ubatchi, symObjAddr: 0x5F20, symBinAddr: 0x3E3C0, symSize: 0xA0 }
  - { offset: 0x192A08, size: 0x8, addend: 0x0, symName: __ZNK17llm_graph_context28build_rwkv_token_shift_storeEP11ggml_tensorRK12llama_ubatchi, symObjAddr: 0x5FC0, symBinAddr: 0x3E460, symSize: 0xE0 }
  - { offset: 0x192B5E, size: 0x8, addend: 0x0, symName: __ZNK17llm_graph_context13build_poolingEP11ggml_cgraphP11ggml_tensorS3_S3_S3_, symObjAddr: 0x60A0, symBinAddr: 0x3E540, symSize: 0x270 }
  - { offset: 0x192F2A, size: 0x8, addend: 0x0, symName: __ZN19llm_graph_input_posD1Ev, symObjAddr: 0x6310, symBinAddr: 0x3E7B0, symSize: 0x10 }
  - { offset: 0x192F53, size: 0x8, addend: 0x0, symName: __ZN19llm_graph_input_posD0Ev, symObjAddr: 0x6320, symBinAddr: 0x3E7C0, symSize: 0x10 }
  - { offset: 0x192F7C, size: 0x8, addend: 0x0, symName: __ZN26llm_graph_input_pos_bucketD1Ev, symObjAddr: 0x6330, symBinAddr: 0x3E7D0, symSize: 0x10 }
  - { offset: 0x192FA5, size: 0x8, addend: 0x0, symName: __ZN26llm_graph_input_pos_bucketD0Ev, symObjAddr: 0x6340, symBinAddr: 0x3E7E0, symSize: 0x10 }
  - { offset: 0x192FCE, size: 0x8, addend: 0x0, symName: __ZN29llm_graph_input_pos_bucket_kvD1Ev, symObjAddr: 0x6350, symBinAddr: 0x3E7F0, symSize: 0x10 }
  - { offset: 0x192FF7, size: 0x8, addend: 0x0, symName: __ZN29llm_graph_input_pos_bucket_kvD0Ev, symObjAddr: 0x6360, symBinAddr: 0x3E800, symSize: 0x10 }
  - { offset: 0x193020, size: 0x8, addend: 0x0, symName: __ZN23llm_graph_input_out_idsD1Ev, symObjAddr: 0x6370, symBinAddr: 0x3E810, symSize: 0x10 }
  - { offset: 0x193049, size: 0x8, addend: 0x0, symName: __ZN23llm_graph_input_out_idsD0Ev, symObjAddr: 0x6380, symBinAddr: 0x3E820, symSize: 0x10 }
  - { offset: 0x193072, size: 0x8, addend: 0x0, symName: __ZN20llm_graph_input_meanD1Ev, symObjAddr: 0x6390, symBinAddr: 0x3E830, symSize: 0x10 }
  - { offset: 0x19309B, size: 0x8, addend: 0x0, symName: __ZN20llm_graph_input_meanD0Ev, symObjAddr: 0x63A0, symBinAddr: 0x3E840, symSize: 0x10 }
  - { offset: 0x1930C4, size: 0x8, addend: 0x0, symName: __ZN19llm_graph_input_clsD1Ev, symObjAddr: 0x63B0, symBinAddr: 0x3E850, symSize: 0x10 }
  - { offset: 0x1930ED, size: 0x8, addend: 0x0, symName: __ZN19llm_graph_input_clsD0Ev, symObjAddr: 0x63C0, symBinAddr: 0x3E860, symSize: 0x10 }
  - { offset: 0x193116, size: 0x8, addend: 0x0, symName: __ZN22llm_graph_input_s_copyD1Ev, symObjAddr: 0x63D0, symBinAddr: 0x3E870, symSize: 0x10 }
  - { offset: 0x19313F, size: 0x8, addend: 0x0, symName: __ZN22llm_graph_input_s_copyD0Ev, symObjAddr: 0x63E0, symBinAddr: 0x3E880, symSize: 0x10 }
  - { offset: 0x193168, size: 0x8, addend: 0x0, symName: __ZN22llm_graph_input_s_maskD1Ev, symObjAddr: 0x63F0, symBinAddr: 0x3E890, symSize: 0x10 }
  - { offset: 0x193191, size: 0x8, addend: 0x0, symName: __ZN22llm_graph_input_s_maskD0Ev, symObjAddr: 0x6400, symBinAddr: 0x3E8A0, symSize: 0x10 }
  - { offset: 0x1931BA, size: 0x8, addend: 0x0, symName: __ZN26llm_graph_input_cross_embdD1Ev, symObjAddr: 0x6410, symBinAddr: 0x3E8B0, symSize: 0x10 }
  - { offset: 0x1931E3, size: 0x8, addend: 0x0, symName: __ZN26llm_graph_input_cross_embdD0Ev, symObjAddr: 0x6420, symBinAddr: 0x3E8C0, symSize: 0x10 }
  - { offset: 0x19320C, size: 0x8, addend: 0x0, symName: __ZN29llm_graph_input_attn_no_cacheD1Ev, symObjAddr: 0x6430, symBinAddr: 0x3E8D0, symSize: 0x10 }
  - { offset: 0x193235, size: 0x8, addend: 0x0, symName: __ZN29llm_graph_input_attn_no_cacheD0Ev, symObjAddr: 0x6440, symBinAddr: 0x3E8E0, symSize: 0x10 }
  - { offset: 0x19325E, size: 0x8, addend: 0x0, symName: __ZN31llm_graph_input_attn_kv_unifiedD1Ev, symObjAddr: 0x6450, symBinAddr: 0x3E8F0, symSize: 0x10 }
  - { offset: 0x193287, size: 0x8, addend: 0x0, symName: __ZN31llm_graph_input_attn_kv_unifiedD0Ev, symObjAddr: 0x6460, symBinAddr: 0x3E900, symSize: 0x10 }
  - { offset: 0x1932B0, size: 0x8, addend: 0x0, symName: __ZN26llm_graph_input_attn_crossD1Ev, symObjAddr: 0x6470, symBinAddr: 0x3E910, symSize: 0x10 }
  - { offset: 0x1932D9, size: 0x8, addend: 0x0, symName: __ZN26llm_graph_input_attn_crossD0Ev, symObjAddr: 0x6480, symBinAddr: 0x3E920, symSize: 0x10 }
  - { offset: 0x193302, size: 0x8, addend: 0x0, symName: __ZN20llm_graph_input_embdD1Ev, symObjAddr: 0x6490, symBinAddr: 0x3E930, symSize: 0x10 }
  - { offset: 0x19332B, size: 0x8, addend: 0x0, symName: __ZN20llm_graph_input_embdD0Ev, symObjAddr: 0x64A0, symBinAddr: 0x3E940, symSize: 0x10 }
  - { offset: 0x19529F, size: 0x8, addend: 0x0, symName: __ZNK13llama_hparams6n_headEj, symObjAddr: 0x0, symBinAddr: 0x3E950, symSize: 0x30 }
  - { offset: 0x196803, size: 0x8, addend: 0x0, symName: __ZNK13llama_hparams6n_headEj, symObjAddr: 0x0, symBinAddr: 0x3E950, symSize: 0x30 }
  - { offset: 0x196861, size: 0x8, addend: 0x0, symName: __ZNK13llama_hparams9n_head_kvEj, symObjAddr: 0x30, symBinAddr: 0x3E980, symSize: 0x30 }
  - { offset: 0x19689F, size: 0x8, addend: 0x0, symName: __ZNK13llama_hparams4n_ffEj, symObjAddr: 0x60, symBinAddr: 0x3E9B0, symSize: 0x30 }
  - { offset: 0x196935, size: 0x8, addend: 0x0, symName: __ZNK13llama_hparams5n_gqaEj, symObjAddr: 0x90, symBinAddr: 0x3E9E0, symSize: 0x40 }
  - { offset: 0x1969E2, size: 0x8, addend: 0x0, symName: __ZNK13llama_hparams12n_embd_k_gqaEj, symObjAddr: 0xD0, symBinAddr: 0x3EA20, symSize: 0x40 }
  - { offset: 0x196A57, size: 0x8, addend: 0x0, symName: __ZNK13llama_hparams12n_embd_v_gqaEj, symObjAddr: 0x110, symBinAddr: 0x3EA60, symSize: 0x40 }
  - { offset: 0x196ACC, size: 0x8, addend: 0x0, symName: __ZNK13llama_hparams10n_embd_k_sEv, symObjAddr: 0x150, symBinAddr: 0x3EAA0, symSize: 0x30 }
  - { offset: 0x196AF3, size: 0x8, addend: 0x0, symName: __ZNK13llama_hparams10n_embd_v_sEv, symObjAddr: 0x180, symBinAddr: 0x3EAD0, symSize: 0x30 }
  - { offset: 0x196B1C, size: 0x8, addend: 0x0, symName: __ZNK13llama_hparams6is_swaEj, symObjAddr: 0x1B0, symBinAddr: 0x3EB00, symSize: 0x41 }
  - { offset: 0x198652, size: 0x8, addend: 0x0, symName: __ZL14g_logger_state.0, symObjAddr: 0x17C8, symBinAddr: 0x22F200, symSize: 0x0 }
  - { offset: 0x19865D, size: 0x8, addend: 0x0, symName: __ZL14g_logger_state.1, symObjAddr: 0x2F610, symBinAddr: 0x2963E8, symSize: 0x0 }
  - { offset: 0x19F72D, size: 0x8, addend: 0x0, symName: __ZN9time_measC2ERxb, symObjAddr: 0x0, symBinAddr: 0x3EB50, symSize: 0x30 }
  - { offset: 0x19F7B3, size: 0x8, addend: 0x0, symName: __ZN9time_measC1ERxb, symObjAddr: 0x30, symBinAddr: 0x3EB80, symSize: 0x30 }
  - { offset: 0x19F83C, size: 0x8, addend: 0x0, symName: __ZN9time_measD2Ev, symObjAddr: 0x60, symBinAddr: 0x3EBB0, symSize: 0x30 }
  - { offset: 0x19F888, size: 0x8, addend: 0x0, symName: __ZN9time_measD1Ev, symObjAddr: 0xA0, symBinAddr: 0x3EBE0, symSize: 0x30 }
  - { offset: 0x19F8D9, size: 0x8, addend: 0x0, symName: _llama_log_set, symObjAddr: 0xD0, symBinAddr: 0x3EC10, symSize: 0x40 }
  - { offset: 0x19F93D, size: 0x8, addend: 0x0, symName: __Z26llama_log_callback_default14ggml_log_levelPKcPv, symObjAddr: 0x110, symBinAddr: 0x3EC50, symSize: 0x30 }
  - { offset: 0x19FBCD, size: 0x8, addend: 0x0, symName: __Z18llama_log_internal14ggml_log_levelPKcz, symObjAddr: 0x140, symBinAddr: 0x3EC80, symSize: 0x170 }
  - { offset: 0x1A0054, size: 0x8, addend: 0x0, symName: __Z11replace_allRNSt3__112basic_stringIcNS_11char_traitsIcEENS_9allocatorIcEEEERKS5_S8_, symObjAddr: 0x2B0, symBinAddr: 0x3EDF0, symSize: 0x230 }
  - { offset: 0x1A0B75, size: 0x8, addend: 0x0, symName: __Z6formatPKcz, symObjAddr: 0x4E0, symBinAddr: 0x3F020, symSize: 0x210 }
  - { offset: 0x1A132C, size: 0x8, addend: 0x0, symName: __Z25llama_format_tensor_shapeRKNSt3__16vectorIxNS_9allocatorIxEEEE, symObjAddr: 0x6F0, symBinAddr: 0x3F230, symSize: 0x180 }
  - { offset: 0x1A174A, size: 0x8, addend: 0x0, symName: __ZNKSt3__16vectorIxNS_9allocatorIxEEE20__throw_out_of_rangeB8ne190107Ev, symObjAddr: 0x1330, symBinAddr: 0x3FC10, symSize: 0x10 }
  - { offset: 0x1A17A2, size: 0x8, addend: 0x0, symName: __Z25llama_format_tensor_shapePK11ggml_tensor, symObjAddr: 0x870, symBinAddr: 0x3F3B0, symSize: 0x180 }
  - { offset: 0x1A1CF9, size: 0x8, addend: 0x0, symName: __Z14gguf_kv_to_strPK12gguf_contexti, symObjAddr: 0x9F0, symBinAddr: 0x3F530, symSize: 0x5B0 }
  - { offset: 0x1A3449, size: 0x8, addend: 0x0, symName: __ZL16gguf_data_to_str9gguf_typePKvi, symObjAddr: 0x10E0, symBinAddr: 0x3FAE0, symSize: 0x130 }
  - { offset: 0x1A5C8A, size: 0x8, addend: 0x0, symName: __ZN16llama_io_write_i12write_stringERKNSt3__112basic_stringIcNS0_11char_traitsIcEENS0_9allocatorIcEEEE, symObjAddr: 0x0, symBinAddr: 0x3FC20, symSize: 0x60 }
  - { offset: 0x1A86FB, size: 0x8, addend: 0x0, symName: __ZN16llama_io_write_i12write_stringERKNSt3__112basic_stringIcNS0_11char_traitsIcEENS0_9allocatorIcEEEE, symObjAddr: 0x0, symBinAddr: 0x3FC20, symSize: 0x60 }
  - { offset: 0x1A8813, size: 0x8, addend: 0x0, symName: __ZN15llama_io_read_i11read_stringERNSt3__112basic_stringIcNS0_11char_traitsIcEENS0_9allocatorIcEEEE, symObjAddr: 0x60, symBinAddr: 0x3FC80, symSize: 0x43 }
  - { offset: 0x1BF936, size: 0x8, addend: 0x0, symName: __ZNSt3__113__tree_removeB8ne190107IPNS_16__tree_node_baseIPvEEEEvT_S5_, symObjAddr: 0x5670, symBinAddr: 0x44F10, symSize: 0x380 }
  - { offset: 0x1C46DF, size: 0x8, addend: 0x0, symName: __ZN22llama_kv_cache_unifiedC2ERK13llama_hparamsNS_9callbacksE, symObjAddr: 0x0, symBinAddr: 0x3FCD0, symSize: 0xE0 }
  - { offset: 0x1C48B6, size: 0x8, addend: 0x0, symName: __ZN22llama_kv_cache_unifiedC1ERK13llama_hparamsNS_9callbacksE, symObjAddr: 0xE0, symBinAddr: 0x3FDB0, symSize: 0xE0 }
  - { offset: 0x1C5145, size: 0x8, addend: 0x0, symName: __ZN22llama_kv_cache_unified4initERK11llama_modelRK13llama_cparams9ggml_typeS6_jb, symObjAddr: 0x1C0, symBinAddr: 0x3FE90, symSize: 0xC00 }
  - { offset: 0x1C89FC, size: 0x8, addend: 0x0, symName: __ZNSt3__16vectorI13llama_kv_cellNS_9allocatorIS1_EEE8__appendEm, symObjAddr: 0x53C0, symBinAddr: 0x44CC0, symSize: 0x240 }
  - { offset: 0x1C9525, size: 0x8, addend: 0x0, symName: __ZNSt3__113__tree_removeB8ne190107IPNS_16__tree_node_baseIPvEEEEvT_S5_, symObjAddr: 0x5670, symBinAddr: 0x44F10, symSize: 0x380 }
  - { offset: 0x1C9553, size: 0x8, addend: 0x0, symName: __ZNK22llama_kv_cache_unified12get_n_tokensEv, symObjAddr: 0xDC0, symBinAddr: 0x40A90, symSize: 0x80 }
  - { offset: 0x1C95A2, size: 0x8, addend: 0x0, symName: __ZNK22llama_kv_cache_unified14get_used_cellsEv, symObjAddr: 0xE40, symBinAddr: 0x40B10, symSize: 0x10 }
  - { offset: 0x1C962F, size: 0x8, addend: 0x0, symName: __ZNK22llama_kv_cache_unified10total_sizeEv, symObjAddr: 0xE50, symBinAddr: 0x40B20, symSize: 0x50 }
  - { offset: 0x1C97ED, size: 0x8, addend: 0x0, symName: __ZNK22llama_kv_cache_unified7pos_maxEv, symObjAddr: 0xEA0, symBinAddr: 0x40B70, symSize: 0x40 }
  - { offset: 0x1C9823, size: 0x8, addend: 0x0, symName: __ZNK22llama_kv_cache_unified7pos_maxEv, symObjAddr: 0xEA0, symBinAddr: 0x40B70, symSize: 0x40 }
  - { offset: 0x1C985F, size: 0x8, addend: 0x0, symName: __ZNK22llama_kv_cache_unified7pos_maxEv, symObjAddr: 0xEA0, symBinAddr: 0x40B70, symSize: 0x40 }
  - { offset: 0x1C99DE, size: 0x8, addend: 0x0, symName: __ZN22llama_kv_cache_unified5clearEv, symObjAddr: 0xEE0, symBinAddr: 0x40BB0, symSize: 0xD0 }
  - { offset: 0x1C9EDD, size: 0x8, addend: 0x0, symName: __ZN22llama_kv_cache_unified6seq_rmEiii, symObjAddr: 0xFB0, symBinAddr: 0x40C80, symSize: 0x320 }
  - { offset: 0x1CA747, size: 0x8, addend: 0x0, symName: __ZN22llama_kv_cache_unified6seq_cpEiiii, symObjAddr: 0x12D0, symBinAddr: 0x40FA0, symSize: 0x350 }
  - { offset: 0x1CB096, size: 0x8, addend: 0x0, symName: __ZN22llama_kv_cache_unified8seq_keepEi, symObjAddr: 0x1620, symBinAddr: 0x412F0, symSize: 0x1E0 }
  - { offset: 0x1CB548, size: 0x8, addend: 0x0, symName: __ZN22llama_kv_cache_unified7seq_addEiiii, symObjAddr: 0x1800, symBinAddr: 0x414D0, symSize: 0x220 }
  - { offset: 0x1CB969, size: 0x8, addend: 0x0, symName: __ZN22llama_kv_cache_unified7seq_divEiiii, symObjAddr: 0x1A20, symBinAddr: 0x416F0, symSize: 0x160 }
  - { offset: 0x1CBD06, size: 0x8, addend: 0x0, symName: __ZN22llama_kv_cache_unified11seq_pos_maxEi, symObjAddr: 0x1B80, symBinAddr: 0x41850, symSize: 0x90 }
  - { offset: 0x1CBF04, size: 0x8, addend: 0x0, symName: __ZN22llama_kv_cache_unified6defragEv, symObjAddr: 0x1C10, symBinAddr: 0x418E0, symSize: 0x10 }
  - { offset: 0x1CBF2C, size: 0x8, addend: 0x0, symName: __ZNK22llama_kv_cache_unified13get_can_shiftEv, symObjAddr: 0x1C20, symBinAddr: 0x418F0, symSize: 0x10 }
  - { offset: 0x1CC0A5, size: 0x8, addend: 0x0, symName: __ZN22llama_kv_cache_unified9find_slotERK12llama_ubatch, symObjAddr: 0x1C30, symBinAddr: 0x41900, symSize: 0xE30 }
  - { offset: 0x1CDFF1, size: 0x8, addend: 0x0, symName: __ZNK22llama_kv_cache_unified11get_paddingERK13llama_cparams, symObjAddr: 0x2A60, symBinAddr: 0x42730, symSize: 0x20 }
  - { offset: 0x1CE04C, size: 0x8, addend: 0x0, symName: __ZNK22llama_kv_cache_unified8cell_maxEv, symObjAddr: 0x2A80, symBinAddr: 0x42750, symSize: 0x50 }
  - { offset: 0x1CE06D, size: 0x8, addend: 0x0, symName: __ZNK22llama_kv_cache_unified8cell_maxEv, symObjAddr: 0x2A80, symBinAddr: 0x42750, symSize: 0x50 }
  - { offset: 0x1CE146, size: 0x8, addend: 0x0, symName: __ZNK22llama_kv_cache_unified12size_k_bytesEv, symObjAddr: 0x2AD0, symBinAddr: 0x427A0, symSize: 0x50 }
  - { offset: 0x1CE268, size: 0x8, addend: 0x0, symName: __ZNK22llama_kv_cache_unified12size_v_bytesEv, symObjAddr: 0x2B20, symBinAddr: 0x427F0, symSize: 0x50 }
  - { offset: 0x1CE6F1, size: 0x8, addend: 0x0, symName: __ZN22llama_kv_cache_unified14defrag_prepareEi, symObjAddr: 0x2B70, symBinAddr: 0x42840, symSize: 0x420 }
  - { offset: 0x1CEF07, size: 0x8, addend: 0x0, symName: __ZNSt3__16vectorIjNS_9allocatorIjEEE8__appendEmRKj, symObjAddr: 0x59F0, symBinAddr: 0x45290, symSize: 0x210 }
  - { offset: 0x1CF3C4, size: 0x8, addend: 0x0, symName: __ZNSt3__16__treeIiNS_4lessIiEENS_9allocatorIiEEE14__assign_multiINS_21__tree_const_iteratorIiPNS_11__tree_nodeIiPvEElEEEEvT_SD_, symObjAddr: 0x4D30, symBinAddr: 0x447A0, symSize: 0x340 }
  - { offset: 0x1D015B, size: 0x8, addend: 0x0, symName: __ZNK22llama_kv_cache_unified11state_writeER16llama_io_write_ii, symObjAddr: 0x2F90, symBinAddr: 0x42C60, symSize: 0x4D0 }
  - { offset: 0x1D113C, size: 0x8, addend: 0x0, symName: __ZNK22llama_kv_cache_unified16state_write_metaER16llama_io_write_iRKNSt3__16vectorINS2_4pairIjjEENS2_9allocatorIS5_EEEEi, symObjAddr: 0x3460, symBinAddr: 0x43130, symSize: 0x130 }
  - { offset: 0x1D14D7, size: 0x8, addend: 0x0, symName: __ZNK22llama_kv_cache_unified16state_write_dataER16llama_io_write_iRKNSt3__16vectorINS2_4pairIjjEENS2_9allocatorIS5_EEEE, symObjAddr: 0x3590, symBinAddr: 0x43260, symSize: 0x3E0 }
  - { offset: 0x1D1D88, size: 0x8, addend: 0x0, symName: __ZN22llama_kv_cache_unified10state_readER15llama_io_read_ii, symObjAddr: 0x3970, symBinAddr: 0x43640, symSize: 0xC0 }
  - { offset: 0x1D1E75, size: 0x8, addend: 0x0, symName: __ZN22llama_kv_cache_unified15state_read_metaER15llama_io_read_iji, symObjAddr: 0x3A30, symBinAddr: 0x43700, symSize: 0x5D0 }
  - { offset: 0x1D2813, size: 0x8, addend: 0x0, symName: __ZN22llama_kv_cache_unified15state_read_dataER15llama_io_read_ij, symObjAddr: 0x4000, symBinAddr: 0x43CD0, symSize: 0x5A0 }
  - { offset: 0x1D387E, size: 0x8, addend: 0x0, symName: __Z23llama_kv_cache_n_tokensPK14llama_kv_cache, symObjAddr: 0x45A0, symBinAddr: 0x44270, symSize: 0x20 }
  - { offset: 0x1D38B9, size: 0x8, addend: 0x0, symName: __Z25llama_kv_cache_used_cellsPK14llama_kv_cache, symObjAddr: 0x45C0, symBinAddr: 0x44290, symSize: 0x20 }
  - { offset: 0x1D38E0, size: 0x8, addend: 0x0, symName: __Z20llama_kv_cache_clearP14llama_kv_cache, symObjAddr: 0x45E0, symBinAddr: 0x442B0, symSize: 0x20 }
  - { offset: 0x1D3917, size: 0x8, addend: 0x0, symName: __Z21llama_kv_cache_seq_rmP14llama_kv_cacheiii, symObjAddr: 0x4600, symBinAddr: 0x442D0, symSize: 0x20 }
  - { offset: 0x1D397E, size: 0x8, addend: 0x0, symName: __Z21llama_kv_cache_seq_cpP14llama_kv_cacheiiii, symObjAddr: 0x4620, symBinAddr: 0x442F0, symSize: 0x20 }
  - { offset: 0x1D39F0, size: 0x8, addend: 0x0, symName: __Z23llama_kv_cache_seq_keepP14llama_kv_cachei, symObjAddr: 0x4640, symBinAddr: 0x44310, symSize: 0x20 }
  - { offset: 0x1D3A35, size: 0x8, addend: 0x0, symName: __Z22llama_kv_cache_seq_addP14llama_kv_cacheiiii, symObjAddr: 0x4660, symBinAddr: 0x44330, symSize: 0x20 }
  - { offset: 0x1D3AA7, size: 0x8, addend: 0x0, symName: __Z22llama_kv_cache_seq_divP14llama_kv_cacheiiii, symObjAddr: 0x4680, symBinAddr: 0x44350, symSize: 0x20 }
  - { offset: 0x1D3B1A, size: 0x8, addend: 0x0, symName: __Z26llama_kv_cache_seq_pos_maxP14llama_kv_cachei, symObjAddr: 0x46A0, symBinAddr: 0x44370, symSize: 0x20 }
  - { offset: 0x1D3B63, size: 0x8, addend: 0x0, symName: __Z21llama_kv_cache_defragP14llama_kv_cache, symObjAddr: 0x46C0, symBinAddr: 0x44390, symSize: 0x20 }
  - { offset: 0x1D3B9A, size: 0x8, addend: 0x0, symName: __Z24llama_kv_cache_can_shiftPK14llama_kv_cache, symObjAddr: 0x46E0, symBinAddr: 0x443B0, symSize: 0x20 }
  - { offset: 0x1D3BF8, size: 0x8, addend: 0x0, symName: __Z24llama_kv_cache_view_initRK14llama_kv_cachei, symObjAddr: 0x4700, symBinAddr: 0x443D0, symSize: 0x50 }
  - { offset: 0x1D3C79, size: 0x8, addend: 0x0, symName: _llama_kv_cache_view_free, symObjAddr: 0x4750, symBinAddr: 0x44420, symSize: 0x40 }
  - { offset: 0x1D3CC9, size: 0x8, addend: 0x0, symName: __Z26llama_kv_cache_view_updateP19llama_kv_cache_viewPK14llama_kv_cache, symObjAddr: 0x4790, symBinAddr: 0x44460, symSize: 0x2F0 }
  - { offset: 0x1D4041, size: 0x8, addend: 0x0, symName: __ZNK14llama_kv_cache12get_can_editEv, symObjAddr: 0x4A80, symBinAddr: 0x44750, symSize: 0x10 }
  - { offset: 0x1D407A, size: 0x8, addend: 0x0, symName: __ZN22llama_kv_cache_unifiedD1Ev, symObjAddr: 0x4A90, symBinAddr: 0x44760, symSize: 0x10 }
  - { offset: 0x1D40B0, size: 0x8, addend: 0x0, symName: __ZN22llama_kv_cache_unifiedD2Ev, symObjAddr: 0x51E0, symBinAddr: 0x44AE0, symSize: 0x1E0 }
  - { offset: 0x1D4CDA, size: 0x8, addend: 0x0, symName: __ZN22llama_kv_cache_unifiedD0Ev, symObjAddr: 0x4AA0, symBinAddr: 0x44770, symSize: 0x30 }
  - { offset: 0x1D601E, size: 0x8, addend: 0x0, symName: __ZNKSt3__16vectorI13llama_kv_cellNS_9allocatorIS1_EEE20__throw_length_errorB8ne190107Ev, symObjAddr: 0x5600, symBinAddr: 0x44F00, symSize: 0x10 }
  - { offset: 0x1D82D0, size: 0x8, addend: 0x0, symName: __ZN10llama_mmap9SUPPORTEDE, symObjAddr: 0x16C8, symBinAddr: 0x1DC08B, symSize: 0x0 }
  - { offset: 0x1DDEC4, size: 0x8, addend: 0x0, symName: __ZN11llama_mlock9SUPPORTEDE, symObjAddr: 0x16C9, symBinAddr: 0x1DC08C, symSize: 0x0 }
  - { offset: 0x1DE29D, size: 0x8, addend: 0x0, symName: __ZN10llama_fileC2EPKcS1_, symObjAddr: 0x0, symBinAddr: 0x454A0, symSize: 0x60 }
  - { offset: 0x1DE3BE, size: 0x8, addend: 0x0, symName: __ZN10llama_file4implC2EPKcS2_, symObjAddr: 0x10D0, symBinAddr: 0x464A0, symSize: 0x100 }
  - { offset: 0x1DE624, size: 0x8, addend: 0x0, symName: __ZN10llama_fileC1EPKcS1_, symObjAddr: 0x60, symBinAddr: 0x45500, symSize: 0x60 }
  - { offset: 0x1DE840, size: 0x8, addend: 0x0, symName: __ZN10llama_fileD2Ev, symObjAddr: 0xC0, symBinAddr: 0x45560, symSize: 0x40 }
  - { offset: 0x1DE96A, size: 0x8, addend: 0x0, symName: __ZN10llama_fileD1Ev, symObjAddr: 0x100, symBinAddr: 0x455A0, symSize: 0x40 }
  - { offset: 0x1DEAAA, size: 0x8, addend: 0x0, symName: __ZNK10llama_file4tellEv, symObjAddr: 0x140, symBinAddr: 0x455E0, symSize: 0x10 }
  - { offset: 0x1DEAFD, size: 0x8, addend: 0x0, symName: __ZNK10llama_file4impl4tellEv, symObjAddr: 0x150, symBinAddr: 0x455F0, symSize: 0xC0 }
  - { offset: 0x1DEDF1, size: 0x8, addend: 0x0, symName: __ZNK10llama_file4sizeEv, symObjAddr: 0x210, symBinAddr: 0x456B0, symSize: 0x10 }
  - { offset: 0x1DEE2D, size: 0x8, addend: 0x0, symName: __ZNK10llama_file7file_idEv, symObjAddr: 0x220, symBinAddr: 0x456C0, symSize: 0x10 }
  - { offset: 0x1DEE8D, size: 0x8, addend: 0x0, symName: __ZNK10llama_file4seekEmi, symObjAddr: 0x230, symBinAddr: 0x456D0, symSize: 0x10 }
  - { offset: 0x1DEF0F, size: 0x8, addend: 0x0, symName: __ZNK10llama_file4impl4seekEmi, symObjAddr: 0x240, symBinAddr: 0x456E0, symSize: 0xC0 }
  - { offset: 0x1DF11A, size: 0x8, addend: 0x0, symName: __ZNK10llama_file8read_rawEPvm, symObjAddr: 0x300, symBinAddr: 0x457A0, symSize: 0x10 }
  - { offset: 0x1DF19C, size: 0x8, addend: 0x0, symName: __ZNK10llama_file4impl8read_rawEPvm, symObjAddr: 0x310, symBinAddr: 0x457B0, symSize: 0x140 }
  - { offset: 0x1DF403, size: 0x8, addend: 0x0, symName: __ZNK10llama_file8read_u32Ev, symObjAddr: 0x450, symBinAddr: 0x458F0, symSize: 0x30 }
  - { offset: 0x1DF48D, size: 0x8, addend: 0x0, symName: __ZNK10llama_file9write_rawEPKvm, symObjAddr: 0x480, symBinAddr: 0x45920, symSize: 0x10 }
  - { offset: 0x1DF50F, size: 0x8, addend: 0x0, symName: __ZNK10llama_file4impl9write_rawEPKvm, symObjAddr: 0x490, symBinAddr: 0x45930, symSize: 0xF0 }
  - { offset: 0x1DF754, size: 0x8, addend: 0x0, symName: __ZNK10llama_file9write_u32Ej, symObjAddr: 0x580, symBinAddr: 0x45A20, symSize: 0x30 }
  - { offset: 0x1DF955, size: 0x8, addend: 0x0, symName: __ZN10llama_mmapC2EP10llama_filemb, symObjAddr: 0x5B0, symBinAddr: 0x45A50, symSize: 0x70 }
  - { offset: 0x1DFA99, size: 0x8, addend: 0x0, symName: __ZN10llama_mmap4implC2EP10llama_filemb, symObjAddr: 0x11D0, symBinAddr: 0x465A0, symSize: 0x300 }
  - { offset: 0x1E04EC, size: 0x8, addend: 0x0, symName: __ZN10llama_mmapC1EP10llama_filemb, symObjAddr: 0x620, symBinAddr: 0x45AC0, symSize: 0x70 }
  - { offset: 0x1E0725, size: 0x8, addend: 0x0, symName: __ZN10llama_mmapD2Ev, symObjAddr: 0x690, symBinAddr: 0x45B30, symSize: 0x40 }
  - { offset: 0x1E080C, size: 0x8, addend: 0x0, symName: __ZN10llama_mmap4implD2Ev, symObjAddr: 0x14D0, symBinAddr: 0x468A0, symSize: 0xA7 }
  - { offset: 0x1E0AD7, size: 0x8, addend: 0x0, symName: __ZN10llama_mmapD1Ev, symObjAddr: 0x6D0, symBinAddr: 0x45B70, symSize: 0x40 }
  - { offset: 0x1E0C04, size: 0x8, addend: 0x0, symName: __ZNK10llama_mmap4sizeEv, symObjAddr: 0x710, symBinAddr: 0x45BB0, symSize: 0x10 }
  - { offset: 0x1E0C49, size: 0x8, addend: 0x0, symName: __ZNK10llama_mmap4addrEv, symObjAddr: 0x720, symBinAddr: 0x45BC0, symSize: 0x10 }
  - { offset: 0x1E0C8E, size: 0x8, addend: 0x0, symName: __ZN10llama_mmap14unmap_fragmentEmm, symObjAddr: 0x730, symBinAddr: 0x45BD0, symSize: 0x10 }
  - { offset: 0x1E0D10, size: 0x8, addend: 0x0, symName: __ZN10llama_mmap4impl14unmap_fragmentEmm, symObjAddr: 0x740, symBinAddr: 0x45BE0, symSize: 0x6C0 }
  - { offset: 0x1E2EA1, size: 0x8, addend: 0x0, symName: __ZNKSt3__16vectorINS_4pairImmEENS_9allocatorIS2_EEE20__throw_length_errorB8ne190107Ev, symObjAddr: 0x1000, symBinAddr: 0x46490, symSize: 0x10 }
  - { offset: 0x1E3027, size: 0x8, addend: 0x0, symName: __ZN11llama_mlockC2Ev, symObjAddr: 0xE00, symBinAddr: 0x462A0, symSize: 0x30 }
  - { offset: 0x1E3156, size: 0x8, addend: 0x0, symName: __ZN11llama_mlockC1Ev, symObjAddr: 0xE30, symBinAddr: 0x462D0, symSize: 0x30 }
  - { offset: 0x1E3316, size: 0x8, addend: 0x0, symName: __ZN11llama_mlockD2Ev, symObjAddr: 0xE60, symBinAddr: 0x46300, symSize: 0x30 }
  - { offset: 0x1E33E6, size: 0x8, addend: 0x0, symName: __ZN11llama_mlockD1Ev, symObjAddr: 0xE90, symBinAddr: 0x46330, symSize: 0x30 }
  - { offset: 0x1E3501, size: 0x8, addend: 0x0, symName: __ZN11llama_mlock4initEPv, symObjAddr: 0xEC0, symBinAddr: 0x46360, symSize: 0x40 }
  - { offset: 0x1E353D, size: 0x8, addend: 0x0, symName: __ZN11llama_mlock4initEPv, symObjAddr: 0xEC0, symBinAddr: 0x46360, symSize: 0x40 }
  - { offset: 0x1E3584, size: 0x8, addend: 0x0, symName: __ZN11llama_mlock7grow_toEm, symObjAddr: 0xF00, symBinAddr: 0x463A0, symSize: 0x10 }
  - { offset: 0x1E35F0, size: 0x8, addend: 0x0, symName: __ZN11llama_mlock4impl7grow_toEm, symObjAddr: 0xF10, symBinAddr: 0x463B0, symSize: 0xD0 }
  - { offset: 0x1E3772, size: 0x8, addend: 0x0, symName: __Z14llama_path_maxv, symObjAddr: 0xFE0, symBinAddr: 0x46480, symSize: 0x10 }
  - { offset: 0x208478, size: 0x8, addend: 0x0, symName: __ZNSt3__120__throw_future_errorB8ne190107ENS_11future_errcE, symObjAddr: 0xB2F0, symBinAddr: 0x512A0, symSize: 0x60 }
  - { offset: 0x209091, size: 0x8, addend: 0x0, symName: '__ZNSt3__114__thread_proxyB8ne190107INS_5tupleIJNS_10unique_ptrINS_15__thread_structENS_14default_deleteIS3_EEEEMNS_19__async_assoc_stateINS_4pairIP11ggml_tensorbEENS_12__async_funcIZN18llama_model_loader13load_all_dataEP12ggml_contextRNS_13unordered_mapIjP19ggml_backend_bufferNS_4hashIjEENS_8equal_toIjEENS_9allocatorINS8_IKjSI_EEEEEEPNS_6vectorINS2_I11llama_mlockNS4_ISU_EEEENSN_ISW_EEEEPFbfPvES10_E3$_1JEEEEEFvvEPS15_EEEEES10_S10_', symObjAddr: 0xB350, symBinAddr: 0x51300, symSize: 0xA0 }
  - { offset: 0x209619, size: 0x8, addend: 0x0, symName: '__ZNSt3__114__thread_proxyB8ne190107INS_5tupleIJNS_10unique_ptrINS_15__thread_structENS_14default_deleteIS3_EEEEMNS_19__async_assoc_stateINS_4pairIP11ggml_tensorbEENS_12__async_funcIZN18llama_model_loader13load_all_dataEP12ggml_contextRNS_13unordered_mapIjP19ggml_backend_bufferNS_4hashIjEENS_8equal_toIjEENS_9allocatorINS8_IKjSI_EEEEEEPNS_6vectorINS2_I11llama_mlockNS4_ISU_EEEENSN_ISW_EEEEPFbfPvES10_E3$_2JEEEEEFvvEPS15_EEEEES10_S10_', symObjAddr: 0xB860, symBinAddr: 0x51810, symSize: 0xA0 }
  - { offset: 0x20E64B, size: 0x8, addend: 0x0, symName: __ZN18llama_model_loader13load_all_dataEP12ggml_contextRNSt3__113unordered_mapIjP19ggml_backend_bufferNS2_4hashIjEENS2_8equal_toIjEENS2_9allocatorINS2_4pairIKjS5_EEEEEEPNS2_6vectorINS2_10unique_ptrI11llama_mlockNS2_14default_deleteISJ_EEEENSA_ISM_EEEEPFbfPvESQ_, symObjAddr: 0x5F00, symBinAddr: 0x4C710, symSize: 0x1A60 }
  - { offset: 0x2131DF, size: 0x8, addend: 0x0, symName: __Z23llama_file_version_name10llama_fver, symObjAddr: 0x0, symBinAddr: 0x46950, symSize: 0x30 }
  - { offset: 0x2132DA, size: 0x8, addend: 0x0, symName: __ZN18llama_model_loader9get_arr_nIjEENSt3__19enable_ifIXsr3std11is_integralIT_EE5valueEbE4typeE6llm_kvRS3_b, symObjAddr: 0x30, symBinAddr: 0x46980, symSize: 0x90 }
  - { offset: 0x213632, size: 0x8, addend: 0x0, symName: __ZN18llama_model_loader9get_arr_nIjEENSt3__19enable_ifIXsr3std11is_integralIT_EE5valueEbE4typeERKNS1_12basic_stringIcNS1_11char_traitsIcEENS1_9allocatorIcEEEERS3_b, symObjAddr: 0xC0, symBinAddr: 0x46A10, symSize: 0x110 }
  - { offset: 0x2139F6, size: 0x8, addend: 0x0, symName: __ZN8GGUFMeta3GKVINS_9ArrayInfoEE6get_kvEPK12gguf_contexti, symObjAddr: 0x8250, symBinAddr: 0x4E960, symSize: 0x130 }
  - { offset: 0x213C92, size: 0x8, addend: 0x0, symName: __ZN18llama_model_loader7get_keyIbEEb6llm_kvRT_b, symObjAddr: 0x1D0, symBinAddr: 0x46B20, symSize: 0x90 }
  - { offset: 0x213FEA, size: 0x8, addend: 0x0, symName: __ZN18llama_model_loader7get_keyIbEEbRKNSt3__112basic_stringIcNS1_11char_traitsIcEENS1_9allocatorIcEEEERT_b, symObjAddr: 0x260, symBinAddr: 0x46BB0, symSize: 0x140 }
  - { offset: 0x21454D, size: 0x8, addend: 0x0, symName: __ZNSt3__112__hash_tableINS_17__hash_value_typeINS_12basic_stringIcNS_11char_traitsIcEENS_9allocatorIcEEEE23llama_model_kv_overrideEENS_22__unordered_map_hasherIS7_S9_NS_4hashIS7_EENS_8equal_toIS7_EELb1EEENS_21__unordered_map_equalIS7_S9_SE_SC_Lb1EEENS5_IS9_EEE4findIS7_EENS_15__hash_iteratorIPNS_11__hash_nodeIS9_PvEEEERKT_, symObjAddr: 0x8380, symBinAddr: 0x4EA90, symSize: 0x290 }
  - { offset: 0x21483C, size: 0x8, addend: 0x0, symName: __ZN8GGUFMeta3GKVIbE17validate_overrideE28llama_model_kv_override_typePK23llama_model_kv_override, symObjAddr: 0x8BC0, symBinAddr: 0x4EE20, symSize: 0x210 }
  - { offset: 0x214A85, size: 0x8, addend: 0x0, symName: __ZN8GGUFMeta3GKVIbE6get_kvEPK12gguf_contexti, symObjAddr: 0x8AC0, symBinAddr: 0x4ED20, symSize: 0x100 }
  - { offset: 0x214CB0, size: 0x8, addend: 0x0, symName: __ZN18llama_model_loader7get_keyIfEEb6llm_kvRT_b, symObjAddr: 0x3A0, symBinAddr: 0x46CF0, symSize: 0x90 }
  - { offset: 0x215008, size: 0x8, addend: 0x0, symName: __ZN18llama_model_loader7get_keyIfEEbRKNSt3__112basic_stringIcNS1_11char_traitsIcEENS1_9allocatorIcEEEERT_b, symObjAddr: 0x430, symBinAddr: 0x46D80, symSize: 0x150 }
  - { offset: 0x21553A, size: 0x8, addend: 0x0, symName: __ZN8GGUFMeta3GKVIfE17validate_overrideE28llama_model_kv_override_typePK23llama_model_kv_override, symObjAddr: 0x8ED0, symBinAddr: 0x4F130, symSize: 0x210 }
  - { offset: 0x215783, size: 0x8, addend: 0x0, symName: __ZN8GGUFMeta3GKVIfE6get_kvEPK12gguf_contexti, symObjAddr: 0x8DD0, symBinAddr: 0x4F030, symSize: 0x100 }
  - { offset: 0x2159AE, size: 0x8, addend: 0x0, symName: __ZN18llama_model_loader7get_keyIjEEb6llm_kvRT_b, symObjAddr: 0x580, symBinAddr: 0x46ED0, symSize: 0x90 }
  - { offset: 0x215CE3, size: 0x8, addend: 0x0, symName: __ZN18llama_model_loader7get_keyIjEEbRKNSt3__112basic_stringIcNS1_11char_traitsIcEENS1_9allocatorIcEEEERT_b, symObjAddr: 0x610, symBinAddr: 0x46F60, symSize: 0x140 }
  - { offset: 0x216215, size: 0x8, addend: 0x0, symName: __ZN8GGUFMeta3GKVIjE17validate_overrideE28llama_model_kv_override_typePK23llama_model_kv_override, symObjAddr: 0x91E0, symBinAddr: 0x4F440, symSize: 0x210 }
  - { offset: 0x21645E, size: 0x8, addend: 0x0, symName: __ZN8GGUFMeta3GKVIjE6get_kvEPK12gguf_contexti, symObjAddr: 0x90E0, symBinAddr: 0x4F340, symSize: 0x100 }
  - { offset: 0x216697, size: 0x8, addend: 0x0, symName: __ZN18llama_model_loader7get_keyINSt3__112basic_stringIcNS1_11char_traitsIcEENS1_9allocatorIcEEEEEEb6llm_kvRT_b, symObjAddr: 0x750, symBinAddr: 0x470A0, symSize: 0x90 }
  - { offset: 0x2169EF, size: 0x8, addend: 0x0, symName: __ZN18llama_model_loader7get_keyINSt3__112basic_stringIcNS1_11char_traitsIcEENS1_9allocatorIcEEEEEEbRKS7_RT_b, symObjAddr: 0x7E0, symBinAddr: 0x47130, symSize: 0x170 }
  - { offset: 0x217140, size: 0x8, addend: 0x0, symName: __ZN8GGUFMeta3GKVINSt3__112basic_stringIcNS1_11char_traitsIcEENS1_9allocatorIcEEEEE17validate_overrideE28llama_model_kv_override_typePK23llama_model_kv_override, symObjAddr: 0x9580, symBinAddr: 0x4F7E0, symSize: 0x210 }
  - { offset: 0x217389, size: 0x8, addend: 0x0, symName: __ZN8GGUFMeta3GKVINSt3__112basic_stringIcNS1_11char_traitsIcEENS1_9allocatorIcEEEEE6get_kvEPK12gguf_contexti, symObjAddr: 0x93F0, symBinAddr: 0x4F650, symSize: 0x190 }
  - { offset: 0x2178DB, size: 0x8, addend: 0x0, symName: __ZN18llama_model_loader7get_keyI18llama_pooling_typeEEb6llm_kvRT_b, symObjAddr: 0x950, symBinAddr: 0x472A0, symSize: 0xA0 }
  - { offset: 0x217C81, size: 0x8, addend: 0x0, symName: __ZN18llama_model_loader14get_key_or_arrINSt3__15arrayIiLm4EEEEEb6llm_kvRT_jb, symObjAddr: 0x9F0, symBinAddr: 0x47340, symSize: 0xA0 }
  - { offset: 0x217FEF, size: 0x8, addend: 0x0, symName: __ZN18llama_model_loader14get_key_or_arrIiLm4EEEbRKNSt3__112basic_stringIcNS1_11char_traitsIcEENS1_9allocatorIcEEEERNS1_5arrayIT_XT0_EEEjb, symObjAddr: 0xA90, symBinAddr: 0x473E0, symSize: 0x330 }
  - { offset: 0x218755, size: 0x8, addend: 0x0, symName: __ZN18llama_model_loader7get_arrIiLm4EEEbRKNSt3__112basic_stringIcNS1_11char_traitsIcEENS1_9allocatorIcEEEERNS1_5arrayIT_XT0_EEEb, symObjAddr: 0x9790, symBinAddr: 0x4F9F0, symSize: 0x250 }
  - { offset: 0x218D1C, size: 0x8, addend: 0x0, symName: __ZN18llama_model_loader7get_keyIiEEbRKNSt3__112basic_stringIcNS1_11char_traitsIcEENS1_9allocatorIcEEEERT_b, symObjAddr: 0x4670, symBinAddr: 0x4AE80, symSize: 0x140 }
  - { offset: 0x219186, size: 0x8, addend: 0x0, symName: __ZN18llama_model_loader14get_key_or_arrINSt3__15arrayIjLm512EEEEEb6llm_kvRT_jb, symObjAddr: 0xDC0, symBinAddr: 0x47710, symSize: 0xA0 }
  - { offset: 0x2194F4, size: 0x8, addend: 0x0, symName: __ZN18llama_model_loader14get_key_or_arrIjLm512EEEbRKNSt3__112basic_stringIcNS1_11char_traitsIcEENS1_9allocatorIcEEEERNS1_5arrayIT_XT0_EEEjb, symObjAddr: 0xE60, symBinAddr: 0x477B0, symSize: 0x2F0 }
  - { offset: 0x219C43, size: 0x8, addend: 0x0, symName: __ZN18llama_model_loader7get_arrIjLm512EEEbRKNSt3__112basic_stringIcNS1_11char_traitsIcEENS1_9allocatorIcEEEERNS1_5arrayIT_XT0_EEEb, symObjAddr: 0x99E0, symBinAddr: 0x4FC40, symSize: 0x250 }
  - { offset: 0x21CFF5, size: 0x8, addend: 0x0, symName: __ZN18llama_model_loaderC2ERKNSt3__112basic_stringIcNS0_11char_traitsIcEENS0_9allocatorIcEEEERNS0_6vectorIS6_NS4_IS6_EEEEbbPK23llama_model_kv_override, symObjAddr: 0x1150, symBinAddr: 0x47AA0, symSize: 0x32A0 }
  - { offset: 0x2273E4, size: 0x8, addend: 0x0, symName: __ZNSt3__112__hash_tableINS_17__hash_value_typeINS_12basic_stringIcNS_11char_traitsIcEENS_9allocatorIcEEEE23llama_model_kv_overrideEENS_22__unordered_map_hasherIS7_S9_NS_4hashIS7_EENS_8equal_toIS7_EELb1EEENS_21__unordered_map_equalIS7_S9_SE_SC_Lb1EEENS5_IS9_EEE25__emplace_unique_key_argsIS7_JNS_4pairIKS7_S8_EEEEENSL_INS_15__hash_iteratorIPNS_11__hash_nodeIS9_PvEEEEbEERKT_DpOT0_, symObjAddr: 0x9C80, symBinAddr: 0x4FEE0, symSize: 0x5B0 }
  - { offset: 0x227E89, size: 0x8, addend: 0x0, symName: __ZNK18llama_model_loader20weight_name_comparerclERKNSt3__112basic_stringIcNS1_11char_traitsIcEENS1_9allocatorIcEEEES9_, symObjAddr: 0xA5D0, symBinAddr: 0x507A0, symSize: 0xE0 }
  - { offset: 0x228181, size: 0x8, addend: 0x0, symName: __ZN18llama_model_loader19llama_tensor_weightC2EPK10llama_filetPK12gguf_contextP11ggml_tensor, symObjAddr: 0x7E70, symBinAddr: 0x4E670, symSize: 0x1A0 }
  - { offset: 0x22838C, size: 0x8, addend: 0x0, symName: __ZNSt3__16__treeINS_12__value_typeINS_12basic_stringIcNS_11char_traitsIcEENS_9allocatorIcEEEEN18llama_model_loader19llama_tensor_weightEEENS_19__map_value_compareIS7_SA_NS8_20weight_name_comparerELb1EEENS5_ISA_EEE25__emplace_unique_key_argsIS7_JRS7_S9_EEENS_4pairINS_15__tree_iteratorISA_PNS_11__tree_nodeISA_PvEElEEbEERKT_DpOT0_, symObjAddr: 0xA6B0, symBinAddr: 0x50880, symSize: 0x160 }
  - { offset: 0x228871, size: 0x8, addend: 0x0, symName: __ZN8GGUFMeta3GKVItE17validate_overrideE28llama_model_kv_override_typePK23llama_model_kv_override, symObjAddr: 0xAAE0, symBinAddr: 0x50B30, symSize: 0x210 }
  - { offset: 0x228ABA, size: 0x8, addend: 0x0, symName: __ZN8GGUFMeta3GKVItE6get_kvEPK12gguf_contexti, symObjAddr: 0xA9E0, symBinAddr: 0x50A30, symSize: 0x100 }
  - { offset: 0x228CF3, size: 0x8, addend: 0x0, symName: __ZN18llama_model_loader7get_keyItEEbRKNSt3__112basic_stringIcNS1_11char_traitsIcEENS1_9allocatorIcEEEERT_b, symObjAddr: 0x4480, symBinAddr: 0x4AD40, symSize: 0x140 }
  - { offset: 0x229419, size: 0x8, addend: 0x0, symName: __ZNSt3__16__treeINS_12__value_typeI9ggml_typejEENS_19__map_value_compareIS2_S3_NS_4lessIS2_EELb1EEENS_9allocatorIS3_EEE7destroyEPNS_11__tree_nodeIS3_PvEE, symObjAddr: 0xB000, symBinAddr: 0x51050, symSize: 0x40 }
  - { offset: 0x22958C, size: 0x8, addend: 0x0, symName: __ZNKSt3__16vectorINS_10unique_ptrI10llama_fileNS_14default_deleteIS2_EEEENS_9allocatorIS5_EEE20__throw_length_errorB8ne190107Ev, symObjAddr: 0xA5B0, symBinAddr: 0x50790, symSize: 0x10 }
  - { offset: 0x2295D9, size: 0x8, addend: 0x0, symName: __ZNK18llama_model_loader20weight_name_comparerclERKNSt3__112basic_stringIcNS1_11char_traitsIcEENS1_9allocatorIcEEEES9_, symObjAddr: 0xA5D0, symBinAddr: 0x507A0, symSize: 0xE0 }
  - { offset: 0x2295FC, size: 0x8, addend: 0x0, symName: __ZNSt3__16vectorIP18ggml_backend_eventNS_9allocatorIS2_EEE12emplace_backIJRS2_EEES7_DpOT_, symObjAddr: 0x8100, symBinAddr: 0x4E810, symSize: 0x120 }
  - { offset: 0x2297FD, size: 0x8, addend: 0x0, symName: __ZNSt3__110unique_ptrINS_11__tree_nodeINS_12__value_typeINS_12basic_stringIcNS_11char_traitsIcEENS_9allocatorIcEEEEN18llama_model_loader19llama_tensor_weightEEEPvEENS_22__tree_node_destructorINS6_ISD_EEEEED1B8ne190107Ev, symObjAddr: 0xA810, symBinAddr: 0x509E0, symSize: 0x50 }
  - { offset: 0x229B85, size: 0x8, addend: 0x0, symName: __ZNSt3__16vectorINS_10unique_ptrI12ggml_context20ggml_context_deleterEENS_9allocatorIS4_EEED1B8ne190107Ev, symObjAddr: 0x47B0, symBinAddr: 0x4AFC0, symSize: 0x90 }
  - { offset: 0x229D9C, size: 0x8, addend: 0x0, symName: __ZNSt3__113unordered_mapINS_12basic_stringIcNS_11char_traitsIcEENS_9allocatorIcEEEE23llama_model_kv_overrideNS_4hashIS6_EENS_8equal_toIS6_EENS4_INS_4pairIKS6_S7_EEEEED1B8ne190107Ev, symObjAddr: 0x4840, symBinAddr: 0x4B050, symSize: 0x80 }
  - { offset: 0x22A28C, size: 0x8, addend: 0x0, symName: __ZNSt3__16__treeINS_12__value_typeINS_12basic_stringIcNS_11char_traitsIcEENS_9allocatorIcEEEEN18llama_model_loader19llama_tensor_weightEEENS_19__map_value_compareIS7_SA_NS8_20weight_name_comparerELb1EEENS5_ISA_EEE7destroyEPNS_11__tree_nodeISA_PvEE, symObjAddr: 0x9C30, symBinAddr: 0x4FE90, symSize: 0x50 }
  - { offset: 0x22A5BD, size: 0x8, addend: 0x0, symName: __ZNSt3__16vectorINS_10unique_ptrI10llama_mmapNS_14default_deleteIS2_EEEENS_9allocatorIS5_EEED1B8ne190107Ev, symObjAddr: 0x48C0, symBinAddr: 0x4B0D0, symSize: 0x90 }
  - { offset: 0x22A7FA, size: 0x8, addend: 0x0, symName: __ZNSt3__16vectorINS_10unique_ptrI10llama_fileNS_14default_deleteIS2_EEEENS_9allocatorIS5_EEED1B8ne190107Ev, symObjAddr: 0x4950, symBinAddr: 0x4B160, symSize: 0x90 }
  - { offset: 0x22AD03, size: 0x8, addend: 0x0, symName: __ZN8GGUFMeta3GKVIiE17validate_overrideE28llama_model_kv_override_typePK23llama_model_kv_override, symObjAddr: 0xADF0, symBinAddr: 0x50E40, symSize: 0x210 }
  - { offset: 0x22AF4C, size: 0x8, addend: 0x0, symName: __ZN8GGUFMeta3GKVIiE6get_kvEPK12gguf_contexti, symObjAddr: 0xACF0, symBinAddr: 0x50D40, symSize: 0x100 }
  - { offset: 0x22B7FE, size: 0x8, addend: 0x0, symName: __ZN18llama_model_loaderC1ERKNSt3__112basic_stringIcNS0_11char_traitsIcEENS0_9allocatorIcEEEERNS0_6vectorIS6_NS4_IS6_EEEEbbPK23llama_model_kv_override, symObjAddr: 0x49E0, symBinAddr: 0x4B1F0, symSize: 0x10 }
  - { offset: 0x22B8C6, size: 0x8, addend: 0x0, symName: __ZNK18llama_model_loader13get_arch_nameEv, symObjAddr: 0x49F0, symBinAddr: 0x4B200, symSize: 0x50 }
  - { offset: 0x22B964, size: 0x8, addend: 0x0, symName: __ZNK18llama_model_loader8get_archEv, symObjAddr: 0x4A40, symBinAddr: 0x4B250, symSize: 0x10 }
  - { offset: 0x22BA63, size: 0x8, addend: 0x0, symName: __ZNK18llama_model_loader10get_weightEPKc, symObjAddr: 0x4A50, symBinAddr: 0x4B260, symSize: 0x150 }
  - { offset: 0x22C235, size: 0x8, addend: 0x0, symName: __ZNK18llama_model_loader14require_weightEPKc, symObjAddr: 0x4BA0, symBinAddr: 0x4B3B0, symSize: 0xC0 }
  - { offset: 0x22C404, size: 0x8, addend: 0x0, symName: __ZNK18llama_model_loader15get_tensor_metaEPKc, symObjAddr: 0x4C60, symBinAddr: 0x4B470, symSize: 0x20 }
  - { offset: 0x22C48A, size: 0x8, addend: 0x0, symName: __ZNK18llama_model_loader19require_tensor_metaERKNSt3__112basic_stringIcNS0_11char_traitsIcEENS0_9allocatorIcEEEE, symObjAddr: 0x4C80, symBinAddr: 0x4B490, symSize: 0xE0 }
  - { offset: 0x22C764, size: 0x8, addend: 0x0, symName: __ZNK18llama_model_loader17check_tensor_dimsERKNSt3__112basic_stringIcNS0_11char_traitsIcEENS0_9allocatorIcEEEERKNS0_6vectorIxNS4_IxEEEEb, symObjAddr: 0x4D60, symBinAddr: 0x4B570, symSize: 0x270 }
  - { offset: 0x22D238, size: 0x8, addend: 0x0, symName: __ZN18llama_model_loader13create_tensorEP12ggml_contextRKNSt3__112basic_stringIcNS2_11char_traitsIcEENS2_9allocatorIcEEEERKSt16initializer_listIxEi, symObjAddr: 0x4FD0, symBinAddr: 0x4B7E0, symSize: 0x150 }
  - { offset: 0x22D866, size: 0x8, addend: 0x0, symName: __ZNKSt3__16vectorINS_10unique_ptrI10llama_mmapNS_14default_deleteIS2_EEEENS_9allocatorIS5_EEE20__throw_length_errorB8ne190107Ev, symObjAddr: 0xB0D0, symBinAddr: 0x51090, symSize: 0x10 }
  - { offset: 0x22D871, size: 0x8, addend: 0x0, symName: __ZN18llama_model_loader21create_tensor_as_viewEP12ggml_contextP11ggml_tensorRKNSt3__112basic_stringIcNS4_11char_traitsIcEENS4_9allocatorIcEEEERKSt16initializer_listIxEmb, symObjAddr: 0x5120, symBinAddr: 0x4B930, symSize: 0x280 }
  - { offset: 0x22E13A, size: 0x8, addend: 0x0, symName: __ZNK18llama_model_loader20done_getting_tensorsEv, symObjAddr: 0x53A0, symBinAddr: 0x4BBB0, symSize: 0xC0 }
  - { offset: 0x22F1D1, size: 0x8, addend: 0x0, symName: __ZN18llama_model_loader13init_mappingsEbPNSt3__16vectorINS0_10unique_ptrI11llama_mlockNS0_14default_deleteIS3_EEEENS0_9allocatorIS6_EEEE, symObjAddr: 0x5460, symBinAddr: 0x4BC70, symSize: 0x6B0 }
  - { offset: 0x230D5D, size: 0x8, addend: 0x0, symName: __ZNKSt3__16vectorINS_10unique_ptrI10llama_mmapNS_14default_deleteIS2_EEEENS_9allocatorIS5_EEE20__throw_length_errorB8ne190107Ev, symObjAddr: 0xB0D0, symBinAddr: 0x51090, symSize: 0x10 }
  - { offset: 0x230DAA, size: 0x8, addend: 0x0, symName: __ZNKSt3__16vectorINS_10unique_ptrI11llama_mlockNS_14default_deleteIS2_EEEENS_9allocatorIS5_EEE20__throw_length_errorB8ne190107Ev, symObjAddr: 0xB0F0, symBinAddr: 0x510A0, symSize: 0x10 }
  - { offset: 0x230DB5, size: 0x8, addend: 0x0, symName: __ZNKSt3__16vectorINS_10unique_ptrI11llama_mlockNS_14default_deleteIS2_EEEENS_9allocatorIS5_EEE20__throw_length_errorB8ne190107Ev, symObjAddr: 0xB0F0, symBinAddr: 0x510A0, symSize: 0x10 }
  - { offset: 0x230DDF, size: 0x8, addend: 0x0, symName: __ZNKSt3__16vectorINS_10unique_ptrI10llama_mmapNS_14default_deleteIS2_EEEENS_9allocatorIS5_EEE20__throw_out_of_rangeB8ne190107Ev, symObjAddr: 0xB100, symBinAddr: 0x510B0, symSize: 0x10 }
  - { offset: 0x230DEA, size: 0x8, addend: 0x0, symName: __ZNSt3__110unique_ptrI10llama_mmapNS_14default_deleteIS1_EEED1B8ne190107Ev, symObjAddr: 0x5B50, symBinAddr: 0x4C360, symSize: 0x40 }
  - { offset: 0x230E82, size: 0x8, addend: 0x0, symName: __ZNSt3__110unique_ptrI11llama_mlockNS_14default_deleteIS1_EEED1B8ne190107Ev, symObjAddr: 0x5B10, symBinAddr: 0x4C320, symSize: 0x40 }
  - { offset: 0x231029, size: 0x8, addend: 0x0, symName: __ZNK18llama_model_loader17get_mapping_rangeEPmS0_PPviP12ggml_context, symObjAddr: 0x5B90, symBinAddr: 0x4C3A0, symSize: 0x150 }
  - { offset: 0x2312D1, size: 0x8, addend: 0x0, symName: __ZNKSt3__16vectorINS_10unique_ptrI10llama_mmapNS_14default_deleteIS2_EEEENS_9allocatorIS5_EEE20__throw_out_of_rangeB8ne190107Ev, symObjAddr: 0xB100, symBinAddr: 0x510B0, symSize: 0x10 }
  - { offset: 0x2312FB, size: 0x8, addend: 0x0, symName: __ZNKSt3__16vectorINS_10unique_ptrI10llama_fileNS_14default_deleteIS2_EEEENS_9allocatorIS5_EEE20__throw_out_of_rangeB8ne190107Ev, symObjAddr: 0xB110, symBinAddr: 0x510C0, symSize: 0x10 }
  - { offset: 0x23131C, size: 0x8, addend: 0x0, symName: __ZNK18llama_model_loader13load_data_forEP11ggml_tensor, symObjAddr: 0x5CE0, symBinAddr: 0x4C4F0, symSize: 0x220 }
  - { offset: 0x234154, size: 0x8, addend: 0x0, symName: __ZNSt3__16vectorINS_6futureINS_4pairIP11ggml_tensorbEEEENS_9allocatorIS6_EEE24__emplace_back_slow_pathIJS6_EEEPS6_DpOT_, symObjAddr: 0xB480, symBinAddr: 0x51430, symSize: 0x1F0 }
  - { offset: 0x234741, size: 0x8, addend: 0x0, symName: __ZNSt3__113__assoc_stateINS_4pairIP11ggml_tensorbEEE4moveEv, symObjAddr: 0xB960, symBinAddr: 0x51910, symSize: 0xC0 }
  - { offset: 0x234933, size: 0x8, addend: 0x0, symName: __ZNSt3__16vectorIP18ggml_backend_eventNS_9allocatorIS2_EEE12emplace_backIJRS2_EEES7_DpOT_, symObjAddr: 0x8100, symBinAddr: 0x4E810, symSize: 0x120 }
  - { offset: 0x234D72, size: 0x8, addend: 0x0, symName: __ZNKSt3__16vectorIP19ggml_backend_bufferNS_9allocatorIS2_EEE20__throw_length_errorB8ne190107Ev, symObjAddr: 0x8220, symBinAddr: 0x4E930, symSize: 0x10 }
  - { offset: 0x234DC3, size: 0x8, addend: 0x0, symName: __ZNKSt3__16vectorINS_10unique_ptrI10llama_fileNS_14default_deleteIS2_EEEENS_9allocatorIS5_EEE20__throw_out_of_rangeB8ne190107Ev, symObjAddr: 0xB110, symBinAddr: 0x510C0, symSize: 0x10 }
  - { offset: 0x234DED, size: 0x8, addend: 0x0, symName: '__ZNSt3__119__async_assoc_stateINS_4pairIP11ggml_tensorbEENS_12__async_funcIZN18llama_model_loader13load_all_dataEP12ggml_contextRNS_13unordered_mapIjP19ggml_backend_bufferNS_4hashIjEENS_8equal_toIjEENS_9allocatorINS1_IKjSB_EEEEEEPNS_6vectorINS_10unique_ptrI11llama_mlockNS_14default_deleteISO_EEEENSG_ISR_EEEEPFbfPvESV_E3$_1JEEEED1Ev', symObjAddr: 0xB120, symBinAddr: 0x510D0, symSize: 0x40 }
  - { offset: 0x234DF8, size: 0x8, addend: 0x0, symName: __ZNKSt3__16vectorINS_4pairImmEENS_9allocatorIS2_EEE20__throw_out_of_rangeB8ne190107Ev, symObjAddr: 0xBA20, symBinAddr: 0x519D0, symSize: 0x10 }
  - { offset: 0x234E2D, size: 0x8, addend: 0x0, symName: __ZNKSt3__16vectorINS_10unique_ptrI11llama_mlockNS_14default_deleteIS2_EEEENS_9allocatorIS5_EEE20__throw_out_of_rangeB8ne190107Ev, symObjAddr: 0xB680, symBinAddr: 0x51630, symSize: 0x10 }
  - { offset: 0x234E57, size: 0x8, addend: 0x0, symName: '__ZNSt3__119__async_assoc_stateINS_4pairIP11ggml_tensorbEENS_12__async_funcIZN18llama_model_loader13load_all_dataEP12ggml_contextRNS_13unordered_mapIjP19ggml_backend_bufferNS_4hashIjEENS_8equal_toIjEENS_9allocatorINS1_IKjSB_EEEEEEPNS_6vectorINS_10unique_ptrI11llama_mlockNS_14default_deleteISO_EEEENSG_ISR_EEEEPFbfPvESV_E3$_2JEEEED1Ev', symObjAddr: 0xB690, symBinAddr: 0x51640, symSize: 0x40 }
  - { offset: 0x234E62, size: 0x8, addend: 0x0, symName: __ZNKSt3__16vectorI7no_initIhENS_9allocatorIS2_EEE20__throw_length_errorB8ne190107Ev, symObjAddr: 0xB950, symBinAddr: 0x51900, symSize: 0x10 }
  - { offset: 0x234E8C, size: 0x8, addend: 0x0, symName: __ZNSt3__113__assoc_stateINS_4pairIP11ggml_tensorbEEE4moveEv, symObjAddr: 0xB960, symBinAddr: 0x51910, symSize: 0xC0 }
  - { offset: 0x234E97, size: 0x8, addend: 0x0, symName: __ZNKSt3__16vectorIP19ggml_backend_bufferNS_9allocatorIS2_EEE20__throw_length_errorB8ne190107Ev, symObjAddr: 0x8220, symBinAddr: 0x4E930, symSize: 0x10 }
  - { offset: 0x234EC1, size: 0x8, addend: 0x0, symName: __ZNKSt3__16vectorIPvNS_9allocatorIS1_EEE20__throw_length_errorB8ne190107Ev, symObjAddr: 0x8230, symBinAddr: 0x4E940, symSize: 0x10 }
  - { offset: 0x234ECC, size: 0x8, addend: 0x0, symName: __ZNKSt3__16vectorIPvNS_9allocatorIS1_EEE20__throw_length_errorB8ne190107Ev, symObjAddr: 0x8230, symBinAddr: 0x4E940, symSize: 0x10 }
  - { offset: 0x234EF6, size: 0x8, addend: 0x0, symName: __ZNKSt3__16vectorIP18ggml_backend_eventNS_9allocatorIS2_EEE20__throw_length_errorB8ne190107Ev, symObjAddr: 0x8240, symBinAddr: 0x4E950, symSize: 0x10 }
  - { offset: 0x234F01, size: 0x8, addend: 0x0, symName: '__ZNSt3__110unique_ptrINS_5tupleIJNS0_INS_15__thread_structENS_14default_deleteIS2_EEEEMNS_19__async_assoc_stateINS_4pairIP11ggml_tensorbEENS_12__async_funcIZN18llama_model_loader13load_all_dataEP12ggml_contextRNS_13unordered_mapIjP19ggml_backend_bufferNS_4hashIjEENS_8equal_toIjEENS_9allocatorINS7_IKjSH_EEEEEEPNS_6vectorINS0_I11llama_mlockNS3_IST_EEEENSM_ISV_EEEEPFbfPvESZ_E3$_2JEEEEEFvvEPS14_EEENS3_IS18_EEED1B8ne190107Ev', symObjAddr: 0xB900, symBinAddr: 0x518B0, symSize: 0x50 }
  - { offset: 0x2350AB, size: 0x8, addend: 0x0, symName: __ZNSt3__110unique_ptrINS_15__thread_structENS_14default_deleteIS1_EEED1B8ne190107Ev, symObjAddr: 0xB440, symBinAddr: 0x513F0, symSize: 0x40 }
  - { offset: 0x235143, size: 0x8, addend: 0x0, symName: '__ZNSt3__110unique_ptrINS_5tupleIJNS0_INS_15__thread_structENS_14default_deleteIS2_EEEEMNS_19__async_assoc_stateINS_4pairIP11ggml_tensorbEENS_12__async_funcIZN18llama_model_loader13load_all_dataEP12ggml_contextRNS_13unordered_mapIjP19ggml_backend_bufferNS_4hashIjEENS_8equal_toIjEENS_9allocatorINS7_IKjSH_EEEEEEPNS_6vectorINS0_I11llama_mlockNS3_IST_EEEENSM_ISV_EEEEPFbfPvESZ_E3$_1JEEEEEFvvEPS14_EEENS3_IS18_EEED1B8ne190107Ev', symObjAddr: 0xB3F0, symBinAddr: 0x513A0, symSize: 0x50 }
  - { offset: 0x2352ED, size: 0x8, addend: 0x0, symName: __ZNSt3__16vectorINS_6futureINS_4pairIP11ggml_tensorbEEEENS_9allocatorIS6_EEED1B8ne190107Ev, symObjAddr: 0x7960, symBinAddr: 0x4E170, symSize: 0x90 }
  - { offset: 0x235527, size: 0x8, addend: 0x0, symName: __ZNK18llama_model_loader10ftype_nameEv, symObjAddr: 0x79F0, symBinAddr: 0x4E200, symSize: 0x20 }
  - { offset: 0x235566, size: 0x8, addend: 0x0, symName: __ZL22llama_model_ftype_name11llama_ftype, symObjAddr: 0x7A10, symBinAddr: 0x4E220, symSize: 0x2C0 }
  - { offset: 0x2358E1, size: 0x8, addend: 0x0, symName: __ZNK18llama_model_loader10print_infoEv, symObjAddr: 0x7CD0, symBinAddr: 0x4E4E0, symSize: 0x190 }
  - { offset: 0x235FEB, size: 0x8, addend: 0x0, symName: __ZNKSt3__16vectorIP18ggml_backend_eventNS_9allocatorIS2_EEE20__throw_length_errorB8ne190107Ev, symObjAddr: 0x8240, symBinAddr: 0x4E950, symSize: 0x10 }
  - { offset: 0x236015, size: 0x8, addend: 0x0, symName: __ZN8GGUFMeta3GKVINS_9ArrayInfoEE6get_kvEPK12gguf_contexti, symObjAddr: 0x8250, symBinAddr: 0x4E960, symSize: 0x130 }
  - { offset: 0x23716B, size: 0x8, addend: 0x0, symName: __ZNSt3__112__hash_tableINS_17__hash_value_typeINS_12basic_stringIcNS_11char_traitsIcEENS_9allocatorIcEEEE23llama_model_kv_overrideEENS_22__unordered_map_hasherIS7_S9_NS_4hashIS7_EENS_8equal_toIS7_EELb1EEENS_21__unordered_map_equalIS7_S9_SE_SC_Lb1EEENS5_IS9_EEE11__do_rehashILb1EEEvm, symObjAddr: 0xA280, symBinAddr: 0x504E0, symSize: 0x2B0 }
  - { offset: 0x23762B, size: 0x8, addend: 0x0, symName: __ZNSt3__110unique_ptrINS_11__hash_nodeINS_17__hash_value_typeINS_12basic_stringIcNS_11char_traitsIcEENS_9allocatorIcEEEE23llama_model_kv_overrideEEPvEENS_22__hash_node_destructorINS6_ISC_EEEEED1B8ne190107Ev, symObjAddr: 0xA230, symBinAddr: 0x50490, symSize: 0x50 }
  - { offset: 0x237C45, size: 0x8, addend: 0x0, symName: '__ZNSt3__119__async_assoc_stateINS_4pairIP11ggml_tensorbEENS_12__async_funcIZN18llama_model_loader13load_all_dataEP12ggml_contextRNS_13unordered_mapIjP19ggml_backend_bufferNS_4hashIjEENS_8equal_toIjEENS_9allocatorINS1_IKjSB_EEEEEEPNS_6vectorINS_10unique_ptrI11llama_mlockNS_14default_deleteISO_EEEENSG_ISR_EEEEPFbfPvESV_E3$_1JEEEED1Ev', symObjAddr: 0xB120, symBinAddr: 0x510D0, symSize: 0x40 }
  - { offset: 0x237CE1, size: 0x8, addend: 0x0, symName: '__ZNSt3__119__async_assoc_stateINS_4pairIP11ggml_tensorbEENS_12__async_funcIZN18llama_model_loader13load_all_dataEP12ggml_contextRNS_13unordered_mapIjP19ggml_backend_bufferNS_4hashIjEENS_8equal_toIjEENS_9allocatorINS1_IKjSB_EEEEEEPNS_6vectorINS_10unique_ptrI11llama_mlockNS_14default_deleteISO_EEEENSG_ISR_EEEEPFbfPvESV_E3$_1JEEEED0Ev', symObjAddr: 0xB160, symBinAddr: 0x51110, symSize: 0x50 }
  - { offset: 0x237DA3, size: 0x8, addend: 0x0, symName: '__ZNSt3__119__async_assoc_stateINS_4pairIP11ggml_tensorbEENS_12__async_funcIZN18llama_model_loader13load_all_dataEP12ggml_contextRNS_13unordered_mapIjP19ggml_backend_bufferNS_4hashIjEENS_8equal_toIjEENS_9allocatorINS1_IKjSB_EEEEEEPNS_6vectorINS_10unique_ptrI11llama_mlockNS_14default_deleteISO_EEEENSG_ISR_EEEEPFbfPvESV_E3$_1JEEEE16__on_zero_sharedEv', symObjAddr: 0xB1B0, symBinAddr: 0x51160, symSize: 0x30 }
  - { offset: 0x238006, size: 0x8, addend: 0x0, symName: '__ZNSt3__119__async_assoc_stateINS_4pairIP11ggml_tensorbEENS_12__async_funcIZN18llama_model_loader13load_all_dataEP12ggml_contextRNS_13unordered_mapIjP19ggml_backend_bufferNS_4hashIjEENS_8equal_toIjEENS_9allocatorINS1_IKjSB_EEEEEEPNS_6vectorINS_10unique_ptrI11llama_mlockNS_14default_deleteISO_EEEENSG_ISR_EEEEPFbfPvESV_E3$_1JEEEE9__executeEv', symObjAddr: 0xB1E0, symBinAddr: 0x51190, symSize: 0x110 }
  - { offset: 0x23861A, size: 0x8, addend: 0x0, symName: __ZNKSt3__16vectorINS_6futureINS_4pairIP11ggml_tensorbEEEENS_9allocatorIS6_EEE20__throw_length_errorB8ne190107Ev, symObjAddr: 0xB670, symBinAddr: 0x51620, symSize: 0x10 }
  - { offset: 0x238644, size: 0x8, addend: 0x0, symName: __ZNKSt3__16vectorINS_10unique_ptrI11llama_mlockNS_14default_deleteIS2_EEEENS_9allocatorIS5_EEE20__throw_out_of_rangeB8ne190107Ev, symObjAddr: 0xB680, symBinAddr: 0x51630, symSize: 0x10 }
  - { offset: 0x23866C, size: 0x8, addend: 0x0, symName: '__ZNSt3__119__async_assoc_stateINS_4pairIP11ggml_tensorbEENS_12__async_funcIZN18llama_model_loader13load_all_dataEP12ggml_contextRNS_13unordered_mapIjP19ggml_backend_bufferNS_4hashIjEENS_8equal_toIjEENS_9allocatorINS1_IKjSB_EEEEEEPNS_6vectorINS_10unique_ptrI11llama_mlockNS_14default_deleteISO_EEEENSG_ISR_EEEEPFbfPvESV_E3$_2JEEEED1Ev', symObjAddr: 0xB690, symBinAddr: 0x51640, symSize: 0x40 }
  - { offset: 0x238708, size: 0x8, addend: 0x0, symName: '__ZNSt3__119__async_assoc_stateINS_4pairIP11ggml_tensorbEENS_12__async_funcIZN18llama_model_loader13load_all_dataEP12ggml_contextRNS_13unordered_mapIjP19ggml_backend_bufferNS_4hashIjEENS_8equal_toIjEENS_9allocatorINS1_IKjSB_EEEEEEPNS_6vectorINS_10unique_ptrI11llama_mlockNS_14default_deleteISO_EEEENSG_ISR_EEEEPFbfPvESV_E3$_2JEEEED0Ev', symObjAddr: 0xB6D0, symBinAddr: 0x51680, symSize: 0x50 }
  - { offset: 0x2387B2, size: 0x8, addend: 0x0, symName: '__ZNSt3__119__async_assoc_stateINS_4pairIP11ggml_tensorbEENS_12__async_funcIZN18llama_model_loader13load_all_dataEP12ggml_contextRNS_13unordered_mapIjP19ggml_backend_bufferNS_4hashIjEENS_8equal_toIjEENS_9allocatorINS1_IKjSB_EEEEEEPNS_6vectorINS_10unique_ptrI11llama_mlockNS_14default_deleteISO_EEEENSG_ISR_EEEEPFbfPvESV_E3$_2JEEEE16__on_zero_sharedEv', symObjAddr: 0xB720, symBinAddr: 0x516D0, symSize: 0x30 }
  - { offset: 0x238862, size: 0x8, addend: 0x0, symName: '__ZNSt3__119__async_assoc_stateINS_4pairIP11ggml_tensorbEENS_12__async_funcIZN18llama_model_loader13load_all_dataEP12ggml_contextRNS_13unordered_mapIjP19ggml_backend_bufferNS_4hashIjEENS_8equal_toIjEENS_9allocatorINS1_IKjSB_EEEEEEPNS_6vectorINS_10unique_ptrI11llama_mlockNS_14default_deleteISO_EEEENSG_ISR_EEEEPFbfPvESV_E3$_2JEEEE9__executeEv', symObjAddr: 0xB750, symBinAddr: 0x51700, symSize: 0x110 }
  - { offset: 0x23AB84, size: 0x8, addend: 0x0, symName: __ZL24LLAMA_ROPE_SCALING_TYPES, symObjAddr: 0x350CD8, symBinAddr: 0x2963F0, symSize: 0x0 }
  - { offset: 0x278054, size: 0x8, addend: 0x0, symName: __ZNSt3__134__uninitialized_allocator_relocateB8ne190107INS_9allocatorINS_4pairIP12ggml_contextNS_13unordered_mapIjP19ggml_backend_bufferNS_4hashIjEENS_8equal_toIjEENS1_INS2_IKjS7_EEEEEEEEEESG_EEvRT_PT0_SL_SL_, symObjAddr: 0x2D710, symBinAddr: 0x7E320, symSize: 0x130 }
  - { offset: 0x2780AF, size: 0x8, addend: 0x0, symName: __ZNSt3__134__uninitialized_allocator_relocateB8ne190107INS_9allocatorINS_4pairIP12ggml_contextNS_13unordered_mapIjP19ggml_backend_bufferNS_4hashIjEENS_8equal_toIjEENS1_INS2_IKjS7_EEEEEEEEEESG_EEvRT_PT0_SL_SL_, symObjAddr: 0x2D710, symBinAddr: 0x7E320, symSize: 0x130 }
  - { offset: 0x27B072, size: 0x8, addend: 0x0, symName: __ZNSt3__111make_uniqueB8ne190107I16llm_build_t5_encJRK11llama_modelRK16llm_graph_paramsRP11ggml_cgraphEEENS_11__unique_ifIT_E15__unique_singleEDpOT0_, symObjAddr: 0x29D70, symBinAddr: 0x7B740, symSize: 0x70 }
  - { offset: 0x27B1C7, size: 0x8, addend: 0x0, symName: __ZNSt3__111make_uniqueB8ne190107I26llm_build_wavtokenizer_decJRK11llama_modelRK16llm_graph_paramsRP11ggml_cgraphEEENS_11__unique_ifIT_E15__unique_singleEDpOT0_, symObjAddr: 0x2A8B0, symBinAddr: 0x7C280, symSize: 0x70 }
  - { offset: 0x27B31C, size: 0x8, addend: 0x0, symName: __ZNSt3__111make_uniqueB8ne190107I20llm_build_bailingmoeJRK11llama_modelRK16llm_graph_paramsRP11ggml_cgraphEEENS_11__unique_ifIT_E15__unique_singleEDpOT0_, symObjAddr: 0x2AAF0, symBinAddr: 0x7C4C0, symSize: 0x70 }
  - { offset: 0x27B471, size: 0x8, addend: 0x0, symName: __ZNSt3__111make_uniqueB8ne190107I14llm_build_olmoJRK11llama_modelRK16llm_graph_paramsRP11ggml_cgraphEEENS_11__unique_ifIT_E15__unique_singleEDpOT0_, symObjAddr: 0x29230, symBinAddr: 0x7AC00, symSize: 0x70 }
  - { offset: 0x27B5C6, size: 0x8, addend: 0x0, symName: __ZNSt3__111make_uniqueB8ne190107I19llm_build_deepseek2JRK11llama_modelRK16llm_graph_paramsRP11ggml_cgraphEEENS_11__unique_ifIT_E15__unique_singleEDpOT0_, symObjAddr: 0x29A10, symBinAddr: 0x7B3E0, symSize: 0x70 }
  - { offset: 0x27B71B, size: 0x8, addend: 0x0, symName: __ZNSt3__111make_uniqueB8ne190107I17llm_build_openelmJRK11llama_modelRK16llm_graph_paramsRP11ggml_cgraphEEENS_11__unique_ifIT_E15__unique_singleEDpOT0_, symObjAddr: 0x29590, symBinAddr: 0x7AF60, symSize: 0x70 }
  - { offset: 0x27B870, size: 0x8, addend: 0x0, symName: __ZNSt3__111make_uniqueB8ne190107I14llm_build_dbrxJRK11llama_modelRK16llm_graph_paramsRP11ggml_cgraphEEENS_11__unique_ifIT_E15__unique_singleEDpOT0_, symObjAddr: 0x29110, symBinAddr: 0x7AAE0, symSize: 0x70 }
  - { offset: 0x27B9C5, size: 0x8, addend: 0x0, symName: __ZNSt3__111make_uniqueB8ne190107I19llm_build_chameleonJRK11llama_modelRK16llm_graph_paramsRP11ggml_cgraphEEENS_11__unique_ifIT_E15__unique_singleEDpOT0_, symObjAddr: 0x2A790, symBinAddr: 0x7C160, symSize: 0x70 }
  - { offset: 0x27BB1A, size: 0x8, addend: 0x0, symName: __ZNSt3__111make_uniqueB8ne190107I13llm_build_plmJRK11llama_modelRK16llm_graph_paramsRP11ggml_cgraphEEENS_11__unique_ifIT_E15__unique_singleEDpOT0_, symObjAddr: 0x2A9D0, symBinAddr: 0x7C3A0, symSize: 0x70 }
  - { offset: 0x27BC6F, size: 0x8, addend: 0x0, symName: __ZNSt3__111make_uniqueB8ne190107I16llm_build_xverseJRK11llama_modelRK16llm_graph_paramsRP11ggml_cgraphEEENS_11__unique_ifIT_E15__unique_singleEDpOT0_, symObjAddr: 0x28DB0, symBinAddr: 0x7A780, symSize: 0x70 }
  - { offset: 0x27BDC4, size: 0x8, addend: 0x0, symName: __ZNSt3__111make_uniqueB8ne190107I15llm_build_mambaJRK11llama_modelRK16llm_graph_paramsRP11ggml_cgraphEEENS_11__unique_ifIT_E15__unique_singleEDpOT0_, symObjAddr: 0x28C90, symBinAddr: 0x7A660, symSize: 0x70 }
  - { offset: 0x27BF19, size: 0x8, addend: 0x0, symName: __ZNSt3__111make_uniqueB8ne190107I19llm_build_command_rJRK11llama_modelRK16llm_graph_paramsRP11ggml_cgraphEEENS_11__unique_ifIT_E15__unique_singleEDpOT0_, symObjAddr: 0x28ED0, symBinAddr: 0x7A8A0, symSize: 0x70 }
  - { offset: 0x27C06E, size: 0x8, addend: 0x0, symName: __ZNSt3__111make_uniqueB8ne190107I20llm_build_rwkv6qwen2JRK11llama_modelRK16llm_graph_paramsRP11ggml_cgraphEEENS_11__unique_ifIT_E15__unique_singleEDpOT0_, symObjAddr: 0x2A430, symBinAddr: 0x7BE00, symSize: 0x70 }
  - { offset: 0x27C1C3, size: 0x8, addend: 0x0, symName: __ZNSt3__111make_uniqueB8ne190107I17llm_build_cohere2JRK11llama_modelRK16llm_graph_paramsRP11ggml_cgraphEEENS_11__unique_ifIT_E15__unique_singleEDpOT0_, symObjAddr: 0x28FF0, symBinAddr: 0x7A9C0, symSize: 0x70 }
  - { offset: 0x27C318, size: 0x8, addend: 0x0, symName: __ZNSt3__111make_uniqueB8ne190107I18llm_build_qwen2moeJRK11llama_modelRK16llm_graph_paramsRP11ggml_cgraphEEENS_11__unique_ifIT_E15__unique_singleEDpOT0_, symObjAddr: 0x27F10, symBinAddr: 0x798E0, symSize: 0x70 }
  - { offset: 0x27C46D, size: 0x8, addend: 0x0, symName: __ZNSt3__111make_uniqueB8ne190107I20llm_build_starcoder2JRK11llama_modelRK16llm_graph_paramsRP11ggml_cgraphEEENS_11__unique_ifIT_E15__unique_singleEDpOT0_, symObjAddr: 0x28B70, symBinAddr: 0x7A540, symSize: 0x70 }
  - { offset: 0x27C5C2, size: 0x8, addend: 0x0, symName: __ZNSt3__111make_uniqueB8ne190107I13llm_build_mptJRK11llama_modelRK16llm_graph_paramsRP11ggml_cgraphEEENS_11__unique_ifIT_E15__unique_singleEDpOT0_, symObjAddr: 0x27970, symBinAddr: 0x79340, symSize: 0x70 }
  - { offset: 0x27C717, size: 0x8, addend: 0x0, symName: __ZNSt3__111make_uniqueB8ne190107I15llm_build_qwen2JRK11llama_modelRK16llm_graph_paramsRP11ggml_cgraphEEENS_11__unique_ifIT_E15__unique_singleEDpOT0_, symObjAddr: 0x27CD0, symBinAddr: 0x796A0, symSize: 0x70 }
  - { offset: 0x27C86C, size: 0x8, addend: 0x0, symName: __ZNSt3__111make_uniqueB8ne190107I16llm_build_refactJRK11llama_modelRK16llm_graph_paramsRP11ggml_cgraphEEENS_11__unique_ifIT_E15__unique_singleEDpOT0_, symObjAddr: 0x27730, symBinAddr: 0x79100, symSize: 0x70 }
  - { offset: 0x27C9C1, size: 0x8, addend: 0x0, symName: __ZNSt3__111make_uniqueB8ne190107I16llm_build_falconJRK11llama_modelRK16llm_graph_paramsRP11ggml_cgraphEEENS_11__unique_ifIT_E15__unique_singleEDpOT0_, symObjAddr: 0x273D0, symBinAddr: 0x78DA0, symSize: 0x70 }
  - { offset: 0x27CB16, size: 0x8, addend: 0x0, symName: __ZNSt3__111make_uniqueB8ne190107I15llm_build_rwkv7JRK11llama_modelRK16llm_graph_paramsRP11ggml_cgraphEEENS_11__unique_ifIT_E15__unique_singleEDpOT0_, symObjAddr: 0x2A550, symBinAddr: 0x7BF20, symSize: 0x70 }
  - { offset: 0x27CC6B, size: 0x8, addend: 0x0, symName: __ZNSt3__111make_uniqueB8ne190107I14llm_build_grokJRK11llama_modelRK16llm_graph_paramsRP11ggml_cgraphEEENS_11__unique_ifIT_E15__unique_singleEDpOT0_, symObjAddr: 0x274F0, symBinAddr: 0x78EC0, symSize: 0x70 }
  - { offset: 0x27CDC0, size: 0x8, addend: 0x0, symName: __ZNSt3__111make_uniqueB8ne190107I17llm_build_chatglmJRK11llama_modelRK16llm_graph_paramsRP11ggml_cgraphEEENS_11__unique_ifIT_E15__unique_singleEDpOT0_, symObjAddr: 0x29B30, symBinAddr: 0x7B500, symSize: 0x70 }
  - { offset: 0x27CF15, size: 0x8, addend: 0x0, symName: __ZNSt3__111make_uniqueB8ne190107I18llm_build_stablelmJRK11llama_modelRK16llm_graph_paramsRP11ggml_cgraphEEENS_11__unique_ifIT_E15__unique_singleEDpOT0_, symObjAddr: 0x27A90, symBinAddr: 0x79460, symSize: 0x70 }
  - { offset: 0x27D06A, size: 0x8, addend: 0x0, symName: __ZNSt3__111make_uniqueB8ne190107I17llm_build_qwen2vlJRK11llama_modelRK16llm_graph_paramsRP11ggml_cgraphEEENS_11__unique_ifIT_E15__unique_singleEDpOT0_, symObjAddr: 0x27DF0, symBinAddr: 0x797C0, symSize: 0x70 }
  - { offset: 0x27D1BF, size: 0x8, addend: 0x0, symName: __ZNSt3__111make_uniqueB8ne190107I15llm_build_bloomJRK11llama_modelRK16llm_graph_paramsRP11ggml_cgraphEEENS_11__unique_ifIT_E15__unique_singleEDpOT0_, symObjAddr: 0x27850, symBinAddr: 0x79220, symSize: 0x70 }
  - { offset: 0x27D314, size: 0x8, addend: 0x0, symName: __ZNSt3__111make_uniqueB8ne190107I19llm_build_codeshellJRK11llama_modelRK16llm_graph_paramsRP11ggml_cgraphEEENS_11__unique_ifIT_E15__unique_singleEDpOT0_, symObjAddr: 0x28390, symBinAddr: 0x79D60, symSize: 0x70 }
  - { offset: 0x27D469, size: 0x8, addend: 0x0, symName: __ZNSt3__111make_uniqueB8ne190107I16llm_build_arcticJRK11llama_modelRK16llm_graph_paramsRP11ggml_cgraphEEENS_11__unique_ifIT_E15__unique_singleEDpOT0_, symObjAddr: 0x297D0, symBinAddr: 0x7B1A0, symSize: 0x70 }
  - { offset: 0x27D5BE, size: 0x8, addend: 0x0, symName: __ZNSt3__111make_uniqueB8ne190107I15llm_build_gemmaJRK11llama_modelRK16llm_graph_paramsRP11ggml_cgraphEEENS_11__unique_ifIT_E15__unique_singleEDpOT0_, symObjAddr: 0x28810, symBinAddr: 0x7A1E0, symSize: 0x70 }
  - { offset: 0x27D713, size: 0x8, addend: 0x0, symName: __ZNSt3__111make_uniqueB8ne190107I16llm_build_gemma2JRK11llama_modelRK16llm_graph_paramsRP11ggml_cgraphEEENS_11__unique_ifIT_E15__unique_singleEDpOT0_, symObjAddr: 0x28930, symBinAddr: 0x7A300, symSize: 0x70 }
  - { offset: 0x27D868, size: 0x8, addend: 0x0, symName: __ZNSt3__111make_uniqueB8ne190107I18llm_build_baichuanJRK11llama_modelRK16llm_graph_paramsRP11ggml_cgraphEEENS_11__unique_ifIT_E15__unique_singleEDpOT0_, symObjAddr: 0x272B0, symBinAddr: 0x78C80, symSize: 0x70 }
  - { offset: 0x27D9BD, size: 0x8, addend: 0x0, symName: __ZNSt3__111make_uniqueB8ne190107I14llm_build_deciJRK11llama_modelRK16llm_graph_paramsRP11ggml_cgraphEEENS_11__unique_ifIT_E15__unique_singleEDpOT0_, symObjAddr: 0x27190, symBinAddr: 0x78B60, symSize: 0x70 }
  - { offset: 0x27DB12, size: 0x8, addend: 0x0, symName: __ZNSt3__111make_uniqueB8ne190107I16llm_build_exaoneJRK11llama_modelRK16llm_graph_paramsRP11ggml_cgraphEEENS_11__unique_ifIT_E15__unique_singleEDpOT0_, symObjAddr: 0x2A1F0, symBinAddr: 0x7BBC0, symSize: 0x70 }
  - { offset: 0x27DC67, size: 0x8, addend: 0x0, symName: __ZNSt3__111make_uniqueB8ne190107I19llm_build_internlm2JRK11llama_modelRK16llm_graph_paramsRP11ggml_cgraphEEENS_11__unique_ifIT_E15__unique_singleEDpOT0_, symObjAddr: 0x285D0, symBinAddr: 0x79FA0, symSize: 0x70 }
  - { offset: 0x27DDBC, size: 0x8, addend: 0x0, symName: __ZNSt3__111make_uniqueB8ne190107I18llm_build_nemotronJRK11llama_modelRK16llm_graph_paramsRP11ggml_cgraphEEENS_11__unique_ifIT_E15__unique_singleEDpOT0_, symObjAddr: 0x2A0D0, symBinAddr: 0x7BAA0, symSize: 0x70 }
  - { offset: 0x27DF11, size: 0x8, addend: 0x0, symName: __ZNSt3__111make_uniqueB8ne190107I18llm_build_minicpm3JRK11llama_modelRK16llm_graph_paramsRP11ggml_cgraphEEENS_11__unique_ifIT_E15__unique_singleEDpOT0_, symObjAddr: 0x286F0, symBinAddr: 0x7A0C0, symSize: 0x70 }
  - { offset: 0x27E066, size: 0x8, addend: 0x0, symName: __ZNSt3__111make_uniqueB8ne190107I14llm_build_gpt2JRK11llama_modelRK16llm_graph_paramsRP11ggml_cgraphEEENS_11__unique_ifIT_E15__unique_singleEDpOT0_, symObjAddr: 0x28270, symBinAddr: 0x79C40, symSize: 0x70 }
  - { offset: 0x27E1BB, size: 0x8, addend: 0x0, symName: __ZNSt3__111make_uniqueB8ne190107I16llm_build_gemma3JRK11llama_modelRK16llm_graph_paramsRP11ggml_cgraphEEENS_11__unique_ifIT_E15__unique_singleEDpOT0_, symObjAddr: 0x28A50, symBinAddr: 0x7A420, symSize: 0x70 }
  - { offset: 0x27E310, size: 0x8, addend: 0x0, symName: __ZNSt3__111make_uniqueB8ne190107I17llm_build_gptneoxJRK11llama_modelRK16llm_graph_paramsRP11ggml_cgraphEEENS_11__unique_ifIT_E15__unique_singleEDpOT0_, symObjAddr: 0x296B0, symBinAddr: 0x7B080, symSize: 0x70 }
  - { offset: 0x27E465, size: 0x8, addend: 0x0, symName: __ZNSt3__111make_uniqueB8ne190107I14llm_build_jaisJRK11llama_modelRK16llm_graph_paramsRP11ggml_cgraphEEENS_11__unique_ifIT_E15__unique_singleEDpOT0_, symObjAddr: 0x29FB0, symBinAddr: 0x7B980, symSize: 0x70 }
  - { offset: 0x27E5BA, size: 0x8, addend: 0x0, symName: __ZNSt3__111make_uniqueB8ne190107I14llm_build_qwenJRK11llama_modelRK16llm_graph_paramsRP11ggml_cgraphEEENS_11__unique_ifIT_E15__unique_singleEDpOT0_, symObjAddr: 0x27BB0, symBinAddr: 0x79580, symSize: 0x70 }
  - { offset: 0x27E70F, size: 0x8, addend: 0x0, symName: __ZNSt3__111make_uniqueB8ne190107I19llm_build_starcoderJRK11llama_modelRK16llm_graph_paramsRP11ggml_cgraphEEENS_11__unique_ifIT_E15__unique_singleEDpOT0_, symObjAddr: 0x27610, symBinAddr: 0x78FE0, symSize: 0x70 }
  - { offset: 0x27E864, size: 0x8, addend: 0x0, symName: __ZNSt3__111make_uniqueB8ne190107I14llm_build_phi2JRK11llama_modelRK16llm_graph_paramsRP11ggml_cgraphEEENS_11__unique_ifIT_E15__unique_singleEDpOT0_, symObjAddr: 0x28030, symBinAddr: 0x79A00, symSize: 0x70 }
  - { offset: 0x27E9B9, size: 0x8, addend: 0x0, symName: __ZNSt3__111make_uniqueB8ne190107I15llm_build_orionJRK11llama_modelRK16llm_graph_paramsRP11ggml_cgraphEEENS_11__unique_ifIT_E15__unique_singleEDpOT0_, symObjAddr: 0x284B0, symBinAddr: 0x79E80, symSize: 0x70 }
  - { offset: 0x27EB0E, size: 0x8, addend: 0x0, symName: __ZNSt3__111make_uniqueB8ne190107I16llm_build_bitnetJRK11llama_modelRK16llm_graph_paramsRP11ggml_cgraphEEENS_11__unique_ifIT_E15__unique_singleEDpOT0_, symObjAddr: 0x29C50, symBinAddr: 0x7B620, symSize: 0x70 }
  - { offset: 0x27EC63, size: 0x8, addend: 0x0, symName: __ZNSt3__111make_uniqueB8ne190107I15llm_build_plamoJRK11llama_modelRK16llm_graph_paramsRP11ggml_cgraphEEENS_11__unique_ifIT_E15__unique_singleEDpOT0_, symObjAddr: 0x28150, symBinAddr: 0x79B20, symSize: 0x70 }
  - { offset: 0x27EDB8, size: 0x8, addend: 0x0, symName: __ZNSt3__111make_uniqueB8ne190107I15llm_build_olmo2JRK11llama_modelRK16llm_graph_paramsRP11ggml_cgraphEEENS_11__unique_ifIT_E15__unique_singleEDpOT0_, symObjAddr: 0x29350, symBinAddr: 0x7AD20, symSize: 0x70 }
  - { offset: 0x27EF0D, size: 0x8, addend: 0x0, symName: __ZNSt3__111make_uniqueB8ne190107I18llm_build_deepseekJRK11llama_modelRK16llm_graph_paramsRP11ggml_cgraphEEENS_11__unique_ifIT_E15__unique_singleEDpOT0_, symObjAddr: 0x298F0, symBinAddr: 0x7B2C0, symSize: 0x70 }
  - { offset: 0x27F062, size: 0x8, addend: 0x0, symName: __ZNSt3__111make_uniqueB8ne190107I15llm_build_rwkv6JRK11llama_modelRK16llm_graph_paramsRP11ggml_cgraphEEENS_11__unique_ifIT_E15__unique_singleEDpOT0_, symObjAddr: 0x2A310, symBinAddr: 0x7BCE0, symSize: 0x70 }
  - { offset: 0x27F1B7, size: 0x8, addend: 0x0, symName: __ZNSt3__111make_uniqueB8ne190107I15llm_build_olmoeJRK11llama_modelRK16llm_graph_paramsRP11ggml_cgraphEEENS_11__unique_ifIT_E15__unique_singleEDpOT0_, symObjAddr: 0x29470, symBinAddr: 0x7AE40, symSize: 0x70 }
  - { offset: 0x27F30C, size: 0x8, addend: 0x0, symName: __ZNSt3__111make_uniqueB8ne190107I16llm_build_arwkv7JRK11llama_modelRK16llm_graph_paramsRP11ggml_cgraphEEENS_11__unique_ifIT_E15__unique_singleEDpOT0_, symObjAddr: 0x2A670, symBinAddr: 0x7C040, symSize: 0x70 }
  - { offset: 0x27F461, size: 0x8, addend: 0x0, symName: __ZNSt3__111make_uniqueB8ne190107I16llm_build_t5_decJRK11llama_modelRK16llm_graph_paramsRP11ggml_cgraphEEENS_11__unique_ifIT_E15__unique_singleEDpOT0_, symObjAddr: 0x29E90, symBinAddr: 0x7B860, symSize: 0x70 }
  - { offset: 0x288C2D, size: 0x8, addend: 0x0, symName: __ZNK11llama_model10print_infoEv, symObjAddr: 0x24E30, symBinAddr: 0x76800, symSize: 0xD90 }
  - { offset: 0x28C3FB, size: 0x8, addend: 0x0, symName: __ZNK11llama_model13create_memoryEv, symObjAddr: 0x26360, symBinAddr: 0x77D30, symSize: 0x120 }
  - { offset: 0x290E1D, size: 0x8, addend: 0x0, symName: __Z13llm_type_name8llm_type, symObjAddr: 0x0, symBinAddr: 0x519E0, symSize: 0x30 }
  - { offset: 0x290EBD, size: 0x8, addend: 0x0, symName: __ZNSt3__13mapI23llama_rope_scaling_typePKcNS_4lessIS1_EENS_9allocatorINS_4pairIKS1_S3_EEEEED1B8ne190107Ev, symObjAddr: 0x30, symBinAddr: 0x51A10, symSize: 0x10 }
  - { offset: 0x290F70, size: 0x8, addend: 0x0, symName: __ZNSt3__16__treeINS_12__value_typeI23llama_rope_scaling_typePKcEENS_19__map_value_compareIS2_S5_NS_4lessIS2_EELb1EEENS_9allocatorIS5_EEE7destroyEPNS_11__tree_nodeIS5_PvEE, symObjAddr: 0x2BBF0, symBinAddr: 0x7CDC0, symSize: 0x40 }
  - { offset: 0x2919BB, size: 0x8, addend: 0x0, symName: __ZN11llama_modelC2ERK18llama_model_params, symObjAddr: 0x40, symBinAddr: 0x51A20, symSize: 0x2C0 }
  - { offset: 0x292352, size: 0x8, addend: 0x0, symName: __ZNSt3__16vectorINS_4pairINS_12basic_stringIcNS_11char_traitsIcEENS_9allocatorIcEEEEP11ggml_tensorEENS5_ISA_EEED1B8ne190107Ev, symObjAddr: 0x300, symBinAddr: 0x51CE0, symSize: 0x80 }
  - { offset: 0x292685, size: 0x8, addend: 0x0, symName: __ZNSt3__112__hash_tableINS_17__hash_value_typeINS_12basic_stringIcNS_11char_traitsIcEENS_9allocatorIcEEEES7_EENS_22__unordered_map_hasherIS7_S8_NS_4hashIS7_EENS_8equal_toIS7_EELb1EEENS_21__unordered_map_equalIS7_S8_SD_SB_Lb1EEENS5_IS8_EEED2Ev, symObjAddr: 0x2BF40, symBinAddr: 0x7D0E0, symSize: 0xA0 }
  - { offset: 0x292DEE, size: 0x8, addend: 0x0, symName: __ZN11llama_modelC1ERK18llama_model_params, symObjAddr: 0x380, symBinAddr: 0x51D60, symSize: 0x10 }
  - { offset: 0x292F02, size: 0x8, addend: 0x0, symName: __ZN11llama_modelD2Ev, symObjAddr: 0x390, symBinAddr: 0x51D70, symSize: 0x130 }
  - { offset: 0x293825, size: 0x8, addend: 0x0, symName: __ZN11llama_model4implD2Ev, symObjAddr: 0x2BC30, symBinAddr: 0x7CE00, symSize: 0x280 }
  - { offset: 0x29484A, size: 0x8, addend: 0x0, symName: __ZN11llama_modelD1Ev, symObjAddr: 0x4C0, symBinAddr: 0x51EA0, symSize: 0x10 }
  - { offset: 0x29489B, size: 0x8, addend: 0x0, symName: __ZN11llama_model10load_statsER18llama_model_loader, symObjAddr: 0x4D0, symBinAddr: 0x51EB0, symSize: 0x20 }
  - { offset: 0x294943, size: 0x8, addend: 0x0, symName: __ZN11llama_model9load_archER18llama_model_loader, symObjAddr: 0x4F0, symBinAddr: 0x51ED0, symSize: 0x170 }
  - { offset: 0x295245, size: 0x8, addend: 0x0, symName: __ZN11llama_model12load_hparamsER18llama_model_loader, symObjAddr: 0x660, symBinAddr: 0x52040, symSize: 0x2CE0 }
  - { offset: 0x2977F2, size: 0x8, addend: 0x0, symName: __ZNSt3__112__hash_tableINS_17__hash_value_typeINS_12basic_stringIcNS_11char_traitsIcEENS_9allocatorIcEEEES7_EENS_22__unordered_map_hasherIS7_S8_NS_4hashIS7_EENS_8equal_toIS7_EELb1EEENS_21__unordered_map_equalIS7_S8_SD_SB_Lb1EEENS5_IS8_EEE21__emplace_unique_implIJRPKcRKS7_EEENS_4pairINS_15__hash_iteratorIPNS_11__hash_nodeIS8_PvEEEEbEEDpOT_, symObjAddr: 0x2BFE0, symBinAddr: 0x7D180, symSize: 0x120 }
  - { offset: 0x298144, size: 0x8, addend: 0x0, symName: _llama_model_rope_type, symObjAddr: 0x34A0, symBinAddr: 0x54E80, symSize: 0x150 }
  - { offset: 0x2981B8, size: 0x8, addend: 0x0, symName: __ZNSt3__13mapI23llama_rope_scaling_typePKcNS_4lessIS1_EENS_9allocatorINS_4pairIKS1_S3_EEEEEC2B8ne190107ESt16initializer_listIS9_ERKS5_, symObjAddr: 0x2BA80, symBinAddr: 0x7CC50, symSize: 0x170 }
  - { offset: 0x2981E6, size: 0x8, addend: 0x0, symName: __ZNK11llama_model9arch_nameEv, symObjAddr: 0x3340, symBinAddr: 0x54D20, symSize: 0xB0 }
  - { offset: 0x2984DF, size: 0x8, addend: 0x0, symName: __ZNK11llama_model9type_nameEv, symObjAddr: 0x33F0, symBinAddr: 0x54DD0, symSize: 0xB0 }
  - { offset: 0x2987D8, size: 0x8, addend: 0x0, symName: __ZN11llama_model10load_vocabER18llama_model_loader, symObjAddr: 0x35F0, symBinAddr: 0x54FD0, symSize: 0x50 }
  - { offset: 0x299111, size: 0x8, addend: 0x0, symName: __ZN11llama_model12load_tensorsER18llama_model_loader, symObjAddr: 0x3640, symBinAddr: 0x55020, symSize: 0x202B0 }
  - { offset: 0x2B9BE9, size: 0x8, addend: 0x0, symName: __ZNSt3__16vectorINS_4pairIP19ggml_backend_deviceP24ggml_backend_buffer_typeEENS_9allocatorIS6_EEE18__insert_with_sizeB8ne190107INS_11__wrap_iterIPS6_EESD_EESD_NSB_IPKS6_EET_T0_l, symObjAddr: 0x2D020, symBinAddr: 0x7DC90, symSize: 0x290 }
  - { offset: 0x2BA60D, size: 0x8, addend: 0x0, symName: __ZNSt3__16vectorIN11llama_model4impl9layer_devENS_9allocatorIS3_EEE8__appendEm, symObjAddr: 0x2D2C0, symBinAddr: 0x7DF20, symSize: 0x150 }
  - { offset: 0x2BAA8E, size: 0x8, addend: 0x0, symName: '__ZZN11llama_model12load_tensorsER18llama_model_loaderENK3$_1clEi', symObjAddr: 0x23910, symBinAddr: 0x752F0, symSize: 0x1A0 }
  - { offset: 0x2BAD92, size: 0x8, addend: 0x0, symName: __ZNSt3__16vectorI11llama_layerNS_9allocatorIS1_EEE8__appendEm, symObjAddr: 0x2D470, symBinAddr: 0x7E090, symSize: 0x1D0 }
  - { offset: 0x2BB22E, size: 0x8, addend: 0x0, symName: '__ZZN11llama_model12load_tensorsER18llama_model_loaderENK3$_3clERK11LLM_TN_IMPLRKSt16initializer_listIxEi', symObjAddr: 0x23AB0, symBinAddr: 0x75490, symSize: 0x10D0 }
  - { offset: 0x2BD689, size: 0x8, addend: 0x0, symName: __ZNSt3__16vectorINS_4pairIP12ggml_contextNS_13unordered_mapIjP19ggml_backend_bufferNS_4hashIjEENS_8equal_toIjEENS_9allocatorINS1_IKjS6_EEEEEEEENSB_ISG_EEE7reserveEm, symObjAddr: 0x24B90, symBinAddr: 0x76560, symSize: 0xF0 }
  - { offset: 0x2BDAB5, size: 0x8, addend: 0x0, symName: __ZNSt3__112__hash_tableINS_17__hash_value_typeIjP19ggml_backend_bufferEENS_22__unordered_map_hasherIjS4_NS_4hashIjEENS_8equal_toIjEELb1EEENS_21__unordered_map_equalIjS4_S9_S7_Lb1EEENS_9allocatorIS4_EEE11__do_rehashILb1EEEvm, symObjAddr: 0x2D8B0, symBinAddr: 0x7E4B0, symSize: 0x2B0 }
  - { offset: 0x2BDF9E, size: 0x8, addend: 0x0, symName: __ZNSt3__112__hash_tableINS_17__hash_value_typeIjP19ggml_backend_bufferEENS_22__unordered_map_hasherIjS4_NS_4hashIjEENS_8equal_toIjEELb1EEENS_21__unordered_map_equalIjS4_S9_S7_Lb1EEENS_9allocatorIS4_EEE25__emplace_unique_key_argsIjJRjRS3_EEENS_4pairINS_15__hash_iteratorIPNS_11__hash_nodeIS4_PvEEEEbEERKT_DpOT0_, symObjAddr: 0x2DB60, symBinAddr: 0x7E760, symSize: 0x450 }
  - { offset: 0x2BE7C6, size: 0x8, addend: 0x0, symName: __ZNSt3__113unordered_mapIjP19ggml_backend_bufferNS_4hashIjEENS_8equal_toIjEENS_9allocatorINS_4pairIKjS2_EEEEEC2ERKSC_, symObjAddr: 0x2E130, symBinAddr: 0x7ED20, symSize: 0x1C0 }
  - { offset: 0x2BEBD3, size: 0x8, addend: 0x0, symName: __ZNSt3__16vectorINS_4pairIP12ggml_contextNS_13unordered_mapIjP19ggml_backend_bufferNS_4hashIjEENS_8equal_toIjEENS_9allocatorINS1_IKjS6_EEEEEEEENSB_ISG_EEE24__emplace_back_slow_pathIJRS3_RSF_EEEPSG_DpOT_, symObjAddr: 0x2DFC0, symBinAddr: 0x7EBB0, symSize: 0x170 }
  - { offset: 0x2BF13D, size: 0x8, addend: 0x0, symName: __ZNSt3__16vectorINS_4pairINS_12basic_stringIcNS_11char_traitsIcEENS_9allocatorIcEEEEP11ggml_tensorEENS5_ISA_EEE24__emplace_back_slow_pathIJPKcRS9_EEEPSA_DpOT_, symObjAddr: 0x2E720, symBinAddr: 0x7F310, symSize: 0x1C0 }
  - { offset: 0x2BFA05, size: 0x8, addend: 0x0, symName: __ZNSt3__112__hash_tableINS_17__hash_value_typeIjP19ggml_backend_bufferEENS_22__unordered_map_hasherIjS4_NS_4hashIjEENS_8equal_toIjEELb1EEENS_21__unordered_map_equalIjS4_S9_S7_Lb1EEENS_9allocatorIS4_EEED1Ev, symObjAddr: 0x2D850, symBinAddr: 0x7E450, symSize: 0x60 }
  - { offset: 0x2BFA10, size: 0x8, addend: 0x0, symName: __ZNKSt3__16vectorINS_4pairIP19ggml_backend_deviceP24ggml_backend_buffer_typeEENS_9allocatorIS6_EEE20__throw_length_errorB8ne190107Ev, symObjAddr: 0x2B2F0, symBinAddr: 0x7CC30, symSize: 0x10 }
  - { offset: 0x2BFA5D, size: 0x8, addend: 0x0, symName: __ZNKSt3__16vectorINS_4pairIP12ggml_contextNS_13unordered_mapIjP19ggml_backend_bufferNS_4hashIjEENS_8equal_toIjEENS_9allocatorINS1_IKjS6_EEEEEEEENSB_ISG_EEE20__throw_length_errorB8ne190107Ev, symObjAddr: 0x2D660, symBinAddr: 0x7E270, symSize: 0x10 }
  - { offset: 0x2BFA80, size: 0x8, addend: 0x0, symName: __ZNSt3__16vectorINS_4pairIP12ggml_contextNS_13unordered_mapIjP19ggml_backend_bufferNS_4hashIjEENS_8equal_toIjEENS_9allocatorINS1_IKjS6_EEEEEEEENSB_ISG_EEE24__emplace_back_slow_pathIJRS3_RSF_EEEPSG_DpOT_, symObjAddr: 0x2DFC0, symBinAddr: 0x7EBB0, symSize: 0x170 }
  - { offset: 0x2BFAA3, size: 0x8, addend: 0x0, symName: __ZNSt3__16vectorIN11llama_model4impl9layer_devENS_9allocatorIS3_EEE8__appendEm, symObjAddr: 0x2D2C0, symBinAddr: 0x7DF20, symSize: 0x150 }
  - { offset: 0x2BFAAE, size: 0x8, addend: 0x0, symName: __ZNSt3__113unordered_mapIjP19ggml_backend_bufferNS_4hashIjEENS_8equal_toIjEENS_9allocatorINS_4pairIKjS2_EEEEED1B8ne190107Ev, symObjAddr: 0x24C80, symBinAddr: 0x76650, symSize: 0x60 }
  - { offset: 0x2BFDB6, size: 0x8, addend: 0x0, symName: __ZNSt3__16vectorINS_4pairIP12ggml_contextNS_13unordered_mapIjP19ggml_backend_bufferNS_4hashIjEENS_8equal_toIjEENS_9allocatorINS1_IKjS6_EEEEEEEENSB_ISG_EEED1B8ne190107Ev, symObjAddr: 0x24CE0, symBinAddr: 0x766B0, symSize: 0xB0 }
  - { offset: 0x2C02C6, size: 0x8, addend: 0x0, symName: __ZNK11llama_model9n_devicesEv, symObjAddr: 0x238F0, symBinAddr: 0x752D0, symSize: 0x20 }
  - { offset: 0x2C03D5, size: 0x8, addend: 0x0, symName: __ZNKSt3__16vectorIP19ggml_backend_deviceNS_9allocatorIS2_EEE20__throw_out_of_rangeB8ne190107Ev, symObjAddr: 0x2B3C0, symBinAddr: 0x7CC40, symSize: 0x10 }
  - { offset: 0x2C14FE, size: 0x8, addend: 0x0, symName: __ZNKSt3__16vectorIN11llama_model4impl9layer_devENS_9allocatorIS3_EEE20__throw_out_of_rangeB8ne190107Ev, symObjAddr: 0x2D460, symBinAddr: 0x7E080, symSize: 0x10 }
  - { offset: 0x2C1528, size: 0x8, addend: 0x0, symName: __ZNSt3__16vectorI11llama_layerNS_9allocatorIS1_EEE8__appendEm, symObjAddr: 0x2D470, symBinAddr: 0x7E090, symSize: 0x1D0 }
  - { offset: 0x2C179B, size: 0x8, addend: 0x0, symName: __ZNKSt3__16vectorINS_4pairIP12ggml_contextNS_13unordered_mapIjP19ggml_backend_bufferNS_4hashIjEENS_8equal_toIjEENS_9allocatorINS1_IKjS6_EEEEEEEENSB_ISG_EEE20__throw_length_errorB8ne190107Ev, symObjAddr: 0x2D660, symBinAddr: 0x7E270, symSize: 0x10 }
  - { offset: 0x2C17C5, size: 0x8, addend: 0x0, symName: __ZNSt3__114__split_bufferINS_4pairIP12ggml_contextNS_13unordered_mapIjP19ggml_backend_bufferNS_4hashIjEENS_8equal_toIjEENS_9allocatorINS1_IKjS6_EEEEEEEERNSB_ISG_EEED1Ev, symObjAddr: 0x2D670, symBinAddr: 0x7E280, symSize: 0xA0 }
  - { offset: 0x2C17D0, size: 0x8, addend: 0x0, symName: __ZNSt3__114__split_bufferINS_4pairIP12ggml_contextNS_13unordered_mapIjP19ggml_backend_bufferNS_4hashIjEENS_8equal_toIjEENS_9allocatorINS1_IKjS6_EEEEEEEERNSB_ISG_EEED1Ev, symObjAddr: 0x2D670, symBinAddr: 0x7E280, symSize: 0xA0 }
  - { offset: 0x2C1D67, size: 0x8, addend: 0x0, symName: __ZNK11llama_model4descEv, symObjAddr: 0x24D90, symBinAddr: 0x76760, symSize: 0x50 }
  - { offset: 0x2C1D8B, size: 0x8, addend: 0x0, symName: __ZNK11llama_model4descEv, symObjAddr: 0x24D90, symBinAddr: 0x76760, symSize: 0x50 }
  - { offset: 0x2C1F83, size: 0x8, addend: 0x0, symName: __ZNK11llama_model4sizeEv, symObjAddr: 0x24DE0, symBinAddr: 0x767B0, symSize: 0x20 }
  - { offset: 0x2C1FD9, size: 0x8, addend: 0x0, symName: __ZNK11llama_model9n_tensorsEv, symObjAddr: 0x24E00, symBinAddr: 0x767D0, symSize: 0x20 }
  - { offset: 0x2C2021, size: 0x8, addend: 0x0, symName: __ZNK11llama_model10n_elementsEv, symObjAddr: 0x24E20, symBinAddr: 0x767F0, symSize: 0x10 }
  - { offset: 0x2C3595, size: 0x8, addend: 0x0, symName: '__ZZNK11llama_model10print_infoEvENK3$_0clERKNSt3__18functionIFjjEEEj', symObjAddr: 0x25BC0, symBinAddr: 0x77590, symSize: 0x350 }
  - { offset: 0x2C4807, size: 0x8, addend: 0x0, symName: __ZNK11llama_model9dev_layerEi, symObjAddr: 0x25F10, symBinAddr: 0x778E0, symSize: 0x40 }
  - { offset: 0x2C4843, size: 0x8, addend: 0x0, symName: __ZNK11llama_model9dev_layerEi, symObjAddr: 0x25F10, symBinAddr: 0x778E0, symSize: 0x40 }
  - { offset: 0x2C48A4, size: 0x8, addend: 0x0, symName: __ZNK11llama_model10dev_outputEv, symObjAddr: 0x25F50, symBinAddr: 0x77920, symSize: 0x20 }
  - { offset: 0x2C4968, size: 0x8, addend: 0x0, symName: __ZNK11llama_model11select_buftEi, symObjAddr: 0x25F70, symBinAddr: 0x77940, symSize: 0x320 }
  - { offset: 0x2C5384, size: 0x8, addend: 0x0, symName: __ZNK11llama_model10get_tensorEPKc, symObjAddr: 0x26290, symBinAddr: 0x77C60, symSize: 0xD0 }
  - { offset: 0x2C5EC8, size: 0x8, addend: 0x0, symName: __ZNK11llama_model11build_graphERK16llm_graph_paramsP11ggml_cgraph14llm_graph_type, symObjAddr: 0x26480, symBinAddr: 0x77E50, symSize: 0xD10 }
  - { offset: 0x2C7461, size: 0x8, addend: 0x0, symName: __ZN15llm_build_llamaC2ERK11llama_modelRK16llm_graph_paramsP11ggml_cgraph, symObjAddr: 0x2EFC0, symBinAddr: 0x7FBB0, symSize: 0x8A0 }
  - { offset: 0x2C7A8B, size: 0x8, addend: 0x0, symName: __ZN14llm_build_bertC2ERK11llama_modelRK16llm_graph_paramsP11ggml_cgraph, symObjAddr: 0x31F90, symBinAddr: 0x82B80, symSize: 0x8B0 }
  - { offset: 0x2C81E9, size: 0x8, addend: 0x0, symName: __ZN14llm_build_phi3C2ERK11llama_modelRK16llm_graph_paramsP11ggml_cgraph, symObjAddr: 0x35F00, symBinAddr: 0x86AF0, symSize: 0x870 }
  - { offset: 0x2C88A6, size: 0x8, addend: 0x0, symName: __ZNSt3__110unique_ptrI17llm_graph_contextNS_14default_deleteIS1_EEEaSB8ne190107I26llm_build_wavtokenizer_decNS2_IS6_EEvvEERS4_ONS0_IT_T0_EE, symObjAddr: 0x2A920, symBinAddr: 0x7C2F0, symSize: 0x60 }
  - { offset: 0x2C8A43, size: 0x8, addend: 0x0, symName: __ZNSt3__110unique_ptrI26llm_build_wavtokenizer_decNS_14default_deleteIS1_EEED1B8ne190107Ev, symObjAddr: 0x2A980, symBinAddr: 0x7C350, symSize: 0x50 }
  - { offset: 0x2C8BDD, size: 0x8, addend: 0x0, symName: __ZNSt3__110unique_ptrI17llm_graph_contextNS_14default_deleteIS1_EEEaSB8ne190107I20llm_build_bailingmoeNS2_IS6_EEvvEERS4_ONS0_IT_T0_EE, symObjAddr: 0x2AB60, symBinAddr: 0x7C530, symSize: 0x60 }
  - { offset: 0x2C8D7A, size: 0x8, addend: 0x0, symName: __ZNSt3__110unique_ptrI20llm_build_bailingmoeNS_14default_deleteIS1_EEED1B8ne190107Ev, symObjAddr: 0x2ABC0, symBinAddr: 0x7C590, symSize: 0x50 }
  - { offset: 0x2C8F14, size: 0x8, addend: 0x0, symName: __ZNSt3__110unique_ptrI17llm_graph_contextNS_14default_deleteIS1_EEEaSB8ne190107I14llm_build_olmoNS2_IS6_EEvvEERS4_ONS0_IT_T0_EE, symObjAddr: 0x292A0, symBinAddr: 0x7AC70, symSize: 0x60 }
  - { offset: 0x2C90B1, size: 0x8, addend: 0x0, symName: __ZNSt3__110unique_ptrI14llm_build_olmoNS_14default_deleteIS1_EEED1B8ne190107Ev, symObjAddr: 0x29300, symBinAddr: 0x7ACD0, symSize: 0x50 }
  - { offset: 0x2C924B, size: 0x8, addend: 0x0, symName: __ZNSt3__110unique_ptrI17llm_graph_contextNS_14default_deleteIS1_EEEaSB8ne190107I19llm_build_deepseek2NS2_IS6_EEvvEERS4_ONS0_IT_T0_EE, symObjAddr: 0x29A80, symBinAddr: 0x7B450, symSize: 0x60 }
  - { offset: 0x2C93E8, size: 0x8, addend: 0x0, symName: __ZNSt3__110unique_ptrI19llm_build_deepseek2NS_14default_deleteIS1_EEED1B8ne190107Ev, symObjAddr: 0x29AE0, symBinAddr: 0x7B4B0, symSize: 0x50 }
  - { offset: 0x2C9582, size: 0x8, addend: 0x0, symName: __ZNSt3__110unique_ptrI17llm_graph_contextNS_14default_deleteIS1_EEEaSB8ne190107I17llm_build_openelmNS2_IS6_EEvvEERS4_ONS0_IT_T0_EE, symObjAddr: 0x29600, symBinAddr: 0x7AFD0, symSize: 0x60 }
  - { offset: 0x2C971F, size: 0x8, addend: 0x0, symName: __ZNSt3__110unique_ptrI17llm_build_openelmNS_14default_deleteIS1_EEED1B8ne190107Ev, symObjAddr: 0x29660, symBinAddr: 0x7B030, symSize: 0x50 }
  - { offset: 0x2C98B9, size: 0x8, addend: 0x0, symName: __ZNSt3__110unique_ptrI17llm_graph_contextNS_14default_deleteIS1_EEEaSB8ne190107I14llm_build_dbrxNS2_IS6_EEvvEERS4_ONS0_IT_T0_EE, symObjAddr: 0x29180, symBinAddr: 0x7AB50, symSize: 0x60 }
  - { offset: 0x2C9A56, size: 0x8, addend: 0x0, symName: __ZNSt3__110unique_ptrI14llm_build_dbrxNS_14default_deleteIS1_EEED1B8ne190107Ev, symObjAddr: 0x291E0, symBinAddr: 0x7ABB0, symSize: 0x50 }
  - { offset: 0x2C9BF0, size: 0x8, addend: 0x0, symName: __ZNSt3__110unique_ptrI17llm_graph_contextNS_14default_deleteIS1_EEEaSB8ne190107I19llm_build_chameleonNS2_IS6_EEvvEERS4_ONS0_IT_T0_EE, symObjAddr: 0x2A800, symBinAddr: 0x7C1D0, symSize: 0x60 }
  - { offset: 0x2C9D8D, size: 0x8, addend: 0x0, symName: __ZNSt3__110unique_ptrI19llm_build_chameleonNS_14default_deleteIS1_EEED1B8ne190107Ev, symObjAddr: 0x2A860, symBinAddr: 0x7C230, symSize: 0x50 }
  - { offset: 0x2C9F27, size: 0x8, addend: 0x0, symName: __ZNSt3__110unique_ptrI17llm_graph_contextNS_14default_deleteIS1_EEEaSB8ne190107I13llm_build_plmNS2_IS6_EEvvEERS4_ONS0_IT_T0_EE, symObjAddr: 0x2AA40, symBinAddr: 0x7C410, symSize: 0x60 }
  - { offset: 0x2CA0C4, size: 0x8, addend: 0x0, symName: __ZNSt3__110unique_ptrI13llm_build_plmNS_14default_deleteIS1_EEED1B8ne190107Ev, symObjAddr: 0x2AAA0, symBinAddr: 0x7C470, symSize: 0x50 }
  - { offset: 0x2CA25E, size: 0x8, addend: 0x0, symName: __ZNSt3__110unique_ptrI17llm_graph_contextNS_14default_deleteIS1_EEEaSB8ne190107I16llm_build_xverseNS2_IS6_EEvvEERS4_ONS0_IT_T0_EE, symObjAddr: 0x28E20, symBinAddr: 0x7A7F0, symSize: 0x60 }
  - { offset: 0x2CA3FB, size: 0x8, addend: 0x0, symName: __ZNSt3__110unique_ptrI16llm_build_xverseNS_14default_deleteIS1_EEED1B8ne190107Ev, symObjAddr: 0x28E80, symBinAddr: 0x7A850, symSize: 0x50 }
  - { offset: 0x2CA595, size: 0x8, addend: 0x0, symName: __ZNSt3__110unique_ptrI17llm_graph_contextNS_14default_deleteIS1_EEEaSB8ne190107I15llm_build_mambaNS2_IS6_EEvvEERS4_ONS0_IT_T0_EE, symObjAddr: 0x28D00, symBinAddr: 0x7A6D0, symSize: 0x60 }
  - { offset: 0x2CA732, size: 0x8, addend: 0x0, symName: __ZNSt3__110unique_ptrI15llm_build_mambaNS_14default_deleteIS1_EEED1B8ne190107Ev, symObjAddr: 0x28D60, symBinAddr: 0x7A730, symSize: 0x50 }
  - { offset: 0x2CA8CC, size: 0x8, addend: 0x0, symName: __ZNSt3__110unique_ptrI17llm_graph_contextNS_14default_deleteIS1_EEEaSB8ne190107I19llm_build_command_rNS2_IS6_EEvvEERS4_ONS0_IT_T0_EE, symObjAddr: 0x28F40, symBinAddr: 0x7A910, symSize: 0x60 }
  - { offset: 0x2CAA69, size: 0x8, addend: 0x0, symName: __ZNSt3__110unique_ptrI19llm_build_command_rNS_14default_deleteIS1_EEED1B8ne190107Ev, symObjAddr: 0x28FA0, symBinAddr: 0x7A970, symSize: 0x50 }
  - { offset: 0x2CAC03, size: 0x8, addend: 0x0, symName: __ZNSt3__110unique_ptrI17llm_graph_contextNS_14default_deleteIS1_EEEaSB8ne190107I20llm_build_rwkv6qwen2NS2_IS6_EEvvEERS4_ONS0_IT_T0_EE, symObjAddr: 0x2A4A0, symBinAddr: 0x7BE70, symSize: 0x60 }
  - { offset: 0x2CADA0, size: 0x8, addend: 0x0, symName: __ZNSt3__110unique_ptrI20llm_build_rwkv6qwen2NS_14default_deleteIS1_EEED1B8ne190107Ev, symObjAddr: 0x2A500, symBinAddr: 0x7BED0, symSize: 0x50 }
  - { offset: 0x2CAF57, size: 0x8, addend: 0x0, symName: __ZNSt3__110unique_ptrI17llm_graph_contextNS_14default_deleteIS1_EEEaSB8ne190107I17llm_build_cohere2NS2_IS6_EEvvEERS4_ONS0_IT_T0_EE, symObjAddr: 0x29060, symBinAddr: 0x7AA30, symSize: 0x60 }
  - { offset: 0x2CB0F4, size: 0x8, addend: 0x0, symName: __ZNSt3__110unique_ptrI17llm_build_cohere2NS_14default_deleteIS1_EEED1B8ne190107Ev, symObjAddr: 0x290C0, symBinAddr: 0x7AA90, symSize: 0x50 }
  - { offset: 0x2CB28E, size: 0x8, addend: 0x0, symName: __ZNSt3__110unique_ptrI17llm_graph_contextNS_14default_deleteIS1_EEEaSB8ne190107I18llm_build_qwen2moeNS2_IS6_EEvvEERS4_ONS0_IT_T0_EE, symObjAddr: 0x27F80, symBinAddr: 0x79950, symSize: 0x60 }
  - { offset: 0x2CB42B, size: 0x8, addend: 0x0, symName: __ZNSt3__110unique_ptrI18llm_build_qwen2moeNS_14default_deleteIS1_EEED1B8ne190107Ev, symObjAddr: 0x27FE0, symBinAddr: 0x799B0, symSize: 0x50 }
  - { offset: 0x2CB5C5, size: 0x8, addend: 0x0, symName: __ZNSt3__110unique_ptrI17llm_graph_contextNS_14default_deleteIS1_EEEaSB8ne190107I20llm_build_starcoder2NS2_IS6_EEvvEERS4_ONS0_IT_T0_EE, symObjAddr: 0x28BE0, symBinAddr: 0x7A5B0, symSize: 0x60 }
  - { offset: 0x2CB762, size: 0x8, addend: 0x0, symName: __ZNSt3__110unique_ptrI20llm_build_starcoder2NS_14default_deleteIS1_EEED1B8ne190107Ev, symObjAddr: 0x28C40, symBinAddr: 0x7A610, symSize: 0x50 }
  - { offset: 0x2CB8FC, size: 0x8, addend: 0x0, symName: __ZNSt3__110unique_ptrI17llm_graph_contextNS_14default_deleteIS1_EEEaSB8ne190107I13llm_build_mptNS2_IS6_EEvvEERS4_ONS0_IT_T0_EE, symObjAddr: 0x279E0, symBinAddr: 0x793B0, symSize: 0x60 }
  - { offset: 0x2CBA99, size: 0x8, addend: 0x0, symName: __ZNSt3__110unique_ptrI13llm_build_mptNS_14default_deleteIS1_EEED1B8ne190107Ev, symObjAddr: 0x27A40, symBinAddr: 0x79410, symSize: 0x50 }
  - { offset: 0x2CBC33, size: 0x8, addend: 0x0, symName: __ZNSt3__110unique_ptrI17llm_graph_contextNS_14default_deleteIS1_EEEaSB8ne190107I15llm_build_qwen2NS2_IS6_EEvvEERS4_ONS0_IT_T0_EE, symObjAddr: 0x27D40, symBinAddr: 0x79710, symSize: 0x60 }
  - { offset: 0x2CBDD0, size: 0x8, addend: 0x0, symName: __ZNSt3__110unique_ptrI15llm_build_qwen2NS_14default_deleteIS1_EEED1B8ne190107Ev, symObjAddr: 0x27DA0, symBinAddr: 0x79770, symSize: 0x50 }
  - { offset: 0x2CBF6A, size: 0x8, addend: 0x0, symName: __ZNSt3__110unique_ptrI17llm_graph_contextNS_14default_deleteIS1_EEEaSB8ne190107I16llm_build_refactNS2_IS6_EEvvEERS4_ONS0_IT_T0_EE, symObjAddr: 0x277A0, symBinAddr: 0x79170, symSize: 0x60 }
  - { offset: 0x2CC107, size: 0x8, addend: 0x0, symName: __ZNSt3__110unique_ptrI16llm_build_refactNS_14default_deleteIS1_EEED1B8ne190107Ev, symObjAddr: 0x27800, symBinAddr: 0x791D0, symSize: 0x50 }
  - { offset: 0x2CC2A1, size: 0x8, addend: 0x0, symName: __ZNSt3__110unique_ptrI17llm_graph_contextNS_14default_deleteIS1_EEEaSB8ne190107I16llm_build_falconNS2_IS6_EEvvEERS4_ONS0_IT_T0_EE, symObjAddr: 0x27440, symBinAddr: 0x78E10, symSize: 0x60 }
  - { offset: 0x2CC43E, size: 0x8, addend: 0x0, symName: __ZNSt3__110unique_ptrI16llm_build_falconNS_14default_deleteIS1_EEED1B8ne190107Ev, symObjAddr: 0x274A0, symBinAddr: 0x78E70, symSize: 0x50 }
  - { offset: 0x2CC5D8, size: 0x8, addend: 0x0, symName: __ZNSt3__110unique_ptrI17llm_graph_contextNS_14default_deleteIS1_EEEaSB8ne190107I15llm_build_rwkv7NS2_IS6_EEvvEERS4_ONS0_IT_T0_EE, symObjAddr: 0x2A5C0, symBinAddr: 0x7BF90, symSize: 0x60 }
  - { offset: 0x2CC775, size: 0x8, addend: 0x0, symName: __ZNSt3__110unique_ptrI15llm_build_rwkv7NS_14default_deleteIS1_EEED1B8ne190107Ev, symObjAddr: 0x2A620, symBinAddr: 0x7BFF0, symSize: 0x50 }
  - { offset: 0x2CC92C, size: 0x8, addend: 0x0, symName: __ZNSt3__110unique_ptrI17llm_graph_contextNS_14default_deleteIS1_EEEaSB8ne190107I14llm_build_grokNS2_IS6_EEvvEERS4_ONS0_IT_T0_EE, symObjAddr: 0x27560, symBinAddr: 0x78F30, symSize: 0x60 }
  - { offset: 0x2CCAC9, size: 0x8, addend: 0x0, symName: __ZNSt3__110unique_ptrI14llm_build_grokNS_14default_deleteIS1_EEED1B8ne190107Ev, symObjAddr: 0x275C0, symBinAddr: 0x78F90, symSize: 0x50 }
  - { offset: 0x2CCC63, size: 0x8, addend: 0x0, symName: __ZNSt3__110unique_ptrI17llm_graph_contextNS_14default_deleteIS1_EEEaSB8ne190107I17llm_build_chatglmNS2_IS6_EEvvEERS4_ONS0_IT_T0_EE, symObjAddr: 0x29BA0, symBinAddr: 0x7B570, symSize: 0x60 }
  - { offset: 0x2CCE00, size: 0x8, addend: 0x0, symName: __ZNSt3__110unique_ptrI17llm_build_chatglmNS_14default_deleteIS1_EEED1B8ne190107Ev, symObjAddr: 0x29C00, symBinAddr: 0x7B5D0, symSize: 0x50 }
  - { offset: 0x2CCF9A, size: 0x8, addend: 0x0, symName: __ZNSt3__110unique_ptrI17llm_graph_contextNS_14default_deleteIS1_EEEaSB8ne190107I18llm_build_stablelmNS2_IS6_EEvvEERS4_ONS0_IT_T0_EE, symObjAddr: 0x27B00, symBinAddr: 0x794D0, symSize: 0x60 }
  - { offset: 0x2CD137, size: 0x8, addend: 0x0, symName: __ZNSt3__110unique_ptrI18llm_build_stablelmNS_14default_deleteIS1_EEED1B8ne190107Ev, symObjAddr: 0x27B60, symBinAddr: 0x79530, symSize: 0x50 }
  - { offset: 0x2CD2D1, size: 0x8, addend: 0x0, symName: __ZNSt3__110unique_ptrI17llm_graph_contextNS_14default_deleteIS1_EEEaSB8ne190107I17llm_build_qwen2vlNS2_IS6_EEvvEERS4_ONS0_IT_T0_EE, symObjAddr: 0x27E60, symBinAddr: 0x79830, symSize: 0x60 }
  - { offset: 0x2CD46E, size: 0x8, addend: 0x0, symName: __ZNSt3__110unique_ptrI17llm_build_qwen2vlNS_14default_deleteIS1_EEED1B8ne190107Ev, symObjAddr: 0x27EC0, symBinAddr: 0x79890, symSize: 0x50 }
  - { offset: 0x2CD608, size: 0x8, addend: 0x0, symName: __ZNSt3__110unique_ptrI17llm_graph_contextNS_14default_deleteIS1_EEEaSB8ne190107I15llm_build_bloomNS2_IS6_EEvvEERS4_ONS0_IT_T0_EE, symObjAddr: 0x278C0, symBinAddr: 0x79290, symSize: 0x60 }
  - { offset: 0x2CD7A5, size: 0x8, addend: 0x0, symName: __ZNSt3__110unique_ptrI15llm_build_bloomNS_14default_deleteIS1_EEED1B8ne190107Ev, symObjAddr: 0x27920, symBinAddr: 0x792F0, symSize: 0x50 }
  - { offset: 0x2CD93F, size: 0x8, addend: 0x0, symName: __ZNSt3__110unique_ptrI17llm_graph_contextNS_14default_deleteIS1_EEEaSB8ne190107I19llm_build_codeshellNS2_IS6_EEvvEERS4_ONS0_IT_T0_EE, symObjAddr: 0x28400, symBinAddr: 0x79DD0, symSize: 0x60 }
  - { offset: 0x2CDADC, size: 0x8, addend: 0x0, symName: __ZNSt3__110unique_ptrI19llm_build_codeshellNS_14default_deleteIS1_EEED1B8ne190107Ev, symObjAddr: 0x28460, symBinAddr: 0x79E30, symSize: 0x50 }
  - { offset: 0x2CDC76, size: 0x8, addend: 0x0, symName: __ZNSt3__110unique_ptrI17llm_graph_contextNS_14default_deleteIS1_EEEaSB8ne190107I16llm_build_arcticNS2_IS6_EEvvEERS4_ONS0_IT_T0_EE, symObjAddr: 0x29840, symBinAddr: 0x7B210, symSize: 0x60 }
  - { offset: 0x2CDE13, size: 0x8, addend: 0x0, symName: __ZNSt3__110unique_ptrI16llm_build_arcticNS_14default_deleteIS1_EEED1B8ne190107Ev, symObjAddr: 0x298A0, symBinAddr: 0x7B270, symSize: 0x50 }
  - { offset: 0x2CDFAD, size: 0x8, addend: 0x0, symName: __ZNSt3__110unique_ptrI17llm_graph_contextNS_14default_deleteIS1_EEEaSB8ne190107I15llm_build_gemmaNS2_IS6_EEvvEERS4_ONS0_IT_T0_EE, symObjAddr: 0x28880, symBinAddr: 0x7A250, symSize: 0x60 }
  - { offset: 0x2CE14A, size: 0x8, addend: 0x0, symName: __ZNSt3__110unique_ptrI15llm_build_gemmaNS_14default_deleteIS1_EEED1B8ne190107Ev, symObjAddr: 0x288E0, symBinAddr: 0x7A2B0, symSize: 0x50 }
  - { offset: 0x2CE2E4, size: 0x8, addend: 0x0, symName: __ZNSt3__110unique_ptrI17llm_graph_contextNS_14default_deleteIS1_EEEaSB8ne190107I16llm_build_gemma2NS2_IS6_EEvvEERS4_ONS0_IT_T0_EE, symObjAddr: 0x289A0, symBinAddr: 0x7A370, symSize: 0x60 }
  - { offset: 0x2CE481, size: 0x8, addend: 0x0, symName: __ZNSt3__110unique_ptrI16llm_build_gemma2NS_14default_deleteIS1_EEED1B8ne190107Ev, symObjAddr: 0x28A00, symBinAddr: 0x7A3D0, symSize: 0x50 }
  - { offset: 0x2CE61B, size: 0x8, addend: 0x0, symName: __ZNSt3__110unique_ptrI17llm_graph_contextNS_14default_deleteIS1_EEEaSB8ne190107I18llm_build_baichuanNS2_IS6_EEvvEERS4_ONS0_IT_T0_EE, symObjAddr: 0x27320, symBinAddr: 0x78CF0, symSize: 0x60 }
  - { offset: 0x2CE7B8, size: 0x8, addend: 0x0, symName: __ZNSt3__110unique_ptrI18llm_build_baichuanNS_14default_deleteIS1_EEED1B8ne190107Ev, symObjAddr: 0x27380, symBinAddr: 0x78D50, symSize: 0x50 }
  - { offset: 0x2CE952, size: 0x8, addend: 0x0, symName: __ZNSt3__110unique_ptrI17llm_graph_contextNS_14default_deleteIS1_EEEaSB8ne190107I14llm_build_deciNS2_IS6_EEvvEERS4_ONS0_IT_T0_EE, symObjAddr: 0x27200, symBinAddr: 0x78BD0, symSize: 0x60 }
  - { offset: 0x2CEAEF, size: 0x8, addend: 0x0, symName: __ZNSt3__110unique_ptrI14llm_build_deciNS_14default_deleteIS1_EEED1B8ne190107Ev, symObjAddr: 0x27260, symBinAddr: 0x78C30, symSize: 0x50 }
  - { offset: 0x2CEC89, size: 0x8, addend: 0x0, symName: __ZNSt3__110unique_ptrI17llm_graph_contextNS_14default_deleteIS1_EEEaSB8ne190107I16llm_build_exaoneNS2_IS6_EEvvEERS4_ONS0_IT_T0_EE, symObjAddr: 0x2A260, symBinAddr: 0x7BC30, symSize: 0x60 }
  - { offset: 0x2CEE26, size: 0x8, addend: 0x0, symName: __ZNSt3__110unique_ptrI16llm_build_exaoneNS_14default_deleteIS1_EEED1B8ne190107Ev, symObjAddr: 0x2A2C0, symBinAddr: 0x7BC90, symSize: 0x50 }
  - { offset: 0x2CEFC0, size: 0x8, addend: 0x0, symName: __ZNSt3__110unique_ptrI17llm_graph_contextNS_14default_deleteIS1_EEEaSB8ne190107I19llm_build_internlm2NS2_IS6_EEvvEERS4_ONS0_IT_T0_EE, symObjAddr: 0x28640, symBinAddr: 0x7A010, symSize: 0x60 }
  - { offset: 0x2CF15D, size: 0x8, addend: 0x0, symName: __ZNSt3__110unique_ptrI19llm_build_internlm2NS_14default_deleteIS1_EEED1B8ne190107Ev, symObjAddr: 0x286A0, symBinAddr: 0x7A070, symSize: 0x50 }
  - { offset: 0x2CF2F7, size: 0x8, addend: 0x0, symName: __ZNSt3__110unique_ptrI17llm_graph_contextNS_14default_deleteIS1_EEEaSB8ne190107I18llm_build_nemotronNS2_IS6_EEvvEERS4_ONS0_IT_T0_EE, symObjAddr: 0x2A140, symBinAddr: 0x7BB10, symSize: 0x60 }
  - { offset: 0x2CF494, size: 0x8, addend: 0x0, symName: __ZNSt3__110unique_ptrI18llm_build_nemotronNS_14default_deleteIS1_EEED1B8ne190107Ev, symObjAddr: 0x2A1A0, symBinAddr: 0x7BB70, symSize: 0x50 }
  - { offset: 0x2CF62E, size: 0x8, addend: 0x0, symName: __ZNSt3__110unique_ptrI17llm_graph_contextNS_14default_deleteIS1_EEEaSB8ne190107I18llm_build_minicpm3NS2_IS6_EEvvEERS4_ONS0_IT_T0_EE, symObjAddr: 0x28760, symBinAddr: 0x7A130, symSize: 0x60 }
  - { offset: 0x2CF7CB, size: 0x8, addend: 0x0, symName: __ZNSt3__110unique_ptrI18llm_build_minicpm3NS_14default_deleteIS1_EEED1B8ne190107Ev, symObjAddr: 0x287C0, symBinAddr: 0x7A190, symSize: 0x50 }
  - { offset: 0x2CF965, size: 0x8, addend: 0x0, symName: __ZNSt3__110unique_ptrI17llm_graph_contextNS_14default_deleteIS1_EEEaSB8ne190107I14llm_build_gpt2NS2_IS6_EEvvEERS4_ONS0_IT_T0_EE, symObjAddr: 0x282E0, symBinAddr: 0x79CB0, symSize: 0x60 }
  - { offset: 0x2CFB02, size: 0x8, addend: 0x0, symName: __ZNSt3__110unique_ptrI14llm_build_gpt2NS_14default_deleteIS1_EEED1B8ne190107Ev, symObjAddr: 0x28340, symBinAddr: 0x79D10, symSize: 0x50 }
  - { offset: 0x2CFC9C, size: 0x8, addend: 0x0, symName: __ZNSt3__110unique_ptrI17llm_graph_contextNS_14default_deleteIS1_EEEaSB8ne190107I16llm_build_gemma3NS2_IS6_EEvvEERS4_ONS0_IT_T0_EE, symObjAddr: 0x28AC0, symBinAddr: 0x7A490, symSize: 0x60 }
  - { offset: 0x2CFE39, size: 0x8, addend: 0x0, symName: __ZNSt3__110unique_ptrI16llm_build_gemma3NS_14default_deleteIS1_EEED1B8ne190107Ev, symObjAddr: 0x28B20, symBinAddr: 0x7A4F0, symSize: 0x50 }
  - { offset: 0x2CFFD3, size: 0x8, addend: 0x0, symName: __ZNSt3__110unique_ptrI17llm_graph_contextNS_14default_deleteIS1_EEEaSB8ne190107I17llm_build_gptneoxNS2_IS6_EEvvEERS4_ONS0_IT_T0_EE, symObjAddr: 0x29720, symBinAddr: 0x7B0F0, symSize: 0x60 }
  - { offset: 0x2D0170, size: 0x8, addend: 0x0, symName: __ZNSt3__110unique_ptrI17llm_build_gptneoxNS_14default_deleteIS1_EEED1B8ne190107Ev, symObjAddr: 0x29780, symBinAddr: 0x7B150, symSize: 0x50 }
  - { offset: 0x2D030A, size: 0x8, addend: 0x0, symName: __ZNSt3__110unique_ptrI17llm_graph_contextNS_14default_deleteIS1_EEEaSB8ne190107I14llm_build_jaisNS2_IS6_EEvvEERS4_ONS0_IT_T0_EE, symObjAddr: 0x2A020, symBinAddr: 0x7B9F0, symSize: 0x60 }
  - { offset: 0x2D04A7, size: 0x8, addend: 0x0, symName: __ZNSt3__110unique_ptrI14llm_build_jaisNS_14default_deleteIS1_EEED1B8ne190107Ev, symObjAddr: 0x2A080, symBinAddr: 0x7BA50, symSize: 0x50 }
  - { offset: 0x2D0641, size: 0x8, addend: 0x0, symName: __ZNSt3__110unique_ptrI17llm_graph_contextNS_14default_deleteIS1_EEEaSB8ne190107I14llm_build_qwenNS2_IS6_EEvvEERS4_ONS0_IT_T0_EE, symObjAddr: 0x27C20, symBinAddr: 0x795F0, symSize: 0x60 }
  - { offset: 0x2D07DE, size: 0x8, addend: 0x0, symName: __ZNSt3__110unique_ptrI14llm_build_qwenNS_14default_deleteIS1_EEED1B8ne190107Ev, symObjAddr: 0x27C80, symBinAddr: 0x79650, symSize: 0x50 }
  - { offset: 0x2D0978, size: 0x8, addend: 0x0, symName: __ZNSt3__110unique_ptrI17llm_graph_contextNS_14default_deleteIS1_EEEaSB8ne190107I19llm_build_starcoderNS2_IS6_EEvvEERS4_ONS0_IT_T0_EE, symObjAddr: 0x27680, symBinAddr: 0x79050, symSize: 0x60 }
  - { offset: 0x2D0B15, size: 0x8, addend: 0x0, symName: __ZNSt3__110unique_ptrI19llm_build_starcoderNS_14default_deleteIS1_EEED1B8ne190107Ev, symObjAddr: 0x276E0, symBinAddr: 0x790B0, symSize: 0x50 }
  - { offset: 0x2D0CAF, size: 0x8, addend: 0x0, symName: __ZNSt3__110unique_ptrI17llm_graph_contextNS_14default_deleteIS1_EEEaSB8ne190107I14llm_build_phi2NS2_IS6_EEvvEERS4_ONS0_IT_T0_EE, symObjAddr: 0x280A0, symBinAddr: 0x79A70, symSize: 0x60 }
  - { offset: 0x2D0E4C, size: 0x8, addend: 0x0, symName: __ZNSt3__110unique_ptrI14llm_build_phi2NS_14default_deleteIS1_EEED1B8ne190107Ev, symObjAddr: 0x28100, symBinAddr: 0x79AD0, symSize: 0x50 }
  - { offset: 0x2D0FE6, size: 0x8, addend: 0x0, symName: __ZNSt3__110unique_ptrI17llm_graph_contextNS_14default_deleteIS1_EEEaSB8ne190107I15llm_build_orionNS2_IS6_EEvvEERS4_ONS0_IT_T0_EE, symObjAddr: 0x28520, symBinAddr: 0x79EF0, symSize: 0x60 }
  - { offset: 0x2D1183, size: 0x8, addend: 0x0, symName: __ZNSt3__110unique_ptrI15llm_build_orionNS_14default_deleteIS1_EEED1B8ne190107Ev, symObjAddr: 0x28580, symBinAddr: 0x79F50, symSize: 0x50 }
  - { offset: 0x2D131D, size: 0x8, addend: 0x0, symName: __ZNSt3__110unique_ptrI17llm_graph_contextNS_14default_deleteIS1_EEEaSB8ne190107I16llm_build_bitnetNS2_IS6_EEvvEERS4_ONS0_IT_T0_EE, symObjAddr: 0x29CC0, symBinAddr: 0x7B690, symSize: 0x60 }
  - { offset: 0x2D14BA, size: 0x8, addend: 0x0, symName: __ZNSt3__110unique_ptrI16llm_build_bitnetNS_14default_deleteIS1_EEED1B8ne190107Ev, symObjAddr: 0x29D20, symBinAddr: 0x7B6F0, symSize: 0x50 }
  - { offset: 0x2D1654, size: 0x8, addend: 0x0, symName: __ZNSt3__110unique_ptrI17llm_graph_contextNS_14default_deleteIS1_EEEaSB8ne190107I15llm_build_plamoNS2_IS6_EEvvEERS4_ONS0_IT_T0_EE, symObjAddr: 0x281C0, symBinAddr: 0x79B90, symSize: 0x60 }
  - { offset: 0x2D17F1, size: 0x8, addend: 0x0, symName: __ZNSt3__110unique_ptrI15llm_build_plamoNS_14default_deleteIS1_EEED1B8ne190107Ev, symObjAddr: 0x28220, symBinAddr: 0x79BF0, symSize: 0x50 }
  - { offset: 0x2D198B, size: 0x8, addend: 0x0, symName: __ZNSt3__110unique_ptrI17llm_graph_contextNS_14default_deleteIS1_EEEaSB8ne190107I15llm_build_olmo2NS2_IS6_EEvvEERS4_ONS0_IT_T0_EE, symObjAddr: 0x293C0, symBinAddr: 0x7AD90, symSize: 0x60 }
  - { offset: 0x2D1B28, size: 0x8, addend: 0x0, symName: __ZNSt3__110unique_ptrI15llm_build_olmo2NS_14default_deleteIS1_EEED1B8ne190107Ev, symObjAddr: 0x29420, symBinAddr: 0x7ADF0, symSize: 0x50 }
  - { offset: 0x2D1CC2, size: 0x8, addend: 0x0, symName: __ZNSt3__110unique_ptrI17llm_graph_contextNS_14default_deleteIS1_EEEaSB8ne190107I18llm_build_deepseekNS2_IS6_EEvvEERS4_ONS0_IT_T0_EE, symObjAddr: 0x29960, symBinAddr: 0x7B330, symSize: 0x60 }
  - { offset: 0x2D1E5F, size: 0x8, addend: 0x0, symName: __ZNSt3__110unique_ptrI18llm_build_deepseekNS_14default_deleteIS1_EEED1B8ne190107Ev, symObjAddr: 0x299C0, symBinAddr: 0x7B390, symSize: 0x50 }
  - { offset: 0x2D1FF9, size: 0x8, addend: 0x0, symName: __ZNSt3__110unique_ptrI17llm_graph_contextNS_14default_deleteIS1_EEEaSB8ne190107I15llm_build_rwkv6NS2_IS6_EEvvEERS4_ONS0_IT_T0_EE, symObjAddr: 0x2A380, symBinAddr: 0x7BD50, symSize: 0x60 }
  - { offset: 0x2D2196, size: 0x8, addend: 0x0, symName: __ZNSt3__110unique_ptrI15llm_build_rwkv6NS_14default_deleteIS1_EEED1B8ne190107Ev, symObjAddr: 0x2A3E0, symBinAddr: 0x7BDB0, symSize: 0x50 }
  - { offset: 0x2D234D, size: 0x8, addend: 0x0, symName: __ZNSt3__110unique_ptrI17llm_graph_contextNS_14default_deleteIS1_EEEaSB8ne190107I15llm_build_olmoeNS2_IS6_EEvvEERS4_ONS0_IT_T0_EE, symObjAddr: 0x294E0, symBinAddr: 0x7AEB0, symSize: 0x60 }
  - { offset: 0x2D24EA, size: 0x8, addend: 0x0, symName: __ZNSt3__110unique_ptrI15llm_build_olmoeNS_14default_deleteIS1_EEED1B8ne190107Ev, symObjAddr: 0x29540, symBinAddr: 0x7AF10, symSize: 0x50 }
  - { offset: 0x2D2684, size: 0x8, addend: 0x0, symName: __ZNSt3__110unique_ptrI17llm_graph_contextNS_14default_deleteIS1_EEEaSB8ne190107I16llm_build_t5_encNS2_IS6_EEvvEERS4_ONS0_IT_T0_EE, symObjAddr: 0x29DE0, symBinAddr: 0x7B7B0, symSize: 0x60 }
  - { offset: 0x2D2821, size: 0x8, addend: 0x0, symName: __ZNSt3__110unique_ptrI16llm_build_t5_encNS_14default_deleteIS1_EEED1B8ne190107Ev, symObjAddr: 0x29E40, symBinAddr: 0x7B810, symSize: 0x50 }
  - { offset: 0x2D29BB, size: 0x8, addend: 0x0, symName: __ZNSt3__110unique_ptrI17llm_graph_contextNS_14default_deleteIS1_EEEaSB8ne190107I16llm_build_arwkv7NS2_IS6_EEvvEERS4_ONS0_IT_T0_EE, symObjAddr: 0x2A6E0, symBinAddr: 0x7C0B0, symSize: 0x60 }
  - { offset: 0x2D2B58, size: 0x8, addend: 0x0, symName: __ZNSt3__110unique_ptrI16llm_build_arwkv7NS_14default_deleteIS1_EEED1B8ne190107Ev, symObjAddr: 0x2A740, symBinAddr: 0x7C110, symSize: 0x50 }
  - { offset: 0x2D2D0F, size: 0x8, addend: 0x0, symName: __ZNSt3__110unique_ptrI17llm_graph_contextNS_14default_deleteIS1_EEEaSB8ne190107I16llm_build_t5_decNS2_IS6_EEvvEERS4_ONS0_IT_T0_EE, symObjAddr: 0x29F00, symBinAddr: 0x7B8D0, symSize: 0x60 }
  - { offset: 0x2D2EAC, size: 0x8, addend: 0x0, symName: __ZNSt3__110unique_ptrI16llm_build_t5_decNS_14default_deleteIS1_EEED1B8ne190107Ev, symObjAddr: 0x29F60, symBinAddr: 0x7B930, symSize: 0x50 }
  - { offset: 0x2D3046, size: 0x8, addend: 0x0, symName: __ZNSt3__110unique_ptrI17llm_graph_contextNS_14default_deleteIS1_EEED1B8ne190107Ev, symObjAddr: 0x2AC10, symBinAddr: 0x7C5E0, symSize: 0x50 }
  - { offset: 0x2D3315, size: 0x8, addend: 0x0, symName: __ZN14llm_build_deciC2ERK11llama_modelRK16llm_graph_paramsP11ggml_cgraph, symObjAddr: 0x2F860, symBinAddr: 0x80450, symSize: 0x860 }
  - { offset: 0x2D3C51, size: 0x8, addend: 0x0, symName: __ZN18llm_build_baichuanC2ERK11llama_modelRK16llm_graph_paramsP11ggml_cgraph, symObjAddr: 0x300C0, symBinAddr: 0x80CB0, symSize: 0x630 }
  - { offset: 0x2D4315, size: 0x8, addend: 0x0, symName: __ZN16llm_build_falconC2ERK11llama_modelRK16llm_graph_paramsP11ggml_cgraph, symObjAddr: 0x306F0, symBinAddr: 0x812E0, symSize: 0x640 }
  - { offset: 0x2D4A25, size: 0x8, addend: 0x0, symName: __ZN14llm_build_grokC2ERK11llama_modelRK16llm_graph_paramsP11ggml_cgraph, symObjAddr: 0x30D30, symBinAddr: 0x81920, symSize: 0x770 }
  - { offset: 0x2D51DA, size: 0x8, addend: 0x0, symName: __ZN19llm_build_starcoderC2ERK11llama_modelRK16llm_graph_paramsP11ggml_cgraph, symObjAddr: 0x314A0, symBinAddr: 0x82090, symSize: 0x600 }
  - { offset: 0x2D591A, size: 0x8, addend: 0x0, symName: __ZN16llm_build_refactC2ERK11llama_modelRK16llm_graph_paramsP11ggml_cgraph, symObjAddr: 0x31AA0, symBinAddr: 0x82690, symSize: 0x4F0 }
  - { offset: 0x2D5F82, size: 0x8, addend: 0x0, symName: __ZN15llm_build_bloomC2ERK11llama_modelRK16llm_graph_paramsP11ggml_cgraph, symObjAddr: 0x32840, symBinAddr: 0x83430, symSize: 0x5C0 }
  - { offset: 0x2D6674, size: 0x8, addend: 0x0, symName: __ZN13llm_build_mptC2ERK11llama_modelRK16llm_graph_paramsP11ggml_cgraph, symObjAddr: 0x32E00, symBinAddr: 0x839F0, symSize: 0x730 }
  - { offset: 0x2D6E2C, size: 0x8, addend: 0x0, symName: __ZN18llm_build_stablelmC2ERK11llama_modelRK16llm_graph_paramsP11ggml_cgraph, symObjAddr: 0x33530, symBinAddr: 0x84120, symSize: 0x730 }
  - { offset: 0x2D75CE, size: 0x8, addend: 0x0, symName: __ZN14llm_build_qwenC2ERK11llama_modelRK16llm_graph_paramsP11ggml_cgraph, symObjAddr: 0x33C60, symBinAddr: 0x84850, symSize: 0x630 }
  - { offset: 0x2D7D07, size: 0x8, addend: 0x0, symName: __ZN15llm_build_qwen2C2ERK11llama_modelRK16llm_graph_paramsP11ggml_cgraph, symObjAddr: 0x34290, symBinAddr: 0x84E80, symSize: 0x650 }
  - { offset: 0x2D8464, size: 0x8, addend: 0x0, symName: __ZN17llm_build_qwen2vlC2ERK11llama_modelRK16llm_graph_paramsP11ggml_cgraph, symObjAddr: 0x348E0, symBinAddr: 0x854D0, symSize: 0x680 }
  - { offset: 0x2D8D41, size: 0x8, addend: 0x0, symName: __ZN18llm_build_qwen2moeC2ERK11llama_modelRK16llm_graph_paramsP11ggml_cgraph, symObjAddr: 0x34F60, symBinAddr: 0x85B50, symSize: 0x810 }
  - { offset: 0x2D959E, size: 0x8, addend: 0x0, symName: __ZN14llm_build_phi2C2ERK11llama_modelRK16llm_graph_paramsP11ggml_cgraph, symObjAddr: 0x35770, symBinAddr: 0x86360, symSize: 0x790 }
  - { offset: 0x2D9E1D, size: 0x8, addend: 0x0, symName: __ZN15llm_build_plamoC2ERK11llama_modelRK16llm_graph_paramsP11ggml_cgraph, symObjAddr: 0x36770, symBinAddr: 0x87360, symSize: 0x580 }
  - { offset: 0x2DA4C1, size: 0x8, addend: 0x0, symName: __ZN14llm_build_gpt2C2ERK11llama_modelRK16llm_graph_paramsP11ggml_cgraph, symObjAddr: 0x36CF0, symBinAddr: 0x878E0, symSize: 0x5F0 }
  - { offset: 0x2DAC00, size: 0x8, addend: 0x0, symName: __ZN19llm_build_codeshellC2ERK11llama_modelRK16llm_graph_paramsP11ggml_cgraph, symObjAddr: 0x372E0, symBinAddr: 0x87ED0, symSize: 0x670 }
  - { offset: 0x2DB343, size: 0x8, addend: 0x0, symName: __ZN15llm_build_orionC2ERK11llama_modelRK16llm_graph_paramsP11ggml_cgraph, symObjAddr: 0x37950, symBinAddr: 0x88540, symSize: 0x5D0 }
  - { offset: 0x2DB9F8, size: 0x8, addend: 0x0, symName: __ZN19llm_build_internlm2C2ERK11llama_modelRK16llm_graph_paramsP11ggml_cgraph, symObjAddr: 0x37F20, symBinAddr: 0x88B10, symSize: 0x680 }
  - { offset: 0x2DC13D, size: 0x8, addend: 0x0, symName: __ZN18llm_build_minicpm3C2ERK11llama_modelRK16llm_graph_paramsP11ggml_cgraph, symObjAddr: 0x385A0, symBinAddr: 0x89190, symSize: 0xBA0 }
  - { offset: 0x2DCD38, size: 0x8, addend: 0x0, symName: __ZN15llm_build_gemmaC2ERK11llama_modelRK16llm_graph_paramsP11ggml_cgraph, symObjAddr: 0x39140, symBinAddr: 0x89D30, symSize: 0x5E0 }
  - { offset: 0x2DD3F9, size: 0x8, addend: 0x0, symName: __ZN16llm_build_gemma2C2ERK11llama_modelRK16llm_graph_paramsP11ggml_cgraph, symObjAddr: 0x39720, symBinAddr: 0x8A310, symSize: 0x6F0 }
  - { offset: 0x2DDB44, size: 0x8, addend: 0x0, symName: __ZN16llm_build_gemma3C2ERK11llama_modelRK16llm_graph_paramsP11ggml_cgraph, symObjAddr: 0x39E10, symBinAddr: 0x8AA00, symSize: 0x6F0 }
  - { offset: 0x2DE2E9, size: 0x8, addend: 0x0, symName: __ZN20llm_build_starcoder2C2ERK11llama_modelRK16llm_graph_paramsP11ggml_cgraph, symObjAddr: 0x3A500, symBinAddr: 0x8B0F0, symSize: 0x690 }
  - { offset: 0x2DEA2E, size: 0x8, addend: 0x0, symName: __ZN15llm_build_mambaC2ERK11llama_modelRK16llm_graph_paramsP11ggml_cgraph, symObjAddr: 0x3AB90, symBinAddr: 0x8B780, symSize: 0x240 }
  - { offset: 0x2DEEDD, size: 0x8, addend: 0x0, symName: __ZN16llm_build_xverseC2ERK11llama_modelRK16llm_graph_paramsP11ggml_cgraph, symObjAddr: 0x3B530, symBinAddr: 0x8C120, symSize: 0x5C0 }
  - { offset: 0x2DF592, size: 0x8, addend: 0x0, symName: __ZN19llm_build_command_rC2ERK11llama_modelRK16llm_graph_paramsP11ggml_cgraph, symObjAddr: 0x3BAF0, symBinAddr: 0x8C6E0, symSize: 0x6F0 }
  - { offset: 0x2DFD43, size: 0x8, addend: 0x0, symName: __ZN17llm_build_cohere2C2ERK11llama_modelRK16llm_graph_paramsP11ggml_cgraph, symObjAddr: 0x3C1E0, symBinAddr: 0x8CDD0, symSize: 0x6D0 }
  - { offset: 0x2E053A, size: 0x8, addend: 0x0, symName: __ZN14llm_build_dbrxC2ERK11llama_modelRK16llm_graph_paramsP11ggml_cgraph, symObjAddr: 0x3C8B0, symBinAddr: 0x8D4A0, symSize: 0x670 }
  - { offset: 0x2E0C5F, size: 0x8, addend: 0x0, symName: __ZN14llm_build_olmoC2ERK11llama_modelRK16llm_graph_paramsP11ggml_cgraph, symObjAddr: 0x3CF20, symBinAddr: 0x8DB10, symSize: 0x680 }
  - { offset: 0x2E12FC, size: 0x8, addend: 0x0, symName: __ZN15llm_build_olmo2C2ERK11llama_modelRK16llm_graph_paramsP11ggml_cgraph, symObjAddr: 0x3D5A0, symBinAddr: 0x8E190, symSize: 0x660 }
  - { offset: 0x2E1A08, size: 0x8, addend: 0x0, symName: __ZN15llm_build_olmoeC2ERK11llama_modelRK16llm_graph_paramsP11ggml_cgraph, symObjAddr: 0x3DC00, symBinAddr: 0x8E7F0, symSize: 0x660 }
  - { offset: 0x2E2114, size: 0x8, addend: 0x0, symName: __ZN17llm_build_openelmC2ERK11llama_modelRK16llm_graph_paramsP11ggml_cgraph, symObjAddr: 0x3E260, symBinAddr: 0x8EE50, symSize: 0x6D0 }
  - { offset: 0x2E2884, size: 0x8, addend: 0x0, symName: __ZN17llm_build_gptneoxC2ERK11llama_modelRK16llm_graph_paramsP11ggml_cgraph, symObjAddr: 0x3E930, symBinAddr: 0x8F520, symSize: 0x7C0 }
  - { offset: 0x2E3072, size: 0x8, addend: 0x0, symName: __ZN16llm_build_arcticC2ERK11llama_modelRK16llm_graph_paramsP11ggml_cgraph, symObjAddr: 0x3F0F0, symBinAddr: 0x8FCE0, symSize: 0x6D0 }
  - { offset: 0x2E37A5, size: 0x8, addend: 0x0, symName: __ZN18llm_build_deepseekC2ERK11llama_modelRK16llm_graph_paramsP11ggml_cgraph, symObjAddr: 0x3F7C0, symBinAddr: 0x903B0, symSize: 0x850 }
  - { offset: 0x2E3FE7, size: 0x8, addend: 0x0, symName: __ZN19llm_build_deepseek2C2ERK11llama_modelRK16llm_graph_paramsP11ggml_cgraph, symObjAddr: 0x40010, symBinAddr: 0x90C00, symSize: 0xC50 }
  - { offset: 0x2E4B52, size: 0x8, addend: 0x0, symName: __ZN17llm_build_chatglmC2ERK11llama_modelRK16llm_graph_paramsP11ggml_cgraph, symObjAddr: 0x40C60, symBinAddr: 0x91850, symSize: 0x740 }
  - { offset: 0x2E538E, size: 0x8, addend: 0x0, symName: __ZN16llm_build_bitnetC2ERK11llama_modelRK16llm_graph_paramsP11ggml_cgraph, symObjAddr: 0x413A0, symBinAddr: 0x91F90, symSize: 0x860 }
  - { offset: 0x2E5CBF, size: 0x8, addend: 0x0, symName: __ZN16llm_build_t5_encC2ERK11llama_modelRK16llm_graph_paramsP11ggml_cgraph, symObjAddr: 0x41C00, symBinAddr: 0x927F0, symSize: 0x4F0 }
  - { offset: 0x2E634E, size: 0x8, addend: 0x0, symName: __ZN16llm_build_t5_decC2ERK11llama_modelRK16llm_graph_paramsP11ggml_cgraph, symObjAddr: 0x420F0, symBinAddr: 0x92CE0, symSize: 0x750 }
  - { offset: 0x2E6BEE, size: 0x8, addend: 0x0, symName: __ZN14llm_build_jaisC2ERK11llama_modelRK16llm_graph_paramsP11ggml_cgraph, symObjAddr: 0x42840, symBinAddr: 0x93430, symSize: 0x590 }
  - { offset: 0x2E72DB, size: 0x8, addend: 0x0, symName: __ZN18llm_build_nemotronC2ERK11llama_modelRK16llm_graph_paramsP11ggml_cgraph, symObjAddr: 0x42DD0, symBinAddr: 0x939C0, symSize: 0x680 }
  - { offset: 0x2E7A20, size: 0x8, addend: 0x0, symName: __ZN16llm_build_exaoneC2ERK11llama_modelRK16llm_graph_paramsP11ggml_cgraph, symObjAddr: 0x43450, symBinAddr: 0x94040, symSize: 0x710 }
  - { offset: 0x2E81F2, size: 0x8, addend: 0x0, symName: __ZN15llm_build_rwkv6C2ERK11llama_modelRK16llm_graph_paramsP11ggml_cgraph, symObjAddr: 0x43B60, symBinAddr: 0x94750, symSize: 0x6C0 }
  - { offset: 0x2E8B32, size: 0x8, addend: 0x0, symName: __ZN20llm_build_rwkv6qwen2C2ERK11llama_modelRK16llm_graph_paramsP11ggml_cgraph, symObjAddr: 0x44EE0, symBinAddr: 0x95AD0, symSize: 0x4F0 }
  - { offset: 0x2E928F, size: 0x8, addend: 0x0, symName: __ZN15llm_build_rwkv7C2ERK11llama_modelRK16llm_graph_paramsP11ggml_cgraph, symObjAddr: 0x453D0, symBinAddr: 0x95FC0, symSize: 0x6F0 }
  - { offset: 0x2E9C4E, size: 0x8, addend: 0x0, symName: __ZN16llm_build_arwkv7C2ERK11llama_modelRK16llm_graph_paramsP11ggml_cgraph, symObjAddr: 0x46410, symBinAddr: 0x97000, symSize: 0x510 }
  - { offset: 0x2EA3BB, size: 0x8, addend: 0x0, symName: __ZN19llm_build_chameleonC2ERK11llama_modelRK16llm_graph_paramsP11ggml_cgraph, symObjAddr: 0x46920, symBinAddr: 0x97510, symSize: 0x8F0 }
  - { offset: 0x2EACCA, size: 0x8, addend: 0x0, symName: __ZN26llm_build_wavtokenizer_decC2ERK11llama_modelRK16llm_graph_paramsP11ggml_cgraph, symObjAddr: 0x47210, symBinAddr: 0x97E00, symSize: 0x6C0 }
  - { offset: 0x2EB50A, size: 0x8, addend: 0x0, symName: __ZN13llm_build_plmC2ERK11llama_modelRK16llm_graph_paramsP11ggml_cgraph, symObjAddr: 0x478D0, symBinAddr: 0x984C0, symSize: 0x9A0 }
  - { offset: 0x2EBF2E, size: 0x8, addend: 0x0, symName: __ZN20llm_build_bailingmoeC2ERK11llama_modelRK16llm_graph_paramsP11ggml_cgraph, symObjAddr: 0x48270, symBinAddr: 0x98E60, symSize: 0x750 }
  - { offset: 0x2EC5CF, size: 0x8, addend: 0x0, symName: _llama_model_default_params, symObjAddr: 0x2AC60, symBinAddr: 0x7C630, symSize: 0x30 }
  - { offset: 0x2EC5FB, size: 0x8, addend: 0x0, symName: _llama_model_get_vocab, symObjAddr: 0x2AC90, symBinAddr: 0x7C660, symSize: 0x10 }
  - { offset: 0x2EC65A, size: 0x8, addend: 0x0, symName: _llama_free_model, symObjAddr: 0x2ACA0, symBinAddr: 0x7C670, symSize: 0x30 }
  - { offset: 0x2EC684, size: 0x8, addend: 0x0, symName: _llama_free_model, symObjAddr: 0x2ACA0, symBinAddr: 0x7C670, symSize: 0x30 }
  - { offset: 0x2EC6CC, size: 0x8, addend: 0x0, symName: _llama_model_free, symObjAddr: 0x2ACD0, symBinAddr: 0x7C6A0, symSize: 0x30 }
  - { offset: 0x2EC715, size: 0x8, addend: 0x0, symName: _llama_model_n_ctx_train, symObjAddr: 0x2AD00, symBinAddr: 0x7C6D0, symSize: 0x10 }
  - { offset: 0x2EC731, size: 0x8, addend: 0x0, symName: _llama_model_n_embd, symObjAddr: 0x2AD10, symBinAddr: 0x7C6E0, symSize: 0x10 }
  - { offset: 0x2EC74D, size: 0x8, addend: 0x0, symName: _llama_model_n_layer, symObjAddr: 0x2AD20, symBinAddr: 0x7C6F0, symSize: 0x10 }
  - { offset: 0x2EC769, size: 0x8, addend: 0x0, symName: _llama_model_n_head, symObjAddr: 0x2AD30, symBinAddr: 0x7C700, symSize: 0x10 }
  - { offset: 0x2EC787, size: 0x8, addend: 0x0, symName: _llama_model_n_head_kv, symObjAddr: 0x2AD40, symBinAddr: 0x7C710, symSize: 0x10 }
  - { offset: 0x2EC7CE, size: 0x8, addend: 0x0, symName: _llama_n_ctx_train, symObjAddr: 0x2AD50, symBinAddr: 0x7C720, symSize: 0x10 }
  - { offset: 0x2EC831, size: 0x8, addend: 0x0, symName: _llama_n_embd, symObjAddr: 0x2AD60, symBinAddr: 0x7C730, symSize: 0x10 }
  - { offset: 0x2EC894, size: 0x8, addend: 0x0, symName: _llama_n_layer, symObjAddr: 0x2AD70, symBinAddr: 0x7C740, symSize: 0x10 }
  - { offset: 0x2EC8F7, size: 0x8, addend: 0x0, symName: _llama_n_head, symObjAddr: 0x2AD80, symBinAddr: 0x7C750, symSize: 0x10 }
  - { offset: 0x2EC942, size: 0x8, addend: 0x0, symName: _llama_model_rope_freq_scale_train, symObjAddr: 0x2AD90, symBinAddr: 0x7C760, symSize: 0x10 }
  - { offset: 0x2EC99E, size: 0x8, addend: 0x0, symName: _llama_model_meta_val_str, symObjAddr: 0x2ADA0, symBinAddr: 0x7C770, symSize: 0x150 }
  - { offset: 0x2ED06C, size: 0x8, addend: 0x0, symName: __ZNKSt3__112__hash_tableINS_17__hash_value_typeINS_12basic_stringIcNS_11char_traitsIcEENS_9allocatorIcEEEES7_EENS_22__unordered_map_hasherIS7_S8_NS_4hashIS7_EENS_8equal_toIS7_EELb1EEENS_21__unordered_map_equalIS7_S8_SD_SB_Lb1EEENS5_IS8_EEE4findIS7_EENS_21__hash_const_iteratorIPNS_11__hash_nodeIS8_PvEEEERKT_, symObjAddr: 0x489C0, symBinAddr: 0x995B0, symSize: 0x289 }
  - { offset: 0x2ED3AB, size: 0x8, addend: 0x0, symName: _llama_model_meta_count, symObjAddr: 0x2AEF0, symBinAddr: 0x7C8C0, symSize: 0x10 }
  - { offset: 0x2ED47A, size: 0x8, addend: 0x0, symName: _llama_model_meta_key_by_index, symObjAddr: 0x2AF00, symBinAddr: 0x7C8D0, symSize: 0xB0 }
  - { offset: 0x2ED5CA, size: 0x8, addend: 0x0, symName: _llama_model_meta_val_str_by_index, symObjAddr: 0x2AFB0, symBinAddr: 0x7C980, symSize: 0xB0 }
  - { offset: 0x2ED733, size: 0x8, addend: 0x0, symName: _llama_model_desc, symObjAddr: 0x2B060, symBinAddr: 0x7CA30, symSize: 0x90 }
  - { offset: 0x2EDA36, size: 0x8, addend: 0x0, symName: _llama_model_size, symObjAddr: 0x2B0F0, symBinAddr: 0x7CAC0, symSize: 0x20 }
  - { offset: 0x2EDA9E, size: 0x8, addend: 0x0, symName: _llama_model_chat_template, symObjAddr: 0x2B110, symBinAddr: 0x7CAE0, symSize: 0xD0 }
  - { offset: 0x2EDE98, size: 0x8, addend: 0x0, symName: _llama_model_n_params, symObjAddr: 0x2B1E0, symBinAddr: 0x7CBB0, symSize: 0x10 }
  - { offset: 0x2EDF00, size: 0x8, addend: 0x0, symName: _llama_model_has_encoder, symObjAddr: 0x2B1F0, symBinAddr: 0x7CBC0, symSize: 0x20 }
  - { offset: 0x2EDF2B, size: 0x8, addend: 0x0, symName: _llama_model_has_decoder, symObjAddr: 0x2B210, symBinAddr: 0x7CBE0, symSize: 0x10 }
  - { offset: 0x2EDF56, size: 0x8, addend: 0x0, symName: _llama_model_decoder_start_token, symObjAddr: 0x2B220, symBinAddr: 0x7CBF0, symSize: 0x10 }
  - { offset: 0x2EDF81, size: 0x8, addend: 0x0, symName: _llama_model_is_recurrent, symObjAddr: 0x2B230, symBinAddr: 0x7CC00, symSize: 0x20 }
  - { offset: 0x2EDFAC, size: 0x8, addend: 0x0, symName: __Z29llama_internal_get_tensor_mapPK11llama_model, symObjAddr: 0x2B250, symBinAddr: 0x7CC20, symSize: 0x10 }
  - { offset: 0x2EE991, size: 0x8, addend: 0x0, symName: __ZNSt3__13mapI23llama_rope_scaling_typePKcNS_4lessIS1_EENS_9allocatorINS_4pairIKS1_S3_EEEEEC2B8ne190107ESt16initializer_listIS9_ERKS5_, symObjAddr: 0x2BA80, symBinAddr: 0x7CC50, symSize: 0x170 }
  - { offset: 0x2EF50D, size: 0x8, addend: 0x0, symName: __ZNSt3__16__treeINS_12__value_typeIP19ggml_backend_deviceNS_6vectorINS_4pairIS3_P24ggml_backend_buffer_typeEENS_9allocatorIS8_EEEEEENS_19__map_value_compareIS3_SC_NS_4lessIS3_EELb1EEENS9_ISC_EEE7destroyEPNS_11__tree_nodeISC_PvEE, symObjAddr: 0x2BEB0, symBinAddr: 0x7D080, symSize: 0x60 }
  - { offset: 0x2EFF90, size: 0x8, addend: 0x0, symName: __ZNSt3__14pairIKNS_12basic_stringIcNS_11char_traitsIcEENS_9allocatorIcEEEES6_EC2B8ne190107IRPKcRS7_TnNS_9enable_ifIXclsr10_CheckArgsE23__is_pair_constructibleIT_T0_EEEiE4typeELi0EEEOSF_OSG_, symObjAddr: 0x2C300, symBinAddr: 0x7D4A0, symSize: 0x100 }
  - { offset: 0x2F0B15, size: 0x8, addend: 0x0, symName: __ZNSt3__112__hash_tableINS_17__hash_value_typeINS_12basic_stringIcNS_11char_traitsIcEENS_9allocatorIcEEEES7_EENS_22__unordered_map_hasherIS7_S8_NS_4hashIS7_EENS_8equal_toIS7_EELb1EEENS_21__unordered_map_equalIS7_S8_SD_SB_Lb1EEENS5_IS8_EEE20__node_insert_uniqueEPNS_11__hash_nodeIS8_PvEE, symObjAddr: 0x2C100, symBinAddr: 0x7D2A0, symSize: 0x190 }
  - { offset: 0x2F0D80, size: 0x8, addend: 0x0, symName: __ZNSt3__110unique_ptrINS_11__hash_nodeINS_17__hash_value_typeINS_12basic_stringIcNS_11char_traitsIcEENS_9allocatorIcEEEES8_EEPvEENS_22__hash_node_destructorINS6_ISB_EEEEED1B8ne190107Ev, symObjAddr: 0x2C290, symBinAddr: 0x7D430, symSize: 0x70 }
  - { offset: 0x2F12CD, size: 0x8, addend: 0x0, symName: __ZNSt3__112__hash_tableINS_17__hash_value_typeINS_12basic_stringIcNS_11char_traitsIcEENS_9allocatorIcEEEES7_EENS_22__unordered_map_hasherIS7_S8_NS_4hashIS7_EENS_8equal_toIS7_EELb1EEENS_21__unordered_map_equalIS7_S8_SD_SB_Lb1EEENS5_IS8_EEE28__node_insert_unique_prepareB8ne190107EmRS8_, symObjAddr: 0x2C8B0, symBinAddr: 0x7D5A0, symSize: 0x440 }
  - { offset: 0x2F1974, size: 0x8, addend: 0x0, symName: __ZNSt3__112__hash_tableINS_17__hash_value_typeINS_12basic_stringIcNS_11char_traitsIcEENS_9allocatorIcEEEES7_EENS_22__unordered_map_hasherIS7_S8_NS_4hashIS7_EENS_8equal_toIS7_EELb1EEENS_21__unordered_map_equalIS7_S8_SD_SB_Lb1EEENS5_IS8_EEE11__do_rehashILb1EEEvm, symObjAddr: 0x2CCF0, symBinAddr: 0x7D9E0, symSize: 0x2B0 }
  - { offset: 0x2F25D2, size: 0x8, addend: 0x0, symName: __ZNKSt3__16vectorIN11llama_model4impl9layer_devENS_9allocatorIS3_EEE20__throw_length_errorB8ne190107Ev, symObjAddr: 0x2D410, symBinAddr: 0x7E070, symSize: 0x10 }
  - { offset: 0x2F292B, size: 0x8, addend: 0x0, symName: __ZNKSt3__16vectorI11llama_layerNS_9allocatorIS1_EEE20__throw_length_errorB8ne190107Ev, symObjAddr: 0x2D640, symBinAddr: 0x7E260, symSize: 0x10 }
  - { offset: 0x2F2CF2, size: 0x8, addend: 0x0, symName: __ZNSt3__112__hash_tableINS_17__hash_value_typeIjP19ggml_backend_bufferEENS_22__unordered_map_hasherIjS4_NS_4hashIjEENS_8equal_toIjEELb1EEENS_21__unordered_map_equalIjS4_S9_S7_Lb1EEENS_9allocatorIS4_EEED1Ev, symObjAddr: 0x2D850, symBinAddr: 0x7E450, symSize: 0x60 }
  - { offset: 0x2F3696, size: 0x8, addend: 0x0, symName: __ZNSt3__112__hash_tableINS_17__hash_value_typeIjP19ggml_backend_bufferEENS_22__unordered_map_hasherIjS4_NS_4hashIjEENS_8equal_toIjEELb1EEENS_21__unordered_map_equalIjS4_S9_S7_Lb1EEENS_9allocatorIS4_EEE25__emplace_unique_key_argsIjJRKNS_4pairIKjS3_EEEEENSH_INS_15__hash_iteratorIPNS_11__hash_nodeIS4_PvEEEEbEERKT_DpOT0_, symObjAddr: 0x2E2F0, symBinAddr: 0x7EEE0, symSize: 0x430 }
  - { offset: 0x2F40A1, size: 0x8, addend: 0x0, symName: __ZNKSt3__16vectorINS_4pairINS_12basic_stringIcNS_11char_traitsIcEENS_9allocatorIcEEEEP11ggml_tensorEENS5_ISA_EEE20__throw_length_errorB8ne190107Ev, symObjAddr: 0x2E950, symBinAddr: 0x7F540, symSize: 0x10 }
  - { offset: 0x2F40CB, size: 0x8, addend: 0x0, symName: '__ZNSt3__110__function6__funcIZNK11llama_model10print_infoEvE3$_1NS_9allocatorIS3_EEFjjEED1Ev', symObjAddr: 0x2E960, symBinAddr: 0x7F550, symSize: 0x10 }
  - { offset: 0x2F40D6, size: 0x8, addend: 0x0, symName: __ZNSt3__114__split_bufferINS_4pairINS_12basic_stringIcNS_11char_traitsIcEENS_9allocatorIcEEEEP11ggml_tensorEERNS5_ISA_EEED1Ev, symObjAddr: 0x2E8E0, symBinAddr: 0x7F4D0, symSize: 0x70 }
  - { offset: 0x2F4473, size: 0x8, addend: 0x0, symName: '__ZNSt3__110__function6__funcIZNK11llama_model10print_infoEvE3$_1NS_9allocatorIS3_EEFjjEED1Ev', symObjAddr: 0x2E960, symBinAddr: 0x7F550, symSize: 0x10 }
  - { offset: 0x2F449C, size: 0x8, addend: 0x0, symName: '__ZNSt3__110__function6__funcIZNK11llama_model10print_infoEvE3$_1NS_9allocatorIS3_EEFjjEED0Ev', symObjAddr: 0x2E970, symBinAddr: 0x7F560, symSize: 0x10 }
  - { offset: 0x2F469F, size: 0x8, addend: 0x0, symName: '__ZNKSt3__110__function6__funcIZNK11llama_model10print_infoEvE3$_1NS_9allocatorIS3_EEFjjEE7__cloneEv', symObjAddr: 0x2E980, symBinAddr: 0x7F570, symSize: 0x30 }
  - { offset: 0x2F4982, size: 0x8, addend: 0x0, symName: '__ZNKSt3__110__function6__funcIZNK11llama_model10print_infoEvE3$_1NS_9allocatorIS3_EEFjjEE7__cloneEPNS0_6__baseIS6_EE', symObjAddr: 0x2E9B0, symBinAddr: 0x7F5A0, symSize: 0x20 }
  - { offset: 0x2F4A87, size: 0x8, addend: 0x0, symName: '__ZNSt3__110__function6__funcIZNK11llama_model10print_infoEvE3$_1NS_9allocatorIS3_EEFjjEE7destroyEv', symObjAddr: 0x2E9D0, symBinAddr: 0x7F5C0, symSize: 0x10 }
  - { offset: 0x2F4AD6, size: 0x8, addend: 0x0, symName: '__ZNSt3__110__function6__funcIZNK11llama_model10print_infoEvE3$_1NS_9allocatorIS3_EEFjjEE18destroy_deallocateEv', symObjAddr: 0x2E9E0, symBinAddr: 0x7F5D0, symSize: 0x10 }
  - { offset: 0x2F4C23, size: 0x8, addend: 0x0, symName: '__ZNSt3__110__function6__funcIZNK11llama_model10print_infoEvE3$_1NS_9allocatorIS3_EEFjjEEclEOj', symObjAddr: 0x2E9F0, symBinAddr: 0x7F5E0, symSize: 0x20 }
  - { offset: 0x2F4CFB, size: 0x8, addend: 0x0, symName: '__ZNKSt3__110__function6__funcIZNK11llama_model10print_infoEvE3$_1NS_9allocatorIS3_EEFjjEE6targetERKSt9type_info', symObjAddr: 0x2EA10, symBinAddr: 0x7F600, symSize: 0x20 }
  - { offset: 0x2F4D6B, size: 0x8, addend: 0x0, symName: '__ZNKSt3__110__function6__funcIZNK11llama_model10print_infoEvE3$_1NS_9allocatorIS3_EEFjjEE11target_typeEv', symObjAddr: 0x2EA30, symBinAddr: 0x7F620, symSize: 0x10 }
  - { offset: 0x2F4D8E, size: 0x8, addend: 0x0, symName: '__ZNSt3__110__function6__funcIZNK11llama_model10print_infoEvE3$_2NS_9allocatorIS3_EEFjjEED1Ev', symObjAddr: 0x2EA40, symBinAddr: 0x7F630, symSize: 0x10 }
  - { offset: 0x2F4DB7, size: 0x8, addend: 0x0, symName: '__ZNSt3__110__function6__funcIZNK11llama_model10print_infoEvE3$_2NS_9allocatorIS3_EEFjjEED0Ev', symObjAddr: 0x2EA50, symBinAddr: 0x7F640, symSize: 0x10 }
  - { offset: 0x2F4FBA, size: 0x8, addend: 0x0, symName: '__ZNKSt3__110__function6__funcIZNK11llama_model10print_infoEvE3$_2NS_9allocatorIS3_EEFjjEE7__cloneEv', symObjAddr: 0x2EA60, symBinAddr: 0x7F650, symSize: 0x30 }
  - { offset: 0x2F529D, size: 0x8, addend: 0x0, symName: '__ZNKSt3__110__function6__funcIZNK11llama_model10print_infoEvE3$_2NS_9allocatorIS3_EEFjjEE7__cloneEPNS0_6__baseIS6_EE', symObjAddr: 0x2EA90, symBinAddr: 0x7F680, symSize: 0x20 }
  - { offset: 0x2F53A2, size: 0x8, addend: 0x0, symName: '__ZNSt3__110__function6__funcIZNK11llama_model10print_infoEvE3$_2NS_9allocatorIS3_EEFjjEE7destroyEv', symObjAddr: 0x2EAB0, symBinAddr: 0x7F6A0, symSize: 0x10 }
  - { offset: 0x2F53F1, size: 0x8, addend: 0x0, symName: '__ZNSt3__110__function6__funcIZNK11llama_model10print_infoEvE3$_2NS_9allocatorIS3_EEFjjEE18destroy_deallocateEv', symObjAddr: 0x2EAC0, symBinAddr: 0x7F6B0, symSize: 0x10 }
  - { offset: 0x2F553E, size: 0x8, addend: 0x0, symName: '__ZNSt3__110__function6__funcIZNK11llama_model10print_infoEvE3$_2NS_9allocatorIS3_EEFjjEEclEOj', symObjAddr: 0x2EAD0, symBinAddr: 0x7F6C0, symSize: 0x20 }
  - { offset: 0x2F55D1, size: 0x8, addend: 0x0, symName: '__ZNKSt3__110__function6__funcIZNK11llama_model10print_infoEvE3$_2NS_9allocatorIS3_EEFjjEE6targetERKSt9type_info', symObjAddr: 0x2EAF0, symBinAddr: 0x7F6E0, symSize: 0x20 }
  - { offset: 0x2F5641, size: 0x8, addend: 0x0, symName: '__ZNKSt3__110__function6__funcIZNK11llama_model10print_infoEvE3$_2NS_9allocatorIS3_EEFjjEE11target_typeEv', symObjAddr: 0x2EB10, symBinAddr: 0x7F700, symSize: 0x10 }
  - { offset: 0x2F5664, size: 0x8, addend: 0x0, symName: '__ZNSt3__110__function6__funcIZNK11llama_model10print_infoEvE3$_3NS_9allocatorIS3_EEFjjEED1Ev', symObjAddr: 0x2EB20, symBinAddr: 0x7F710, symSize: 0x10 }
  - { offset: 0x2F568D, size: 0x8, addend: 0x0, symName: '__ZNSt3__110__function6__funcIZNK11llama_model10print_infoEvE3$_3NS_9allocatorIS3_EEFjjEED0Ev', symObjAddr: 0x2EB30, symBinAddr: 0x7F720, symSize: 0x10 }
  - { offset: 0x2F5890, size: 0x8, addend: 0x0, symName: '__ZNKSt3__110__function6__funcIZNK11llama_model10print_infoEvE3$_3NS_9allocatorIS3_EEFjjEE7__cloneEv', symObjAddr: 0x2EB40, symBinAddr: 0x7F730, symSize: 0x30 }
  - { offset: 0x2F5B73, size: 0x8, addend: 0x0, symName: '__ZNKSt3__110__function6__funcIZNK11llama_model10print_infoEvE3$_3NS_9allocatorIS3_EEFjjEE7__cloneEPNS0_6__baseIS6_EE', symObjAddr: 0x2EB70, symBinAddr: 0x7F760, symSize: 0x20 }
  - { offset: 0x2F5C78, size: 0x8, addend: 0x0, symName: '__ZNSt3__110__function6__funcIZNK11llama_model10print_infoEvE3$_3NS_9allocatorIS3_EEFjjEE7destroyEv', symObjAddr: 0x2EB90, symBinAddr: 0x7F780, symSize: 0x10 }
  - { offset: 0x2F5CC7, size: 0x8, addend: 0x0, symName: '__ZNSt3__110__function6__funcIZNK11llama_model10print_infoEvE3$_3NS_9allocatorIS3_EEFjjEE18destroy_deallocateEv', symObjAddr: 0x2EBA0, symBinAddr: 0x7F790, symSize: 0x10 }
  - { offset: 0x2F5E14, size: 0x8, addend: 0x0, symName: '__ZNSt3__110__function6__funcIZNK11llama_model10print_infoEvE3$_3NS_9allocatorIS3_EEFjjEEclEOj', symObjAddr: 0x2EBB0, symBinAddr: 0x7F7A0, symSize: 0x20 }
  - { offset: 0x2F5EA7, size: 0x8, addend: 0x0, symName: '__ZNKSt3__110__function6__funcIZNK11llama_model10print_infoEvE3$_3NS_9allocatorIS3_EEFjjEE6targetERKSt9type_info', symObjAddr: 0x2EBD0, symBinAddr: 0x7F7C0, symSize: 0x20 }
  - { offset: 0x2F5F17, size: 0x8, addend: 0x0, symName: '__ZNKSt3__110__function6__funcIZNK11llama_model10print_infoEvE3$_3NS_9allocatorIS3_EEFjjEE11target_typeEv', symObjAddr: 0x2EBF0, symBinAddr: 0x7F7E0, symSize: 0x10 }
  - { offset: 0x2F5F3A, size: 0x8, addend: 0x0, symName: '__ZNSt3__110__function6__funcIZNK11llama_model10print_infoEvE3$_4NS_9allocatorIS3_EEFjjEED1Ev', symObjAddr: 0x2EC00, symBinAddr: 0x7F7F0, symSize: 0x10 }
  - { offset: 0x2F5F63, size: 0x8, addend: 0x0, symName: '__ZNSt3__110__function6__funcIZNK11llama_model10print_infoEvE3$_4NS_9allocatorIS3_EEFjjEED0Ev', symObjAddr: 0x2EC10, symBinAddr: 0x7F800, symSize: 0x10 }
  - { offset: 0x2F6166, size: 0x8, addend: 0x0, symName: '__ZNKSt3__110__function6__funcIZNK11llama_model10print_infoEvE3$_4NS_9allocatorIS3_EEFjjEE7__cloneEv', symObjAddr: 0x2EC20, symBinAddr: 0x7F810, symSize: 0x30 }
  - { offset: 0x2F6449, size: 0x8, addend: 0x0, symName: '__ZNKSt3__110__function6__funcIZNK11llama_model10print_infoEvE3$_4NS_9allocatorIS3_EEFjjEE7__cloneEPNS0_6__baseIS6_EE', symObjAddr: 0x2EC50, symBinAddr: 0x7F840, symSize: 0x20 }
  - { offset: 0x2F654E, size: 0x8, addend: 0x0, symName: '__ZNSt3__110__function6__funcIZNK11llama_model10print_infoEvE3$_4NS_9allocatorIS3_EEFjjEE7destroyEv', symObjAddr: 0x2EC70, symBinAddr: 0x7F860, symSize: 0x10 }
  - { offset: 0x2F659D, size: 0x8, addend: 0x0, symName: '__ZNSt3__110__function6__funcIZNK11llama_model10print_infoEvE3$_4NS_9allocatorIS3_EEFjjEE18destroy_deallocateEv', symObjAddr: 0x2EC80, symBinAddr: 0x7F870, symSize: 0x10 }
  - { offset: 0x2F66EA, size: 0x8, addend: 0x0, symName: '__ZNSt3__110__function6__funcIZNK11llama_model10print_infoEvE3$_4NS_9allocatorIS3_EEFjjEEclEOj', symObjAddr: 0x2EC90, symBinAddr: 0x7F880, symSize: 0x20 }
  - { offset: 0x2F677D, size: 0x8, addend: 0x0, symName: '__ZNKSt3__110__function6__funcIZNK11llama_model10print_infoEvE3$_4NS_9allocatorIS3_EEFjjEE6targetERKSt9type_info', symObjAddr: 0x2ECB0, symBinAddr: 0x7F8A0, symSize: 0x20 }
  - { offset: 0x2F67ED, size: 0x8, addend: 0x0, symName: '__ZNKSt3__110__function6__funcIZNK11llama_model10print_infoEvE3$_4NS_9allocatorIS3_EEFjjEE11target_typeEv', symObjAddr: 0x2ECD0, symBinAddr: 0x7F8C0, symSize: 0x10 }
  - { offset: 0x2F6810, size: 0x8, addend: 0x0, symName: '__ZNSt3__110__function6__funcIZNK11llama_model10print_infoEvE3$_5NS_9allocatorIS3_EEFjjEED1Ev', symObjAddr: 0x2ECE0, symBinAddr: 0x7F8D0, symSize: 0x10 }
  - { offset: 0x2F6839, size: 0x8, addend: 0x0, symName: '__ZNSt3__110__function6__funcIZNK11llama_model10print_infoEvE3$_5NS_9allocatorIS3_EEFjjEED0Ev', symObjAddr: 0x2ECF0, symBinAddr: 0x7F8E0, symSize: 0x10 }
  - { offset: 0x2F6A3C, size: 0x8, addend: 0x0, symName: '__ZNKSt3__110__function6__funcIZNK11llama_model10print_infoEvE3$_5NS_9allocatorIS3_EEFjjEE7__cloneEv', symObjAddr: 0x2ED00, symBinAddr: 0x7F8F0, symSize: 0x30 }
  - { offset: 0x2F6D1F, size: 0x8, addend: 0x0, symName: '__ZNKSt3__110__function6__funcIZNK11llama_model10print_infoEvE3$_5NS_9allocatorIS3_EEFjjEE7__cloneEPNS0_6__baseIS6_EE', symObjAddr: 0x2ED30, symBinAddr: 0x7F920, symSize: 0x20 }
  - { offset: 0x2F6E24, size: 0x8, addend: 0x0, symName: '__ZNSt3__110__function6__funcIZNK11llama_model10print_infoEvE3$_5NS_9allocatorIS3_EEFjjEE7destroyEv', symObjAddr: 0x2ED50, symBinAddr: 0x7F940, symSize: 0x10 }
  - { offset: 0x2F6E73, size: 0x8, addend: 0x0, symName: '__ZNSt3__110__function6__funcIZNK11llama_model10print_infoEvE3$_5NS_9allocatorIS3_EEFjjEE18destroy_deallocateEv', symObjAddr: 0x2ED60, symBinAddr: 0x7F950, symSize: 0x10 }
  - { offset: 0x2F6FC0, size: 0x8, addend: 0x0, symName: '__ZNSt3__110__function6__funcIZNK11llama_model10print_infoEvE3$_5NS_9allocatorIS3_EEFjjEEclEOj', symObjAddr: 0x2ED70, symBinAddr: 0x7F960, symSize: 0x20 }
  - { offset: 0x2F7053, size: 0x8, addend: 0x0, symName: '__ZNKSt3__110__function6__funcIZNK11llama_model10print_infoEvE3$_5NS_9allocatorIS3_EEFjjEE6targetERKSt9type_info', symObjAddr: 0x2ED90, symBinAddr: 0x7F980, symSize: 0x20 }
  - { offset: 0x2F70C3, size: 0x8, addend: 0x0, symName: '__ZNKSt3__110__function6__funcIZNK11llama_model10print_infoEvE3$_5NS_9allocatorIS3_EEFjjEE11target_typeEv', symObjAddr: 0x2EDB0, symBinAddr: 0x7F9A0, symSize: 0x10 }
  - { offset: 0x2F70E6, size: 0x8, addend: 0x0, symName: '__ZNSt3__110__function6__funcIZNK11llama_model10print_infoEvE3$_6NS_9allocatorIS3_EEFjjEED1Ev', symObjAddr: 0x2EDC0, symBinAddr: 0x7F9B0, symSize: 0x10 }
  - { offset: 0x2F710F, size: 0x8, addend: 0x0, symName: '__ZNSt3__110__function6__funcIZNK11llama_model10print_infoEvE3$_6NS_9allocatorIS3_EEFjjEED0Ev', symObjAddr: 0x2EDD0, symBinAddr: 0x7F9C0, symSize: 0x10 }
  - { offset: 0x2F7312, size: 0x8, addend: 0x0, symName: '__ZNKSt3__110__function6__funcIZNK11llama_model10print_infoEvE3$_6NS_9allocatorIS3_EEFjjEE7__cloneEv', symObjAddr: 0x2EDE0, symBinAddr: 0x7F9D0, symSize: 0x30 }
  - { offset: 0x2F75F5, size: 0x8, addend: 0x0, symName: '__ZNKSt3__110__function6__funcIZNK11llama_model10print_infoEvE3$_6NS_9allocatorIS3_EEFjjEE7__cloneEPNS0_6__baseIS6_EE', symObjAddr: 0x2EE10, symBinAddr: 0x7FA00, symSize: 0x20 }
  - { offset: 0x2F76FA, size: 0x8, addend: 0x0, symName: '__ZNSt3__110__function6__funcIZNK11llama_model10print_infoEvE3$_6NS_9allocatorIS3_EEFjjEE7destroyEv', symObjAddr: 0x2EE30, symBinAddr: 0x7FA20, symSize: 0x10 }
  - { offset: 0x2F7749, size: 0x8, addend: 0x0, symName: '__ZNSt3__110__function6__funcIZNK11llama_model10print_infoEvE3$_6NS_9allocatorIS3_EEFjjEE18destroy_deallocateEv', symObjAddr: 0x2EE40, symBinAddr: 0x7FA30, symSize: 0x10 }
  - { offset: 0x2F7896, size: 0x8, addend: 0x0, symName: '__ZNSt3__110__function6__funcIZNK11llama_model10print_infoEvE3$_6NS_9allocatorIS3_EEFjjEEclEOj', symObjAddr: 0x2EE50, symBinAddr: 0x7FA40, symSize: 0x20 }
  - { offset: 0x2F7929, size: 0x8, addend: 0x0, symName: '__ZNKSt3__110__function6__funcIZNK11llama_model10print_infoEvE3$_6NS_9allocatorIS3_EEFjjEE6targetERKSt9type_info', symObjAddr: 0x2EE70, symBinAddr: 0x7FA60, symSize: 0x20 }
  - { offset: 0x2F7999, size: 0x8, addend: 0x0, symName: '__ZNKSt3__110__function6__funcIZNK11llama_model10print_infoEvE3$_6NS_9allocatorIS3_EEFjjEE11target_typeEv', symObjAddr: 0x2EE90, symBinAddr: 0x7FA80, symSize: 0x10 }
  - { offset: 0x2F79BC, size: 0x8, addend: 0x0, symName: '__ZNSt3__110__function6__funcIZNK11llama_model13create_memoryEvE3$_0NS_9allocatorIS3_EEFP11ggml_tensorjiEED1Ev', symObjAddr: 0x2EEA0, symBinAddr: 0x7FA90, symSize: 0x10 }
  - { offset: 0x2F79E5, size: 0x8, addend: 0x0, symName: '__ZNSt3__110__function6__funcIZNK11llama_model13create_memoryEvE3$_0NS_9allocatorIS3_EEFP11ggml_tensorjiEED0Ev', symObjAddr: 0x2EEB0, symBinAddr: 0x7FAA0, symSize: 0x10 }
  - { offset: 0x2F7BE8, size: 0x8, addend: 0x0, symName: '__ZNKSt3__110__function6__funcIZNK11llama_model13create_memoryEvE3$_0NS_9allocatorIS3_EEFP11ggml_tensorjiEE7__cloneEv', symObjAddr: 0x2EEC0, symBinAddr: 0x7FAB0, symSize: 0x30 }
  - { offset: 0x2F7ECB, size: 0x8, addend: 0x0, symName: '__ZNKSt3__110__function6__funcIZNK11llama_model13create_memoryEvE3$_0NS_9allocatorIS3_EEFP11ggml_tensorjiEE7__cloneEPNS0_6__baseIS8_EE', symObjAddr: 0x2EEF0, symBinAddr: 0x7FAE0, symSize: 0x20 }
  - { offset: 0x2F7FD0, size: 0x8, addend: 0x0, symName: '__ZNSt3__110__function6__funcIZNK11llama_model13create_memoryEvE3$_0NS_9allocatorIS3_EEFP11ggml_tensorjiEE7destroyEv', symObjAddr: 0x2EF10, symBinAddr: 0x7FB00, symSize: 0x10 }
  - { offset: 0x2F801F, size: 0x8, addend: 0x0, symName: '__ZNSt3__110__function6__funcIZNK11llama_model13create_memoryEvE3$_0NS_9allocatorIS3_EEFP11ggml_tensorjiEE18destroy_deallocateEv', symObjAddr: 0x2EF20, symBinAddr: 0x7FB10, symSize: 0x10 }
  - { offset: 0x2F81B7, size: 0x8, addend: 0x0, symName: '__ZNSt3__110__function6__funcIZNK11llama_model13create_memoryEvE3$_0NS_9allocatorIS3_EEFP11ggml_tensorjiEEclEOjOi', symObjAddr: 0x2EF30, symBinAddr: 0x7FB20, symSize: 0x60 }
  - { offset: 0x2F8257, size: 0x8, addend: 0x0, symName: '__ZNKSt3__110__function6__funcIZNK11llama_model13create_memoryEvE3$_0NS_9allocatorIS3_EEFP11ggml_tensorjiEE6targetERKSt9type_info', symObjAddr: 0x2EF90, symBinAddr: 0x7FB80, symSize: 0x20 }
  - { offset: 0x2F82C7, size: 0x8, addend: 0x0, symName: '__ZNKSt3__110__function6__funcIZNK11llama_model13create_memoryEvE3$_0NS_9allocatorIS3_EEFP11ggml_tensorjiEE11target_typeEv', symObjAddr: 0x2EFB0, symBinAddr: 0x7FBA0, symSize: 0x10 }
  - { offset: 0x2F85AC, size: 0x8, addend: 0x0, symName: __ZNK15llm_build_mamba17build_mamba_layerEP11ggml_cgraphP11ggml_tensorS3_S3_RK12llama_ubatchi, symObjAddr: 0x3ADD0, symBinAddr: 0x8B9C0, symSize: 0x760 }
  - { offset: 0x2F8E8D, size: 0x8, addend: 0x0, symName: __ZNK20llm_build_rwkv6_base20build_rwkv6_time_mixEP11ggml_cgraphP11ggml_tensorS3_S3_S3_RK12llama_ubatchi, symObjAddr: 0x44220, symBinAddr: 0x94E10, symSize: 0xB90 }
  - { offset: 0x2F9ADB, size: 0x8, addend: 0x0, symName: __ZNK20llm_build_rwkv6_base23build_rwkv6_channel_mixEPK11llama_layerP11ggml_tensorS4_8llm_arch, symObjAddr: 0x44DB0, symBinAddr: 0x959A0, symSize: 0x130 }
  - { offset: 0x2F9E5C, size: 0x8, addend: 0x0, symName: __ZNK20llm_build_rwkv7_base20build_rwkv7_time_mixEP11ggml_cgraphP11ggml_tensorS3_S3_S3_RS3_RK12llama_ubatchi, symObjAddr: 0x45AC0, symBinAddr: 0x966B0, symSize: 0x950 }
  - { offset: 0x2FCD83, size: 0x8, addend: 0x0, symName: __ZL25llama_model_quantize_implRKNSt3__112basic_stringIcNS_11char_traitsIcEENS_9allocatorIcEEEES7_PK27llama_model_quantize_params, symObjAddr: 0x280, symBinAddr: 0x99B60, symSize: 0x5950 }
  - { offset: 0x31FAAF, size: 0x8, addend: 0x0, symName: '__ZNSt3__111__introsortINS_17_ClassicAlgPolicyERZL25llama_model_quantize_implRKNS_12basic_stringIcNS_11char_traitsIcEENS_9allocatorIcEEEES9_PK27llama_model_quantize_paramsE3$_0PPKN18llama_model_loader19llama_tensor_weightELb0EEEvT1_SK_T0_NS_15iterator_traitsISK_E15difference_typeEb', symObjAddr: 0x6850, symBinAddr: 0x9FED0, symSize: 0x910 }
  - { offset: 0x320727, size: 0x8, addend: 0x0, symName: '__ZNSt3__127__insertion_sort_incompleteB8ne190107INS_17_ClassicAlgPolicyERZL25llama_model_quantize_implRKNS_12basic_stringIcNS_11char_traitsIcEENS_9allocatorIcEEEES9_PK27llama_model_quantize_paramsE3$_0PPKN18llama_model_loader19llama_tensor_weightEEEbT1_SK_T0_', symObjAddr: 0x7310, symBinAddr: 0xA0990, symSize: 0x1F0 }
  - { offset: 0x331A4B, size: 0x8, addend: 0x0, symName: '__ZNSt3__17__sort3B8ne190107INS_17_ClassicAlgPolicyERZL25llama_model_quantize_implRKNS_12basic_stringIcNS_11char_traitsIcEENS_9allocatorIcEEEES9_PK27llama_model_quantize_paramsE3$_0PPKN18llama_model_loader19llama_tensor_weightEEEjT1_SK_SK_T0_', symObjAddr: 0x7270, symBinAddr: 0xA08F0, symSize: 0xA0 }
  - { offset: 0x331DA6, size: 0x8, addend: 0x0, symName: '__ZNSt3__124__sort5_maybe_branchlessB8ne190107INS_17_ClassicAlgPolicyERZL25llama_model_quantize_implRKNS_12basic_stringIcNS_11char_traitsIcEENS_9allocatorIcEEEES9_PK27llama_model_quantize_paramsE3$_0PPKN18llama_model_loader19llama_tensor_weightETnNS_9enable_ifIXntsr21__use_branchless_sortIT0_T1_EE5valueEiE4typeELi0EEEvSM_SM_SM_SM_SM_SL_', symObjAddr: 0x7160, symBinAddr: 0xA07E0, symSize: 0x110 }
  - { offset: 0x3326CF, size: 0x8, addend: 0x0, symName: '__ZNSt3__114__thread_proxyB8ne190107INS_5tupleIJNS_10unique_ptrINS_15__thread_structENS_14default_deleteIS3_EEEEZL28llama_tensor_dequantize_implP11ggml_tensorRNS_6vectorI7no_initIfENS_9allocatorISB_EEEERNS9_INS_6threadENSC_ISG_EEEEmiE3$_09ggml_typePhPfmEEEEEPvSP_', symObjAddr: 0x81B0, symBinAddr: 0xA12C0, symSize: 0xB0 }
  - { offset: 0x332B24, size: 0x8, addend: 0x0, symName: '__ZNSt3__114__thread_proxyB8ne190107INS_5tupleIJNS_10unique_ptrINS_15__thread_structENS_14default_deleteIS3_EEEEZL26llama_tensor_quantize_impl9ggml_typePKfPvxxxS9_RNS_6vectorINS_6threadENS_9allocatorISC_EEEEiE3$_0EEEEESA_SA_', symObjAddr: 0x83F0, symBinAddr: 0xA14C0, symSize: 0x90 }
  - { offset: 0x33666C, size: 0x8, addend: 0x0, symName: _llama_model_quantize_default_params, symObjAddr: 0x0, symBinAddr: 0x998E0, symSize: 0x40 }
  - { offset: 0x33696E, size: 0x8, addend: 0x0, symName: _llama_model_quantize, symObjAddr: 0x40, symBinAddr: 0x99920, symSize: 0x240 }
  - { offset: 0x33CEE8, size: 0x8, addend: 0x0, symName: __ZNSt3__16vectorINS_6threadENS_9allocatorIS1_EEE7reserveEm, symObjAddr: 0x5CC0, symBinAddr: 0x9F4B0, symSize: 0x1B0 }
  - { offset: 0x33D382, size: 0x8, addend: 0x0, symName: '__ZZL25llama_model_quantize_implRKNSt3__112basic_stringIcNS_11char_traitsIcEENS_9allocatorIcEEEES7_PK27llama_model_quantize_paramsENK3$_2clEi', symObjAddr: 0x5E70, symBinAddr: 0x9F660, symSize: 0x4B0 }
  - { offset: 0x33E41C, size: 0x8, addend: 0x0, symName: '__ZZL25llama_model_quantize_implRKNSt3__112basic_stringIcNS_11char_traitsIcEENS_9allocatorIcEEEES7_PK27llama_model_quantize_paramsENK3$_1clEv', symObjAddr: 0x6320, symBinAddr: 0x9FB10, symSize: 0x260 }
  - { offset: 0x33ED21, size: 0x8, addend: 0x0, symName: __ZNKSt3__112__hash_tableINS_17__hash_value_typeINS_12basic_stringIcNS_11char_traitsIcEENS_9allocatorIcEEEENS_6vectorIfNS5_IfEEEEEENS_22__unordered_map_hasherIS7_SB_NS_4hashIS7_EENS_8equal_toIS7_EELb1EEENS_21__unordered_map_equalIS7_SB_SG_SE_Lb1EEENS5_ISB_EEE4findIS7_EENS_21__hash_const_iteratorIPNS_11__hash_nodeISB_PvEEEERKT_, symObjAddr: 0x7930, symBinAddr: 0xA0EF0, symSize: 0x290 }
  - { offset: 0x33F023, size: 0x8, addend: 0x0, symName: __ZNSt3__16vectorI7no_initIfENS_9allocatorIS2_EEE8__appendEm, symObjAddr: 0x8070, symBinAddr: 0xA1180, symSize: 0x130 }
  - { offset: 0x33F3FE, size: 0x8, addend: 0x0, symName: __ZNKSt3__16vectorI7no_initIfENS_9allocatorIS2_EEE20__throw_length_errorB8ne190107Ev, symObjAddr: 0x81A0, symBinAddr: 0xA12B0, symSize: 0x10 }
  - { offset: 0x33F6F2, size: 0x8, addend: 0x0, symName: '__ZZL21llama_tensor_get_typeR19quantize_state_impl9ggml_typePK11ggml_tensor11llama_ftypeENK3$_1clEiiPKc', symObjAddr: 0x77F0, symBinAddr: 0xA0DB0, symSize: 0x140 }
  - { offset: 0x33F871, size: 0x8, addend: 0x0, symName: __ZN18llama_model_loaderD2Ev, symObjAddr: 0x84D0, symBinAddr: 0xA15A0, symSize: 0x230 }
  - { offset: 0x3407FD, size: 0x8, addend: 0x0, symName: __ZNKSt3__16vectorINS_6threadENS_9allocatorIS1_EEE20__throw_length_errorB8ne190107Ev, symObjAddr: 0x7500, symBinAddr: 0xA0B80, symSize: 0x10 }
  - { offset: 0x340827, size: 0x8, addend: 0x0, symName: __ZNSt3__114__split_bufferINS_6threadERNS_9allocatorIS1_EEED1Ev, symObjAddr: 0x7510, symBinAddr: 0xA0B90, symSize: 0x60 }
  - { offset: 0x340864, size: 0x8, addend: 0x0, symName: __ZNKSt3__16vectorIPKN18llama_model_loader19llama_tensor_weightENS_9allocatorIS4_EEE20__throw_length_errorB8ne190107Ev, symObjAddr: 0x6780, symBinAddr: 0x9FEC0, symSize: 0x10 }
  - { offset: 0x3408B1, size: 0x8, addend: 0x0, symName: '__ZZL21llama_tensor_get_typeR19quantize_state_impl9ggml_typePK11ggml_tensor11llama_ftypeENK3$_1clEiiPKc', symObjAddr: 0x77F0, symBinAddr: 0xA0DB0, symSize: 0x140 }
  - { offset: 0x3408BC, size: 0x8, addend: 0x0, symName: __ZNSt3__128__exception_guard_exceptionsINS_6vectorINS_10unique_ptrI12gguf_context20gguf_context_deleterEENS_9allocatorIS5_EEE16__destroy_vectorEED1B8ne190107Ev, symObjAddr: 0x7570, symBinAddr: 0xA0BF0, symSize: 0x90 }
  - { offset: 0x340ADA, size: 0x8, addend: 0x0, symName: '__ZNSt3__110unique_ptrINS_5tupleIJNS0_INS_15__thread_structENS_14default_deleteIS2_EEEEZL28llama_tensor_dequantize_implP11ggml_tensorRNS_6vectorI7no_initIfENS_9allocatorISA_EEEERNS8_INS_6threadENSB_ISF_EEEEmiE3$_09ggml_typePhPfmEEENS3_ISN_EEED1B8ne190107Ev', symObjAddr: 0x8260, symBinAddr: 0xA1370, symSize: 0x50 }
  - { offset: 0x340CDB, size: 0x8, addend: 0x0, symName: __ZNSt3__114__split_bufferINS_6threadERNS_9allocatorIS1_EEED1Ev, symObjAddr: 0x7510, symBinAddr: 0xA0B90, symSize: 0x60 }
  - { offset: 0x340E9A, size: 0x8, addend: 0x0, symName: '__ZNSt3__110unique_ptrINS_5tupleIJNS0_INS_15__thread_structENS_14default_deleteIS2_EEEEZL26llama_tensor_quantize_impl9ggml_typePKfPvxxxS8_RNS_6vectorINS_6threadENS_9allocatorISB_EEEEiE3$_0EEENS3_ISH_EEED1B8ne190107Ev', symObjAddr: 0x8480, symBinAddr: 0xA1550, symSize: 0x50 }
  - { offset: 0x341044, size: 0x8, addend: 0x0, symName: __ZNSt3__114basic_ofstreamIcNS_11char_traitsIcEEED1Ev, symObjAddr: 0x6580, symBinAddr: 0x9FD70, symSize: 0x50 }
  - { offset: 0x34108E, size: 0x8, addend: 0x0, symName: __ZNSt3__16vectorINS_10unique_ptrI12gguf_context20gguf_context_deleterEENS_9allocatorIS4_EEED1B8ne190107Ev, symObjAddr: 0x65D0, symBinAddr: 0x9FDC0, symSize: 0x90 }
  - { offset: 0x34129C, size: 0x8, addend: 0x0, symName: __ZNSt3__16vectorINS_6threadENS_9allocatorIS1_EEED1B8ne190107Ev, symObjAddr: 0x6660, symBinAddr: 0x9FE50, symSize: 0x70 }
  - { offset: 0x341CD6, size: 0x8, addend: 0x0, symName: __ZNSt3__114basic_ofstreamIcNS_11char_traitsIcEEEC1ERKNS_12basic_stringIcS2_NS_9allocatorIcEEEEj, symObjAddr: 0x7600, symBinAddr: 0xA0C80, symSize: 0x130 }
  - { offset: 0x343171, size: 0x8, addend: 0x0, symName: __ZNKSt3__16vectorI7no_initIfENS_9allocatorIS2_EEE20__throw_length_errorB8ne190107Ev, symObjAddr: 0x81A0, symBinAddr: 0xA12B0, symSize: 0x10 }
  - { offset: 0x34319B, size: 0x8, addend: 0x0, symName: '__ZNSt3__114__thread_proxyB8ne190107INS_5tupleIJNS_10unique_ptrINS_15__thread_structENS_14default_deleteIS3_EEEEZL28llama_tensor_dequantize_implP11ggml_tensorRNS_6vectorI7no_initIfENS_9allocatorISB_EEEERNS9_INS_6threadENSC_ISG_EEEEmiE3$_09ggml_typePhPfmEEEEEPvSP_', symObjAddr: 0x81B0, symBinAddr: 0xA12C0, symSize: 0xB0 }
  - { offset: 0x3433FD, size: 0x8, addend: 0x0, symName: '__ZZL26llama_tensor_quantize_impl9ggml_typePKfPvxxxS1_RNSt3__16vectorINS3_6threadENS3_9allocatorIS5_EEEEiENK3$_0clEv', symObjAddr: 0x82F0, symBinAddr: 0xA13C0, symSize: 0x100 }
  - { offset: 0x3460BD, size: 0x8, addend: 0x0, symName: __ZL21llama_sampler_chain_i, symObjAddr: 0x20550, symBinAddr: 0x22F208, symSize: 0x0 }
  - { offset: 0x3461FC, size: 0x8, addend: 0x0, symName: __ZL22llama_sampler_greedy_i, symObjAddr: 0x20580, symBinAddr: 0x22F238, symSize: 0x0 }
  - { offset: 0x34620A, size: 0x8, addend: 0x0, symName: __ZL12get_rng_seedj, symObjAddr: 0x810, symBinAddr: 0xA1FE0, symSize: 0x140 }
  - { offset: 0x346236, size: 0x8, addend: 0x0, symName: __ZZL12get_rng_seedjE10is_rd_prng, symObjAddr: 0x225560, symBinAddr: 0x296408, symSize: 0x0 }
  - { offset: 0x34664D, size: 0x8, addend: 0x0, symName: __ZL20llama_sampler_dist_i, symObjAddr: 0x205B0, symBinAddr: 0x22F268, symSize: 0x0 }
  - { offset: 0x346668, size: 0x8, addend: 0x0, symName: __ZL23llama_sampler_softmax_i, symObjAddr: 0x205E0, symBinAddr: 0x22F298, symSize: 0x0 }
  - { offset: 0x346683, size: 0x8, addend: 0x0, symName: __ZL21llama_sampler_top_k_i, symObjAddr: 0x20610, symBinAddr: 0x22F2C8, symSize: 0x0 }
  - { offset: 0x34669E, size: 0x8, addend: 0x0, symName: __ZL21llama_sampler_top_p_i, symObjAddr: 0x20640, symBinAddr: 0x22F2F8, symSize: 0x0 }
  - { offset: 0x3466B9, size: 0x8, addend: 0x0, symName: __ZL21llama_sampler_min_p_i, symObjAddr: 0x20670, symBinAddr: 0x22F328, symSize: 0x0 }
  - { offset: 0x3466D4, size: 0x8, addend: 0x0, symName: __ZL23llama_sampler_typical_i, symObjAddr: 0x206A0, symBinAddr: 0x22F358, symSize: 0x0 }
  - { offset: 0x35B992, size: 0x8, addend: 0x0, symName: '__ZNSt3__111__introsortINS_17_ClassicAlgPolicyERZL26llama_sampler_softmax_implP22llama_token_data_arrayE3$_0P16llama_token_dataLb0EEEvT1_S8_T0_NS_15iterator_traitsIS8_E15difference_typeEb', symObjAddr: 0x3910, symBinAddr: 0xA50D0, symSize: 0xFC0 }
  - { offset: 0x35D42D, size: 0x8, addend: 0x0, symName: '__ZNSt3__127__insertion_sort_incompleteB8ne190107INS_17_ClassicAlgPolicyERZL26llama_sampler_softmax_implP22llama_token_data_arrayE3$_0P16llama_token_dataEEbT1_S8_T0_', symObjAddr: 0x48D0, symBinAddr: 0xA6090, symSize: 0x4C0 }
  - { offset: 0x362708, size: 0x8, addend: 0x0, symName: '__ZNSt3__111__introsortINS_17_ClassicAlgPolicyERZL24llama_sampler_top_k_implP22llama_token_data_arrayiE3$_0P16llama_token_dataLb0EEEvT1_S8_T0_NS_15iterator_traitsIS8_E15difference_typeEb', symObjAddr: 0x62E0, symBinAddr: 0xA79D0, symSize: 0xD60 }
  - { offset: 0x363EF0, size: 0x8, addend: 0x0, symName: '__ZNSt3__127__insertion_sort_incompleteB8ne190107INS_17_ClassicAlgPolicyERZL24llama_sampler_top_k_implP22llama_token_data_arrayiE3$_0P16llama_token_dataEEbT1_S8_T0_', symObjAddr: 0x7040, symBinAddr: 0xA8730, symSize: 0x4C0 }
  - { offset: 0x3648EF, size: 0x8, addend: 0x0, symName: '__ZNSt3__111__introsortINS_17_ClassicAlgPolicyERZL25llama_sampler_min_p_applyP13llama_samplerP22llama_token_data_arrayE3$_0P16llama_token_dataLb0EEEvT1_SA_T0_NS_15iterator_traitsISA_E15difference_typeEb', symObjAddr: 0x7EC0, symBinAddr: 0xA95B0, symSize: 0xFC0 }
  - { offset: 0x366346, size: 0x8, addend: 0x0, symName: '__ZNSt3__127__insertion_sort_incompleteB8ne190107INS_17_ClassicAlgPolicyERZL25llama_sampler_min_p_applyP13llama_samplerP22llama_token_data_arrayE3$_0P16llama_token_dataEEbT1_SA_T0_', symObjAddr: 0x8E80, symBinAddr: 0xAA570, symSize: 0x4C0 }
  - { offset: 0x368D95, size: 0x8, addend: 0x0, symName: '__ZNSt3__111__introsortINS_17_ClassicAlgPolicyERZL27llama_sampler_typical_applyP13llama_samplerP22llama_token_data_arrayE3$_0PmLb0EEEvT1_S9_T0_NS_15iterator_traitsIS9_E15difference_typeEb', symObjAddr: 0x9FF0, symBinAddr: 0xAB6D0, symSize: 0xAF0 }
  - { offset: 0x36AA14, size: 0x8, addend: 0x0, symName: '__ZNSt3__127__insertion_sort_incompleteB8ne190107INS_17_ClassicAlgPolicyERZL27llama_sampler_typical_applyP13llama_samplerP22llama_token_data_arrayE3$_0PmEEbT1_S9_T0_', symObjAddr: 0xAC30, symBinAddr: 0xAC310, symSize: 0x320 }
  - { offset: 0x373D7F, size: 0x8, addend: 0x0, symName: __ZNSt3__113regex_replaceB8ne190107INS_20back_insert_iteratorINS_12basic_stringIcNS_11char_traitsIcEENS_9allocatorIcEEEEEEPKcNS_12regex_traitsIcEEcEET_SD_T0_SE_RKNS_11basic_regexIT2_T1_EEPKSG_NS_15regex_constants15match_flag_typeE, symObjAddr: 0x16900, symBinAddr: 0xB2890, symSize: 0x2E0 }
  - { offset: 0x376794, size: 0x8, addend: 0x0, symName: '__ZNSt3__17__sort4B8ne190107INS_17_ClassicAlgPolicyERZL26llama_sampler_softmax_implP22llama_token_data_arrayE3$_0P16llama_token_dataEEvT1_S8_S8_S8_T0_', symObjAddr: 0x4D90, symBinAddr: 0xA6550, symSize: 0x190 }
  - { offset: 0x377559, size: 0x8, addend: 0x0, symName: '__ZNSt3__119__partial_sort_implB8ne190107INS_17_ClassicAlgPolicyERZL24llama_sampler_top_k_implP22llama_token_data_arrayiE3$_0P16llama_token_dataS7_EET1_S8_S8_T2_OT0_', symObjAddr: 0x5E40, symBinAddr: 0xA7540, symSize: 0x470 }
  - { offset: 0x3780B3, size: 0x8, addend: 0x0, symName: '__ZNSt3__17__sort4B8ne190107INS_17_ClassicAlgPolicyERZL24llama_sampler_top_k_implP22llama_token_data_arrayiE3$_0P16llama_token_dataEEvT1_S8_S8_S8_T0_', symObjAddr: 0x7500, symBinAddr: 0xA8BF0, symSize: 0x190 }
  - { offset: 0x378EDF, size: 0x8, addend: 0x0, symName: '__ZNSt3__17__sort4B8ne190107INS_17_ClassicAlgPolicyERZL25llama_sampler_min_p_applyP13llama_samplerP22llama_token_data_arrayE3$_0P16llama_token_dataEEvT1_SA_SA_SA_T0_', symObjAddr: 0x9340, symBinAddr: 0xAAA30, symSize: 0x190 }
  - { offset: 0x37A1FF, size: 0x8, addend: 0x0, symName: '__ZNSt3__124__sort5_maybe_branchlessB8ne190107INS_17_ClassicAlgPolicyERZL27llama_sampler_typical_applyP13llama_samplerP22llama_token_data_arrayE3$_0PmTnNS_9enable_ifIXntsr21__use_branchless_sortIT0_T1_EE5valueEiE4typeELi0EEEvSB_SB_SB_SB_SB_SA_', symObjAddr: 0xAAE0, symBinAddr: 0xAC1C0, symSize: 0x150 }
  - { offset: 0x37F4DB, size: 0x8, addend: 0x0, symName: __ZL20llama_sampler_temp_i, symObjAddr: 0x206D0, symBinAddr: 0x22F388, symSize: 0x0 }
  - { offset: 0x37F4F6, size: 0x8, addend: 0x0, symName: __ZL24llama_sampler_temp_ext_i, symObjAddr: 0x20700, symBinAddr: 0x22F3B8, symSize: 0x0 }
  - { offset: 0x37F511, size: 0x8, addend: 0x0, symName: __ZL19llama_sampler_xtc_i, symObjAddr: 0x20730, symBinAddr: 0x22F3E8, symSize: 0x0 }
  - { offset: 0x37F52C, size: 0x8, addend: 0x0, symName: __ZL24llama_sampler_mirostat_i, symObjAddr: 0x20760, symBinAddr: 0x22F418, symSize: 0x0 }
  - { offset: 0x37F547, size: 0x8, addend: 0x0, symName: __ZL27llama_sampler_mirostat_v2_i, symObjAddr: 0x20790, symBinAddr: 0x22F448, symSize: 0x0 }
  - { offset: 0x37F555, size: 0x8, addend: 0x0, symName: __ZL31llama_sampler_init_grammar_implPK11llama_vocabPKcS3_bPS3_mPKimS4_m, symObjAddr: 0xE60, symBinAddr: 0xA2630, symSize: 0x670 }
  - { offset: 0x37F576, size: 0x8, addend: 0x0, symName: __ZZL31llama_sampler_init_grammar_implPK11llama_vocabPKcS3_bPS3_mPKimS4_mE13special_chars, symObjAddr: 0x225570, symBinAddr: 0x296418, symSize: 0x0 }
  - { offset: 0x38150E, size: 0x8, addend: 0x0, symName: __ZL23llama_sampler_grammar_i, symObjAddr: 0x208B0, symBinAddr: 0x22F568, symSize: 0x0 }
  - { offset: 0x381529, size: 0x8, addend: 0x0, symName: __ZL25llama_sampler_penalties_i, symObjAddr: 0x207C0, symBinAddr: 0x22F478, symSize: 0x0 }
  - { offset: 0x381549, size: 0x8, addend: 0x0, symName: __ZL27llama_sampler_top_n_sigma_i, symObjAddr: 0x207F0, symBinAddr: 0x22F4A8, symSize: 0x0 }
  - { offset: 0x381564, size: 0x8, addend: 0x0, symName: __ZL19llama_sampler_dry_i, symObjAddr: 0x20820, symBinAddr: 0x22F4D8, symSize: 0x0 }
  - { offset: 0x38157F, size: 0x8, addend: 0x0, symName: __ZL26llama_sampler_logit_bias_i, symObjAddr: 0x20850, symBinAddr: 0x22F508, symSize: 0x0 }
  - { offset: 0x38159A, size: 0x8, addend: 0x0, symName: __ZL22llama_sampler_infill_i, symObjAddr: 0x20880, symBinAddr: 0x22F538, symSize: 0x0 }
  - { offset: 0x382793, size: 0x8, addend: 0x0, symName: __ZL17llama_sample_distP22llama_token_data_arrayRNSt3__123mersenne_twister_engineIjLm32ELm624ELm397ELm31ELj2567483615ELm11ELj4294967295ELm7ELj2636928640ELm15ELj4022730752ELm18ELj1812433253EEE, symObjAddr: 0x36C0, symBinAddr: 0xA4E80, symSize: 0x250 }
  - { offset: 0x3849B6, size: 0x8, addend: 0x0, symName: _llama_sampler_init, symObjAddr: 0x0, symBinAddr: 0xA17D0, symSize: 0x30 }
  - { offset: 0x3849DD, size: 0x8, addend: 0x0, symName: _llama_sampler_name, symObjAddr: 0x30, symBinAddr: 0xA1800, symSize: 0x20 }
  - { offset: 0x384A14, size: 0x8, addend: 0x0, symName: _llama_sampler_accept, symObjAddr: 0x50, symBinAddr: 0xA1820, symSize: 0x20 }
  - { offset: 0x384A43, size: 0x8, addend: 0x0, symName: _llama_sampler_apply, symObjAddr: 0x70, symBinAddr: 0xA1840, symSize: 0x40 }
  - { offset: 0x384AA6, size: 0x8, addend: 0x0, symName: _llama_sampler_reset, symObjAddr: 0xB0, symBinAddr: 0xA1880, symSize: 0x20 }
  - { offset: 0x384AF5, size: 0x8, addend: 0x0, symName: _llama_sampler_clone, symObjAddr: 0xD0, symBinAddr: 0xA18A0, symSize: 0x60 }
  - { offset: 0x384B58, size: 0x8, addend: 0x0, symName: _llama_sampler_free, symObjAddr: 0x130, symBinAddr: 0xA1900, symSize: 0x30 }
  - { offset: 0x38501C, size: 0x8, addend: 0x0, symName: _llama_sampler_sample, symObjAddr: 0x160, symBinAddr: 0xA1930, symSize: 0x390 }
  - { offset: 0x385A52, size: 0x8, addend: 0x0, symName: __ZNKSt3__16vectorI16llama_token_dataNS_9allocatorIS1_EEE20__throw_length_errorB8ne190107Ev, symObjAddr: 0x62C0, symBinAddr: 0xA79B0, symSize: 0x10 }
  - { offset: 0x385A7C, size: 0x8, addend: 0x0, symName: __ZNKSt3__16vectorIP16llama_token_dataNS_9allocatorIS2_EEE20__throw_length_errorB8ne190107Ev, symObjAddr: 0x62D0, symBinAddr: 0xA79C0, symSize: 0x10 }
  - { offset: 0x385A87, size: 0x8, addend: 0x0, symName: _llama_sampler_chain_init, symObjAddr: 0x4F0, symBinAddr: 0xA1CC0, symSize: 0x50 }
  - { offset: 0x385E00, size: 0x8, addend: 0x0, symName: _llama_sampler_chain_add, symObjAddr: 0x540, symBinAddr: 0xA1D10, symSize: 0x120 }
  - { offset: 0x38620F, size: 0x8, addend: 0x0, symName: __ZNKSt3__16vectorIP13llama_samplerNS_9allocatorIS2_EEE20__throw_length_errorB8ne190107Ev, symObjAddr: 0x1F4D0, symBinAddr: 0xB8800, symSize: 0x10 }
  - { offset: 0x386244, size: 0x8, addend: 0x0, symName: _llama_sampler_chain_get, symObjAddr: 0x660, symBinAddr: 0xA1E30, symSize: 0x30 }
  - { offset: 0x3863E0, size: 0x8, addend: 0x0, symName: _llama_sampler_chain_remove, symObjAddr: 0x690, symBinAddr: 0xA1E60, symSize: 0x70 }
  - { offset: 0x38662E, size: 0x8, addend: 0x0, symName: _llama_sampler_chain_n, symObjAddr: 0x700, symBinAddr: 0xA1ED0, symSize: 0x20 }
  - { offset: 0x386688, size: 0x8, addend: 0x0, symName: _llama_sampler_init_greedy, symObjAddr: 0x720, symBinAddr: 0xA1EF0, symSize: 0x30 }
  - { offset: 0x38676E, size: 0x8, addend: 0x0, symName: _llama_sampler_init_dist, symObjAddr: 0x750, symBinAddr: 0xA1F20, symSize: 0xC0 }
  - { offset: 0x386A90, size: 0x8, addend: 0x0, symName: __ZNSt3__113random_deviceC1B8ne190107Ev, symObjAddr: 0x31C0, symBinAddr: 0xA4980, symSize: 0x70 }
  - { offset: 0x386E4C, size: 0x8, addend: 0x0, symName: _llama_sampler_init_softmax, symObjAddr: 0x950, symBinAddr: 0xA2120, symSize: 0x30 }
  - { offset: 0x386E8E, size: 0x8, addend: 0x0, symName: _llama_sampler_init_top_k, symObjAddr: 0x980, symBinAddr: 0xA2150, symSize: 0x40 }
  - { offset: 0x386ED2, size: 0x8, addend: 0x0, symName: _llama_sampler_init_top_p, symObjAddr: 0x9C0, symBinAddr: 0xA2190, symSize: 0x50 }
  - { offset: 0x386F1F, size: 0x8, addend: 0x0, symName: _llama_sampler_init_min_p, symObjAddr: 0xA10, symBinAddr: 0xA21E0, symSize: 0x50 }
  - { offset: 0x386F6C, size: 0x8, addend: 0x0, symName: _llama_sampler_init_typical, symObjAddr: 0xA60, symBinAddr: 0xA2230, symSize: 0x50 }
  - { offset: 0x386FB9, size: 0x8, addend: 0x0, symName: _llama_sampler_init_temp, symObjAddr: 0xAB0, symBinAddr: 0xA2280, symSize: 0x40 }
  - { offset: 0x386FFD, size: 0x8, addend: 0x0, symName: _llama_sampler_init_temp_ext, symObjAddr: 0xAF0, symBinAddr: 0xA22C0, symSize: 0x70 }
  - { offset: 0x387053, size: 0x8, addend: 0x0, symName: _llama_sampler_init_xtc, symObjAddr: 0xB60, symBinAddr: 0xA2330, symSize: 0xF0 }
  - { offset: 0x387175, size: 0x8, addend: 0x0, symName: _llama_sampler_init_mirostat, symObjAddr: 0xC50, symBinAddr: 0xA2420, symSize: 0x100 }
  - { offset: 0x3872A0, size: 0x8, addend: 0x0, symName: _llama_sampler_init_mirostat_v2, symObjAddr: 0xD50, symBinAddr: 0xA2520, symSize: 0xE0 }
  - { offset: 0x3873B9, size: 0x8, addend: 0x0, symName: _llama_sampler_init_grammar, symObjAddr: 0xE30, symBinAddr: 0xA2600, symSize: 0x30 }
  - { offset: 0x387852, size: 0x8, addend: 0x0, symName: __ZNSt3__111basic_regexIcNS_12regex_traitsIcEEEC2B8ne190107EPKcNS_15regex_constants18syntax_option_typeE, symObjAddr: 0xD4C0, symBinAddr: 0xAEB50, symSize: 0xC0 }
  - { offset: 0x387A33, size: 0x8, addend: 0x0, symName: _llama_sampler_init_grammar_lazy, symObjAddr: 0x14D0, symBinAddr: 0xA2CA0, symSize: 0x40 }
  - { offset: 0x387AF5, size: 0x8, addend: 0x0, symName: _llama_sampler_init_grammar_lazy_patterns, symObjAddr: 0x1510, symBinAddr: 0xA2CE0, symSize: 0x30 }
  - { offset: 0x387F8C, size: 0x8, addend: 0x0, symName: _llama_sampler_init_penalties, symObjAddr: 0x1540, symBinAddr: 0xA2D10, symSize: 0xF0 }
  - { offset: 0x38837F, size: 0x8, addend: 0x0, symName: _llama_sampler_init_top_n_sigma, symObjAddr: 0x1630, symBinAddr: 0xA2E00, symSize: 0x40 }
  - { offset: 0x389B36, size: 0x8, addend: 0x0, symName: _llama_sampler_init_dry, symObjAddr: 0x1670, symBinAddr: 0xA2E40, symSize: 0xFA0 }
  - { offset: 0x38D5EB, size: 0x8, addend: 0x0, symName: __ZNSt3__112__hash_tableINS_17__hash_value_typeIiNS_6vectorIiNS_9allocatorIiEEEEEENS_22__unordered_map_hasherIiS6_NS_4hashIiEENS_8equal_toIiEELb1EEENS_21__unordered_map_equalIiS6_SB_S9_Lb1EEENS3_IS6_EEE27__node_insert_multi_prepareEmRS6_, symObjAddr: 0x1BC20, symBinAddr: 0xB4F50, symSize: 0x3C0 }
  - { offset: 0x38D8FF, size: 0x8, addend: 0x0, symName: __ZNSt3__112__hash_tableINS_17__hash_value_typeIiNS_6vectorIiNS_9allocatorIiEEEEEENS_22__unordered_map_hasherIiS6_NS_4hashIiEENS_8equal_toIiEELb1EEENS_21__unordered_map_equalIiS6_SB_S9_Lb1EEENS3_IS6_EEE19__node_insert_multiEPNS_11__hash_nodeIS6_PvEE, symObjAddr: 0x1BA30, symBinAddr: 0xB4D60, symSize: 0x190 }
  - { offset: 0x38DB22, size: 0x8, addend: 0x0, symName: __ZNKSt3__16vectorI16llama_token_dataNS_9allocatorIS1_EEE20__throw_length_errorB8ne190107Ev, symObjAddr: 0x62C0, symBinAddr: 0xA79B0, symSize: 0x10 }
  - { offset: 0x38DB2D, size: 0x8, addend: 0x0, symName: __ZNSt3__113unordered_mapIiiNS_4hashIiEENS_8equal_toIiEENS_9allocatorINS_4pairIKiiEEEEED1B8ne190107Ev, symObjAddr: 0x2610, symBinAddr: 0xA3DE0, symSize: 0x60 }
  - { offset: 0x38DE35, size: 0x8, addend: 0x0, symName: __ZNSt3__118unordered_multimapIiNS_6vectorIiNS_9allocatorIiEEEENS_4hashIiEENS_8equal_toIiEENS2_INS_4pairIKiS4_EEEEED1B8ne190107Ev, symObjAddr: 0x2670, symBinAddr: 0xA3E40, symSize: 0x80 }
  - { offset: 0x38E342, size: 0x8, addend: 0x0, symName: __ZNSt3__110unique_ptrINS_11__hash_nodeINS_17__hash_value_typeIiNS_6vectorIiNS_9allocatorIiEEEEEEPvEENS_22__hash_node_destructorINS4_IS9_EEEEED1B8ne190107Ev, symObjAddr: 0x1BBC0, symBinAddr: 0xB4EF0, symSize: 0x60 }
  - { offset: 0x38EAB9, size: 0x8, addend: 0x0, symName: __Z30llama_sampler_init_dry_testingiffiiRKNSt3__16vectorINS0_IiNS_9allocatorIiEEEENS1_IS3_EEEE, symObjAddr: 0x26F0, symBinAddr: 0xA3EC0, symSize: 0x340 }
  - { offset: 0x38FD85, size: 0x8, addend: 0x0, symName: _llama_sampler_init_logit_bias, symObjAddr: 0x2A30, symBinAddr: 0xA4200, symSize: 0xE0 }
  - { offset: 0x3902A6, size: 0x8, addend: 0x0, symName: __ZNKSt3__16vectorI16llama_logit_biasNS_9allocatorIS1_EEE20__throw_length_errorB8ne190107Ev, symObjAddr: 0x1E800, symBinAddr: 0xB7B30, symSize: 0x10 }
  - { offset: 0x3902D0, size: 0x8, addend: 0x0, symName: __ZL25llama_sampler_infill_namePK13llama_sampler, symObjAddr: 0x1E810, symBinAddr: 0xB7B40, symSize: 0x10 }
  - { offset: 0x3904FA, size: 0x8, addend: 0x0, symName: _llama_sampler_init_infill, symObjAddr: 0x2B10, symBinAddr: 0xA42E0, symSize: 0xF0 }
  - { offset: 0x390ACD, size: 0x8, addend: 0x0, symName: _llama_sampler_get_seed, symObjAddr: 0x2C00, symBinAddr: 0xA43D0, symSize: 0x90 }
  - { offset: 0x390C61, size: 0x8, addend: 0x0, symName: _llama_perf_sampler, symObjAddr: 0x2C90, symBinAddr: 0xA4460, symSize: 0x60 }
  - { offset: 0x390D59, size: 0x8, addend: 0x0, symName: _llama_perf_sampler_print, symObjAddr: 0x2CF0, symBinAddr: 0xA44C0, symSize: 0x90 }
  - { offset: 0x390E3E, size: 0x8, addend: 0x0, symName: _llama_perf_sampler_reset, symObjAddr: 0x2D80, symBinAddr: 0xA4550, symSize: 0x50 }
  - { offset: 0x390E8B, size: 0x8, addend: 0x0, symName: __ZL24llama_sampler_chain_namePK13llama_sampler, symObjAddr: 0x2DD0, symBinAddr: 0xA45A0, symSize: 0x10 }
  - { offset: 0x390F04, size: 0x8, addend: 0x0, symName: __ZL26llama_sampler_chain_acceptP13llama_sampleri, symObjAddr: 0x2DE0, symBinAddr: 0xA45B0, symSize: 0x80 }
  - { offset: 0x39106F, size: 0x8, addend: 0x0, symName: __ZL25llama_sampler_chain_applyP13llama_samplerP22llama_token_data_array, symObjAddr: 0x2E60, symBinAddr: 0xA4630, symSize: 0xB0 }
  - { offset: 0x3911DE, size: 0x8, addend: 0x0, symName: __ZL25llama_sampler_chain_resetP13llama_sampler, symObjAddr: 0x2F10, symBinAddr: 0xA46E0, symSize: 0x60 }
  - { offset: 0x39137F, size: 0x8, addend: 0x0, symName: __ZL25llama_sampler_chain_clonePK13llama_sampler, symObjAddr: 0x2F70, symBinAddr: 0xA4740, symSize: 0xD0 }
  - { offset: 0x391601, size: 0x8, addend: 0x0, symName: __ZL24llama_sampler_chain_freeP13llama_sampler, symObjAddr: 0x3040, symBinAddr: 0xA4810, symSize: 0xA0 }
  - { offset: 0x3918BF, size: 0x8, addend: 0x0, symName: __ZL25llama_sampler_greedy_namePK13llama_sampler, symObjAddr: 0x30F0, symBinAddr: 0xA48B0, symSize: 0x10 }
  - { offset: 0x3918E8, size: 0x8, addend: 0x0, symName: __ZL26llama_sampler_greedy_applyP13llama_samplerP22llama_token_data_array, symObjAddr: 0x3100, symBinAddr: 0xA48C0, symSize: 0xC0 }
  - { offset: 0x391932, size: 0x8, addend: 0x0, symName: __ZL23llama_sampler_dist_namePK13llama_sampler, symObjAddr: 0x3230, symBinAddr: 0xA49F0, symSize: 0x10 }
  - { offset: 0x3919DA, size: 0x8, addend: 0x0, symName: __ZL24llama_sampler_dist_applyP13llama_samplerP22llama_token_data_array, symObjAddr: 0x3240, symBinAddr: 0xA4A00, symSize: 0x2E0 }
  - { offset: 0x391B53, size: 0x8, addend: 0x0, symName: __ZL24llama_sampler_dist_resetP13llama_sampler, symObjAddr: 0x3520, symBinAddr: 0xA4CE0, symSize: 0x90 }
  - { offset: 0x391B66, size: 0x8, addend: 0x0, symName: __ZL24llama_sampler_dist_resetP13llama_sampler, symObjAddr: 0x3520, symBinAddr: 0xA4CE0, symSize: 0x90 }
  - { offset: 0x391C2E, size: 0x8, addend: 0x0, symName: __ZL24llama_sampler_dist_clonePK13llama_sampler, symObjAddr: 0x35B0, symBinAddr: 0xA4D70, symSize: 0xF0 }
  - { offset: 0x391D8B, size: 0x8, addend: 0x0, symName: __ZL23llama_sampler_dist_freeP13llama_sampler, symObjAddr: 0x36A0, symBinAddr: 0xA4E60, symSize: 0x20 }
  - { offset: 0x39245F, size: 0x8, addend: 0x0, symName: __ZNSt3__121discrete_distributionIiE10param_type6__initEv, symObjAddr: 0x4F20, symBinAddr: 0xA66E0, symSize: 0x1F0 }
  - { offset: 0x392BBB, size: 0x8, addend: 0x0, symName: __ZNSt3__121discrete_distributionIiEclINS_23mersenne_twister_engineIjLm32ELm624ELm397ELm31ELj2567483615ELm11ELj4294967295ELm7ELj2636928640ELm15ELj4022730752ELm18ELj1812433253EEEEEiRT_RKNS1_10param_typeE, symObjAddr: 0x52B0, symBinAddr: 0xA69B0, symSize: 0x1D0 }
  - { offset: 0x392E7D, size: 0x8, addend: 0x0, symName: __ZNKSt3__16vectorIdNS_9allocatorIdEEE20__throw_length_errorB8ne190107Ev, symObjAddr: 0x5110, symBinAddr: 0xA68D0, symSize: 0x10 }
  - { offset: 0x393194, size: 0x8, addend: 0x0, symName: __ZNSt3__16vectorIdNS_9allocatorIdEEE13shrink_to_fitEv, symObjAddr: 0x51E0, symBinAddr: 0xA68E0, symSize: 0xD0 }
  - { offset: 0x3936A8, size: 0x8, addend: 0x0, symName: __ZL26llama_sampler_softmax_namePK13llama_sampler, symObjAddr: 0x5480, symBinAddr: 0xA6B80, symSize: 0x10 }
  - { offset: 0x3936D1, size: 0x8, addend: 0x0, symName: __ZL27llama_sampler_softmax_applyP13llama_samplerP22llama_token_data_array, symObjAddr: 0x5490, symBinAddr: 0xA6B90, symSize: 0x2A0 }
  - { offset: 0x393826, size: 0x8, addend: 0x0, symName: __ZL24llama_sampler_top_k_namePK13llama_sampler, symObjAddr: 0x5730, symBinAddr: 0xA6E30, symSize: 0x10 }
  - { offset: 0x39384F, size: 0x8, addend: 0x0, symName: __ZL25llama_sampler_top_k_applyP13llama_samplerP22llama_token_data_array, symObjAddr: 0x5740, symBinAddr: 0xA6E40, symSize: 0x20 }
  - { offset: 0x3938B1, size: 0x8, addend: 0x0, symName: __ZL24llama_sampler_top_k_implP22llama_token_data_arrayi, symObjAddr: 0x57C0, symBinAddr: 0xA6EC0, symSize: 0x680 }
  - { offset: 0x39516D, size: 0x8, addend: 0x0, symName: __ZL25llama_sampler_top_k_clonePK13llama_sampler, symObjAddr: 0x5760, symBinAddr: 0xA6E60, symSize: 0x40 }
  - { offset: 0x3951F0, size: 0x8, addend: 0x0, symName: __ZL24llama_sampler_top_k_freeP13llama_sampler, symObjAddr: 0x57A0, symBinAddr: 0xA6EA0, symSize: 0x20 }
  - { offset: 0x39584E, size: 0x8, addend: 0x0, symName: __ZNKSt3__16vectorIP16llama_token_dataNS_9allocatorIS2_EEE20__throw_length_errorB8ne190107Ev, symObjAddr: 0x62D0, symBinAddr: 0xA79C0, symSize: 0x10 }
  - { offset: 0x395878, size: 0x8, addend: 0x0, symName: '__ZNSt3__111__introsortINS_17_ClassicAlgPolicyERZL24llama_sampler_top_k_implP22llama_token_data_arrayiE3$_0P16llama_token_dataLb0EEEvT1_S8_T0_NS_15iterator_traitsIS8_E15difference_typeEb', symObjAddr: 0x62E0, symBinAddr: 0xA79D0, symSize: 0xD60 }
  - { offset: 0x3958C2, size: 0x8, addend: 0x0, symName: __ZL24llama_sampler_top_p_namePK13llama_sampler, symObjAddr: 0x7690, symBinAddr: 0xA8D80, symSize: 0x10 }
  - { offset: 0x3958EB, size: 0x8, addend: 0x0, symName: __ZL25llama_sampler_top_p_applyP13llama_samplerP22llama_token_data_array, symObjAddr: 0x76A0, symBinAddr: 0xA8D90, symSize: 0x330 }
  - { offset: 0x395ABD, size: 0x8, addend: 0x0, symName: __ZL25llama_sampler_top_p_clonePK13llama_sampler, symObjAddr: 0x79D0, symBinAddr: 0xA90C0, symSize: 0x60 }
  - { offset: 0x395B4B, size: 0x8, addend: 0x0, symName: __ZL24llama_sampler_top_p_freeP13llama_sampler, symObjAddr: 0x7A30, symBinAddr: 0xA9120, symSize: 0x20 }
  - { offset: 0x395B77, size: 0x8, addend: 0x0, symName: __ZL24llama_sampler_min_p_namePK13llama_sampler, symObjAddr: 0x7A50, symBinAddr: 0xA9140, symSize: 0x10 }
  - { offset: 0x395D10, size: 0x8, addend: 0x0, symName: __ZL25llama_sampler_min_p_applyP13llama_samplerP22llama_token_data_array, symObjAddr: 0x7A60, symBinAddr: 0xA9150, symSize: 0x3E0 }
  - { offset: 0x396771, size: 0x8, addend: 0x0, symName: __ZL25llama_sampler_min_p_clonePK13llama_sampler, symObjAddr: 0x7E40, symBinAddr: 0xA9530, symSize: 0x60 }
  - { offset: 0x3967FF, size: 0x8, addend: 0x0, symName: __ZL24llama_sampler_min_p_freeP13llama_sampler, symObjAddr: 0x7EA0, symBinAddr: 0xA9590, symSize: 0x20 }
  - { offset: 0x39686C, size: 0x8, addend: 0x0, symName: __ZL26llama_sampler_typical_namePK13llama_sampler, symObjAddr: 0x94D0, symBinAddr: 0xAABC0, symSize: 0x10 }
  - { offset: 0x396DC0, size: 0x8, addend: 0x0, symName: __ZL27llama_sampler_typical_applyP13llama_samplerP22llama_token_data_array, symObjAddr: 0x94E0, symBinAddr: 0xAABD0, symSize: 0xA70 }
  - { offset: 0x3987FB, size: 0x8, addend: 0x0, symName: __ZNKSt3__16vectorImNS_9allocatorImEEE20__throw_length_errorB8ne190107Ev, symObjAddr: 0x9FE0, symBinAddr: 0xAB6C0, symSize: 0x10 }
  - { offset: 0x398806, size: 0x8, addend: 0x0, symName: __ZNKSt3__16vectorImNS_9allocatorImEEE20__throw_length_errorB8ne190107Ev, symObjAddr: 0x9FE0, symBinAddr: 0xAB6C0, symSize: 0x10 }
  - { offset: 0x398830, size: 0x8, addend: 0x0, symName: '__ZNSt3__111__introsortINS_17_ClassicAlgPolicyERZL27llama_sampler_typical_applyP13llama_samplerP22llama_token_data_arrayE3$_0PmLb0EEEvT1_S9_T0_NS_15iterator_traitsIS9_E15difference_typeEb', symObjAddr: 0x9FF0, symBinAddr: 0xAB6D0, symSize: 0xAF0 }
  - { offset: 0x398862, size: 0x8, addend: 0x0, symName: __ZL27llama_sampler_typical_clonePK13llama_sampler, symObjAddr: 0x9F50, symBinAddr: 0xAB640, symSize: 0x60 }
  - { offset: 0x3988F0, size: 0x8, addend: 0x0, symName: __ZL26llama_sampler_typical_freeP13llama_sampler, symObjAddr: 0x9FB0, symBinAddr: 0xAB6A0, symSize: 0x20 }
  - { offset: 0x3989DB, size: 0x8, addend: 0x0, symName: __ZL23llama_sampler_temp_namePK13llama_sampler, symObjAddr: 0xAF50, symBinAddr: 0xAC630, symSize: 0x10 }
  - { offset: 0x398A5A, size: 0x8, addend: 0x0, symName: __ZL24llama_sampler_temp_applyP13llama_samplerP22llama_token_data_array, symObjAddr: 0xAF60, symBinAddr: 0xAC640, symSize: 0x270 }
  - { offset: 0x398B0E, size: 0x8, addend: 0x0, symName: __ZL24llama_sampler_temp_clonePK13llama_sampler, symObjAddr: 0xB1D0, symBinAddr: 0xAC8B0, symSize: 0x50 }
  - { offset: 0x398B95, size: 0x8, addend: 0x0, symName: __ZL23llama_sampler_temp_freeP13llama_sampler, symObjAddr: 0xB220, symBinAddr: 0xAC900, symSize: 0x20 }
  - { offset: 0x398BC1, size: 0x8, addend: 0x0, symName: __ZL27llama_sampler_temp_ext_namePK13llama_sampler, symObjAddr: 0xB240, symBinAddr: 0xAC920, symSize: 0x10 }
  - { offset: 0x398BEA, size: 0x8, addend: 0x0, symName: __ZL28llama_sampler_temp_ext_applyP13llama_samplerP22llama_token_data_array, symObjAddr: 0xB250, symBinAddr: 0xAC930, symSize: 0xB10 }
  - { offset: 0x398F36, size: 0x8, addend: 0x0, symName: __ZL28llama_sampler_temp_ext_clonePK13llama_sampler, symObjAddr: 0xBD60, symBinAddr: 0xAD440, symSize: 0x60 }
  - { offset: 0x398FBD, size: 0x8, addend: 0x0, symName: __ZL27llama_sampler_temp_ext_freeP13llama_sampler, symObjAddr: 0xBDC0, symBinAddr: 0xAD4A0, symSize: 0x20 }
  - { offset: 0x398FE9, size: 0x8, addend: 0x0, symName: __ZL22llama_sampler_xtc_namePK13llama_sampler, symObjAddr: 0xBDE0, symBinAddr: 0xAD4C0, symSize: 0x10 }
  - { offset: 0x399129, size: 0x8, addend: 0x0, symName: __ZL22llama_sample_xtc_applyP13llama_samplerP22llama_token_data_array, symObjAddr: 0xBDF0, symBinAddr: 0xAD4D0, symSize: 0x400 }
  - { offset: 0x3993F4, size: 0x8, addend: 0x0, symName: __ZL23llama_sampler_xtc_resetP13llama_sampler, symObjAddr: 0xC1F0, symBinAddr: 0xAD8D0, symSize: 0x90 }
  - { offset: 0x3994E0, size: 0x8, addend: 0x0, symName: __ZL23llama_sampler_xtc_clonePK13llama_sampler, symObjAddr: 0xC280, symBinAddr: 0xAD960, symSize: 0x110 }
  - { offset: 0x399644, size: 0x8, addend: 0x0, symName: __ZL22llama_sampler_xtc_freeP13llama_sampler, symObjAddr: 0xC390, symBinAddr: 0xADA70, symSize: 0x20 }
  - { offset: 0x399670, size: 0x8, addend: 0x0, symName: __ZL27llama_sampler_mirostat_namePK13llama_sampler, symObjAddr: 0xC3B0, symBinAddr: 0xADA90, symSize: 0x10 }
  - { offset: 0x399699, size: 0x8, addend: 0x0, symName: __ZL28llama_sampler_mirostat_applyP13llama_samplerP22llama_token_data_array, symObjAddr: 0xC3C0, symBinAddr: 0xADAA0, symSize: 0x6E0 }
  - { offset: 0x3999FD, size: 0x8, addend: 0x0, symName: __ZL28llama_sampler_mirostat_resetP13llama_sampler, symObjAddr: 0xCAA0, symBinAddr: 0xAE180, symSize: 0x90 }
  - { offset: 0x399A10, size: 0x8, addend: 0x0, symName: __ZL28llama_sampler_mirostat_resetP13llama_sampler, symObjAddr: 0xCAA0, symBinAddr: 0xAE180, symSize: 0x90 }
  - { offset: 0x399B08, size: 0x8, addend: 0x0, symName: __ZL28llama_sampler_mirostat_clonePK13llama_sampler, symObjAddr: 0xCB30, symBinAddr: 0xAE210, symSize: 0x130 }
  - { offset: 0x399C8B, size: 0x8, addend: 0x0, symName: __ZL27llama_sampler_mirostat_freeP13llama_sampler, symObjAddr: 0xCC60, symBinAddr: 0xAE340, symSize: 0x20 }
  - { offset: 0x399CB7, size: 0x8, addend: 0x0, symName: __ZL30llama_sampler_mirostat_v2_namePK13llama_sampler, symObjAddr: 0xCC80, symBinAddr: 0xAE360, symSize: 0x10 }
  - { offset: 0x399CE0, size: 0x8, addend: 0x0, symName: __ZL31llama_sampler_mirostat_v2_applyP13llama_samplerP22llama_token_data_array, symObjAddr: 0xCC90, symBinAddr: 0xAE370, symSize: 0x610 }
  - { offset: 0x39A07D, size: 0x8, addend: 0x0, symName: __ZL31llama_sampler_mirostat_v2_resetP13llama_sampler, symObjAddr: 0xD2A0, symBinAddr: 0xAE980, symSize: 0x90 }
  - { offset: 0x39A15D, size: 0x8, addend: 0x0, symName: __ZL31llama_sampler_mirostat_v2_clonePK13llama_sampler, symObjAddr: 0xD330, symBinAddr: 0xAEA10, symSize: 0x120 }
  - { offset: 0x39A2BA, size: 0x8, addend: 0x0, symName: __ZL30llama_sampler_mirostat_v2_freeP13llama_sampler, symObjAddr: 0xD450, symBinAddr: 0xAEB30, symSize: 0x20 }
  - { offset: 0x39A50A, size: 0x8, addend: 0x0, symName: __ZNSt3__111basic_regexIcNS_12regex_traitsIcEEE7__parseIPKcEET_S7_S7_, symObjAddr: 0xD5C0, symBinAddr: 0xAEC10, symSize: 0x320 }
  - { offset: 0x39B494, size: 0x8, addend: 0x0, symName: __ZNSt3__111basic_regexIcNS_12regex_traitsIcEEE13__parse_egrepIPKcEET_S7_S7_, symObjAddr: 0xDFF0, symBinAddr: 0xAF5F0, symSize: 0x1E0 }
  - { offset: 0x39BA27, size: 0x8, addend: 0x0, symName: __ZNSt3__111basic_regexIcNS_12regex_traitsIcEEE24__parse_extended_reg_expIPKcEET_S7_S7_, symObjAddr: 0xDC80, symBinAddr: 0xAF280, symSize: 0x190 }
  - { offset: 0x39BDA5, size: 0x8, addend: 0x0, symName: __ZNSt3__111basic_regexIcNS_12regex_traitsIcEEE21__parse_basic_reg_expIPKcEET_S7_S7_, symObjAddr: 0xDB20, symBinAddr: 0xAF120, symSize: 0x160 }
  - { offset: 0x39C0C7, size: 0x8, addend: 0x0, symName: __ZNSt3__111basic_regexIcNS_12regex_traitsIcEEE12__parse_grepIPKcEET_S7_S7_, symObjAddr: 0xDE10, symBinAddr: 0xAF410, symSize: 0x1E0 }
  - { offset: 0x39C65A, size: 0x8, addend: 0x0, symName: __ZNSt3__111basic_regexIcNS_12regex_traitsIcEEE19__parse_alternativeIPKcEET_S7_S7_, symObjAddr: 0xE400, symBinAddr: 0xAF7D0, symSize: 0x90 }
  - { offset: 0x39C7F6, size: 0x8, addend: 0x0, symName: __ZNSt3__111basic_regexIcNS_12regex_traitsIcEEE16__parse_ecma_expIPKcEET_S7_S7_, symObjAddr: 0xD930, symBinAddr: 0xAEF30, symSize: 0x1F0 }
  - { offset: 0x39CC62, size: 0x8, addend: 0x0, symName: __ZNSt3__111basic_regexIcNS_12regex_traitsIcEEE12__parse_termIPKcEET_S7_S7_, symObjAddr: 0xE490, symBinAddr: 0xAF860, symSize: 0x80 }
  - { offset: 0x39CEF4, size: 0x8, addend: 0x0, symName: __ZNSt3__111basic_regexIcNS_12regex_traitsIcEEE18__parse_nondupl_REIPKcEET_S7_S7_, symObjAddr: 0x15CC0, symBinAddr: 0xB1D50, symSize: 0x1F0 }
  - { offset: 0x39D45C, size: 0x8, addend: 0x0, symName: __ZNSt3__111basic_regexIcNS_12regex_traitsIcEEE22__parse_RE_dupl_symbolIPKcEET_S7_S7_PNS_16__owns_one_stateIcEEjj, symObjAddr: 0x15EB0, symBinAddr: 0xB1F40, symSize: 0x260 }
  - { offset: 0x39DA8C, size: 0x8, addend: 0x0, symName: __ZNSt3__111basic_regexIcNS_12regex_traitsIcEEE22__parse_ERE_expressionIPKcEET_S7_S7_, symObjAddr: 0x162F0, symBinAddr: 0xB2280, symSize: 0x260 }
  - { offset: 0x39DFD2, size: 0x8, addend: 0x0, symName: __ZNSt3__111basic_regexIcNS_12regex_traitsIcEEE23__parse_ERE_dupl_symbolIPKcEET_S7_S7_PNS_16__owns_one_stateIcEEjj, symObjAddr: 0xEAB0, symBinAddr: 0xAFE80, symSize: 0x3F0 }
  - { offset: 0x39E525, size: 0x8, addend: 0x0, symName: __ZNSt3__111basic_regexIcNS_12regex_traitsIcEEE17__parse_assertionIPKcEET_S7_S7_, symObjAddr: 0xE510, symBinAddr: 0xAF8E0, symSize: 0x2E0 }
  - { offset: 0x39EAE4, size: 0x8, addend: 0x0, symName: __ZNSt3__111basic_regexIcNS_12regex_traitsIcEEE12__parse_atomIPKcEET_S7_S7_, symObjAddr: 0xE7F0, symBinAddr: 0xAFBC0, symSize: 0x2C0 }
  - { offset: 0x39F2E8, size: 0x8, addend: 0x0, symName: __ZNSt3__111basic_regexIcNS_12regex_traitsIcEEE19__parse_atom_escapeIPKcEET_S7_S7_, symObjAddr: 0x107F0, symBinAddr: 0xB0270, symSize: 0x100 }
  - { offset: 0x39F471, size: 0x8, addend: 0x0, symName: __ZNSt3__111basic_regexIcNS_12regex_traitsIcEEE26__parse_bracket_expressionIPKcEET_S7_S7_, symObjAddr: 0x108F0, symBinAddr: 0xB0370, symSize: 0x140 }
  - { offset: 0x39F67A, size: 0x8, addend: 0x0, symName: __ZNSt3__111basic_regexIcNS_12regex_traitsIcEEE25__parse_pattern_characterIPKcEET_S7_S7_, symObjAddr: 0x10A80, symBinAddr: 0xB04B0, symSize: 0x1B0 }
  - { offset: 0x3A433E, size: 0x8, addend: 0x0, symName: __ZNSt3__111basic_regexIcNS_12regex_traitsIcEEE30__parse_character_class_escapeIPKcEET_S7_S7_, symObjAddr: 0x10CF0, symBinAddr: 0xB0660, symSize: 0x2E0 }
  - { offset: 0x3A48A6, size: 0x8, addend: 0x0, symName: __ZNSt3__111basic_regexIcNS_12regex_traitsIcEEE24__parse_character_escapeIPKcEET_S7_S7_PNS_12basic_stringIcNS_11char_traitsIcEENS_9allocatorIcEEEE, symObjAddr: 0x10FD0, symBinAddr: 0xB0940, symSize: 0x410 }
  - { offset: 0x3A5508, size: 0x8, addend: 0x0, symName: __ZNSt3__111basic_regexIcNS_12regex_traitsIcEEE23__parse_expression_termIPKcEET_S7_S7_PNS_20__bracket_expressionIcS2_EE, symObjAddr: 0x13370, symBinAddr: 0xB0D50, symSize: 0x4E0 }
  - { offset: 0x3A7BB6, size: 0x8, addend: 0x0, symName: __ZNSt3__111basic_regexIcNS_12regex_traitsIcEEE25__parse_equivalence_classIPKcEET_S7_S7_PNS_20__bracket_expressionIcS2_EE, symObjAddr: 0x13850, symBinAddr: 0xB1230, symSize: 0x260 }
  - { offset: 0x3A8756, size: 0x8, addend: 0x0, symName: __ZNSt3__111basic_regexIcNS_12regex_traitsIcEEE18__parse_awk_escapeIPKcEET_S7_S7_PNS_12basic_stringIcNS_11char_traitsIcEENS_9allocatorIcEEEE, symObjAddr: 0x13D20, symBinAddr: 0xB1700, symSize: 0x2E0 }
  - { offset: 0x3A87F6, size: 0x8, addend: 0x0, symName: __ZNKSt3__112regex_traitsIcE18__lookup_classnameIPKcEEjT_S5_bc, symObjAddr: 0x14D70, symBinAddr: 0xB1C20, symSize: 0x130 }
  - { offset: 0x3A8FC4, size: 0x8, addend: 0x0, symName: __ZNSt3__111basic_regexIcNS_12regex_traitsIcEEE24__parse_collating_symbolIPKcEET_S7_S7_RNS_12basic_stringIcNS_11char_traitsIcEENS_9allocatorIcEEEE, symObjAddr: 0x13AB0, symBinAddr: 0xB1490, symSize: 0xD0 }
  - { offset: 0x3A93C8, size: 0x8, addend: 0x0, symName: __ZNSt3__111basic_regexIcNS_12regex_traitsIcEEE20__parse_class_escapeIPKcEET_S7_S7_RNS_12basic_stringIcNS_11char_traitsIcEENS_9allocatorIcEEEEPNS_20__bracket_expressionIcS2_EE, symObjAddr: 0x13B80, symBinAddr: 0xB1560, symSize: 0x1A0 }
  - { offset: 0x3AA73E, size: 0x8, addend: 0x0, symName: __ZNKSt3__112regex_traitsIcE20__lookup_collatenameIPKcEENS_12basic_stringIcNS_11char_traitsIcEENS_9allocatorIcEEEET_SB_c, symObjAddr: 0x146E0, symBinAddr: 0xB19E0, symSize: 0x240 }
  - { offset: 0x3ADA25, size: 0x8, addend: 0x0, symName: __ZNSt3__111basic_regexIcNS_12regex_traitsIcEEE32__parse_one_char_or_coll_elem_REIPKcEET_S7_S7_, symObjAddr: 0x16110, symBinAddr: 0xB21A0, symSize: 0xE0 }
  - { offset: 0x3ADE8A, size: 0x8, addend: 0x0, symName: __ZNSt3__111basic_regexIcNS_12regex_traitsIcEEE20__parse_ORD_CHAR_EREIPKcEET_S7_S7_, symObjAddr: 0x16550, symBinAddr: 0xB24E0, symSize: 0x1B0 }
  - { offset: 0x3ADEE8, size: 0x8, addend: 0x0, symName: __ZNSt3__111basic_regexIcNS_12regex_traitsIcEEE23__parse_QUOTED_CHAR_EREIPKcEET_S7_S7_, symObjAddr: 0x16700, symBinAddr: 0xB2690, symSize: 0x200 }
  - { offset: 0x3AE62B, size: 0x8, addend: 0x0, symName: __ZNKSt3__113match_resultsIPKcNS_9allocatorINS_9sub_matchIS2_EEEEE6formatINS_20back_insert_iteratorINS_12basic_stringIcNS_11char_traitsIcEENS3_IcEEEEEEEET_SG_S2_S2_NS_15regex_constants15match_flag_typeE, symObjAddr: 0x16BE0, symBinAddr: 0xB2B70, symSize: 0x2F0 }
  - { offset: 0x3AECC6, size: 0x8, addend: 0x0, symName: __ZNSt3__114regex_iteratorIPKccNS_12regex_traitsIcEEEppEv, symObjAddr: 0x16ED0, symBinAddr: 0xB2E60, symSize: 0x100 }
  - { offset: 0x3B5A19, size: 0x8, addend: 0x0, symName: __ZL26llama_sampler_grammar_namePK13llama_sampler, symObjAddr: 0x19C30, symBinAddr: 0xB2F60, symSize: 0x10 }
  - { offset: 0x3B5A42, size: 0x8, addend: 0x0, symName: __ZL33llama_sampler_grammar_accept_implP13llama_sampleri, symObjAddr: 0x19C40, symBinAddr: 0xB2F70, symSize: 0x20 }
  - { offset: 0x3B5AB6, size: 0x8, addend: 0x0, symName: __ZL27llama_sampler_grammar_applyP13llama_samplerP22llama_token_data_array, symObjAddr: 0x19C60, symBinAddr: 0xB2F90, symSize: 0x20 }
  - { offset: 0x3B5FAA, size: 0x8, addend: 0x0, symName: __ZL27llama_sampler_grammar_resetP13llama_sampler, symObjAddr: 0x19C80, symBinAddr: 0xB2FB0, symSize: 0x2B0 }
  - { offset: 0x3B6ABB, size: 0x8, addend: 0x0, symName: __ZNKSt3__16vectorIPKcNS_9allocatorIS2_EEE20__throw_length_errorB8ne190107Ev, symObjAddr: 0x1A030, symBinAddr: 0xB3360, symSize: 0x10 }
  - { offset: 0x3B6AE5, size: 0x8, addend: 0x0, symName: __ZL28llama_sampler_penalties_namePK13llama_sampler, symObjAddr: 0x1A040, symBinAddr: 0xB3370, symSize: 0x10 }
  - { offset: 0x3B6BAF, size: 0x8, addend: 0x0, symName: __ZL27llama_sampler_grammar_clonePK13llama_sampler, symObjAddr: 0x19F30, symBinAddr: 0xB3260, symSize: 0xA0 }
  - { offset: 0x3B6D0C, size: 0x8, addend: 0x0, symName: __ZL26llama_sampler_grammar_freeP13llama_sampler, symObjAddr: 0x19FD0, symBinAddr: 0xB3300, symSize: 0x60 }
  - { offset: 0x3B704E, size: 0x8, addend: 0x0, symName: __ZL28llama_sampler_penalties_namePK13llama_sampler, symObjAddr: 0x1A040, symBinAddr: 0xB3370, symSize: 0x10 }
  - { offset: 0x3B710F, size: 0x8, addend: 0x0, symName: __ZL30llama_sampler_penalties_acceptP13llama_sampleri, symObjAddr: 0x1A050, symBinAddr: 0xB3380, symSize: 0x1B0 }
  - { offset: 0x3B7350, size: 0x8, addend: 0x0, symName: __ZNSt3__112__hash_tableINS_17__hash_value_typeIiiEENS_22__unordered_map_hasherIiS2_NS_4hashIiEENS_8equal_toIiEELb1EEENS_21__unordered_map_equalIiS2_S7_S5_Lb1EEENS_9allocatorIS2_EEE25__emplace_unique_key_argsIiJRKNS_21piecewise_construct_tENS_5tupleIJRKiEEENSI_IJEEEEEENS_4pairINS_15__hash_iteratorIPNS_11__hash_nodeIS2_PvEEEEbEERKT_DpOT0_, symObjAddr: 0x1A740, symBinAddr: 0xB3A70, symSize: 0x4A0 }
  - { offset: 0x3B7AC9, size: 0x8, addend: 0x0, symName: __ZNSt3__112__hash_tableINS_17__hash_value_typeIiiEENS_22__unordered_map_hasherIiS2_NS_4hashIiEENS_8equal_toIiEELb1EEENS_21__unordered_map_equalIiS2_S7_S5_Lb1EEENS_9allocatorIS2_EEE14__erase_uniqueIiEEmRKT_, symObjAddr: 0x1AE90, symBinAddr: 0xB41C0, symSize: 0x1A0 }
  - { offset: 0x3B7B43, size: 0x8, addend: 0x0, symName: __ZNSt3__112__hash_tableINS_17__hash_value_typeIiiEENS_22__unordered_map_hasherIiS2_NS_4hashIiEENS_8equal_toIiEELb1EEENS_21__unordered_map_equalIiS2_S7_S5_Lb1EEENS_9allocatorIS2_EEE14__erase_uniqueIiEEmRKT_, symObjAddr: 0x1AE90, symBinAddr: 0xB41C0, symSize: 0x1A0 }
  - { offset: 0x3B7B5F, size: 0x8, addend: 0x0, symName: __ZNSt3__112__hash_tableINS_17__hash_value_typeIiiEENS_22__unordered_map_hasherIiS2_NS_4hashIiEENS_8equal_toIiEELb1EEENS_21__unordered_map_equalIiS2_S7_S5_Lb1EEENS_9allocatorIS2_EEE14__erase_uniqueIiEEmRKT_, symObjAddr: 0x1AE90, symBinAddr: 0xB41C0, symSize: 0x1A0 }
  - { offset: 0x3B7EE2, size: 0x8, addend: 0x0, symName: __ZL29llama_sampler_penalties_applyP13llama_samplerP22llama_token_data_array, symObjAddr: 0x1A200, symBinAddr: 0xB3530, symSize: 0x280 }
  - { offset: 0x3B8111, size: 0x8, addend: 0x0, symName: __ZL29llama_sampler_penalties_resetP13llama_sampler, symObjAddr: 0x1A480, symBinAddr: 0xB37B0, symSize: 0xF0 }
  - { offset: 0x3B842F, size: 0x8, addend: 0x0, symName: __ZL29llama_sampler_penalties_clonePK13llama_sampler, symObjAddr: 0x1A570, symBinAddr: 0xB38A0, symSize: 0x140 }
  - { offset: 0x3B88F1, size: 0x8, addend: 0x0, symName: __ZNSt3__16vectorIiNS_9allocatorIiEEE18__assign_with_sizeB8ne190107IPiS5_EEvT_T0_l, symObjAddr: 0x1B220, symBinAddr: 0xB4550, symSize: 0x150 }
  - { offset: 0x3B9437, size: 0x8, addend: 0x0, symName: __ZL28llama_sampler_penalties_freeP13llama_sampler, symObjAddr: 0x1A6B0, symBinAddr: 0xB39E0, symSize: 0x90 }
  - { offset: 0x3B9D92, size: 0x8, addend: 0x0, symName: __ZNSt3__112__hash_tableINS_17__hash_value_typeIiiEENS_22__unordered_map_hasherIiS2_NS_4hashIiEENS_8equal_toIiEELb1EEENS_21__unordered_map_equalIiS2_S7_S5_Lb1EEENS_9allocatorIS2_EEE11__do_rehashILb1EEEvm, symObjAddr: 0x1ABE0, symBinAddr: 0xB3F10, symSize: 0x2B0 }
  - { offset: 0x3BA30C, size: 0x8, addend: 0x0, symName: __ZNSt3__112__hash_tableINS_17__hash_value_typeIiiEENS_22__unordered_map_hasherIiS2_NS_4hashIiEENS_8equal_toIiEELb1EEENS_21__unordered_map_equalIiS2_S7_S5_Lb1EEENS_9allocatorIS2_EEE6removeENS_21__hash_const_iteratorIPNS_11__hash_nodeIS2_PvEEEE, symObjAddr: 0x1B030, symBinAddr: 0xB4360, symSize: 0x1F0 }
  - { offset: 0x3BA7A7, size: 0x8, addend: 0x0, symName: __ZL30llama_sampler_top_n_sigma_namePK13llama_sampler, symObjAddr: 0x1B370, symBinAddr: 0xB46A0, symSize: 0x10 }
  - { offset: 0x3BA7D0, size: 0x8, addend: 0x0, symName: __ZL31llama_sampler_top_n_sigma_applyP13llama_samplerP22llama_token_data_array, symObjAddr: 0x1B380, symBinAddr: 0xB46B0, symSize: 0x640 }
  - { offset: 0x3BAA45, size: 0x8, addend: 0x0, symName: __ZL31llama_sampler_top_n_sigma_clonePK13llama_sampler, symObjAddr: 0x1B9C0, symBinAddr: 0xB4CF0, symSize: 0x50 }
  - { offset: 0x3BAACC, size: 0x8, addend: 0x0, symName: __ZL30llama_sampler_top_n_sigma_freeP13llama_sampler, symObjAddr: 0x1BA10, symBinAddr: 0xB4D40, symSize: 0x20 }
  - { offset: 0x3BAC2C, size: 0x8, addend: 0x0, symName: __ZNSt3__112__hash_tableINS_17__hash_value_typeIiNS_6vectorIiNS_9allocatorIiEEEEEENS_22__unordered_map_hasherIiS6_NS_4hashIiEENS_8equal_toIiEELb1EEENS_21__unordered_map_equalIiS6_SB_S9_Lb1EEENS3_IS6_EEE11__do_rehashILb0EEEvm, symObjAddr: 0x1BFE0, symBinAddr: 0xB5310, symSize: 0x2E0 }
  - { offset: 0x3BB1BC, size: 0x8, addend: 0x0, symName: __ZL22llama_sampler_dry_namePK13llama_sampler, symObjAddr: 0x1C2C0, symBinAddr: 0xB55F0, symSize: 0x10 }
  - { offset: 0x3BB1E5, size: 0x8, addend: 0x0, symName: __ZL24llama_sampler_dry_acceptP13llama_sampleri, symObjAddr: 0x1C2D0, symBinAddr: 0xB5600, symSize: 0x100 }
  - { offset: 0x3BB2B3, size: 0x8, addend: 0x0, symName: __ZL23llama_sampler_dry_applyP13llama_samplerP22llama_token_data_array, symObjAddr: 0x1C3D0, symBinAddr: 0xB5700, symSize: 0xEC0 }
  - { offset: 0x3BC2C7, size: 0x8, addend: 0x0, symName: __ZNSt3__16vectorIiNS_9allocatorIiEEE6assignEmRKi, symObjAddr: 0x1D510, symBinAddr: 0xB6840, symSize: 0x250 }
  - { offset: 0x3BC899, size: 0x8, addend: 0x0, symName: __ZL23llama_sampler_dry_resetP13llama_sampler, symObjAddr: 0x1D290, symBinAddr: 0xB65C0, symSize: 0x100 }
  - { offset: 0x3BCC60, size: 0x8, addend: 0x0, symName: __ZL23llama_sampler_dry_clonePK13llama_sampler, symObjAddr: 0x1D390, symBinAddr: 0xB66C0, symSize: 0x140 }
  - { offset: 0x3BCFC3, size: 0x8, addend: 0x0, symName: __ZNSt3__112__hash_tableINS_17__hash_value_typeIiNS_6vectorIiNS_9allocatorIiEEEEEENS_22__unordered_map_hasherIiS6_NS_4hashIiEENS_8equal_toIiEELb1EEENS_21__unordered_map_equalIiS6_SB_S9_Lb1EEENS3_IS6_EEE14__assign_multiINS_21__hash_const_iteratorIPNS_11__hash_nodeIS6_PvEEEEEEvT_SO_, symObjAddr: 0x1D760, symBinAddr: 0xB6A90, symSize: 0x1D0 }
  - { offset: 0x3BD690, size: 0x8, addend: 0x0, symName: __ZNSt3__112__hash_tableINS_17__hash_value_typeIiiEENS_22__unordered_map_hasherIiS2_NS_4hashIiEENS_8equal_toIiEELb1EEENS_21__unordered_map_equalIiS2_S7_S5_Lb1EEENS_9allocatorIS2_EEE14__assign_multiINS_21__hash_const_iteratorIPNS_11__hash_nodeIS2_PvEEEEEEvT_SL_, symObjAddr: 0x1DA80, symBinAddr: 0xB6DB0, symSize: 0x1B0 }
  - { offset: 0x3BDE3B, size: 0x8, addend: 0x0, symName: __ZL22llama_sampler_dry_freeP13llama_sampler, symObjAddr: 0x1D4D0, symBinAddr: 0xB6800, symSize: 0x40 }
  - { offset: 0x3BDE98, size: 0x8, addend: 0x0, symName: __ZN17llama_sampler_dryD2Ev, symObjAddr: 0x1E460, symBinAddr: 0xB7790, symSize: 0x100 }
  - { offset: 0x3BEC3A, size: 0x8, addend: 0x0, symName: __ZNSt3__112__hash_tableINS_17__hash_value_typeIiNS_6vectorIiNS_9allocatorIiEEEEEENS_22__unordered_map_hasherIiS6_NS_4hashIiEENS_8equal_toIiEELb1EEENS_21__unordered_map_equalIiS6_SB_S9_Lb1EEENS3_IS6_EEE16__construct_nodeIJRKNS_4pairIKiS5_EEEEENS_10unique_ptrINS_11__hash_nodeIS6_PvEENS_22__hash_node_destructorINS3_ISQ_EEEEEEDpOT_, symObjAddr: 0x1D990, symBinAddr: 0xB6CC0, symSize: 0xF0 }
  - { offset: 0x3BF394, size: 0x8, addend: 0x0, symName: __ZNSt3__112__hash_tableINS_17__hash_value_typeIiNS_6vectorIiNS_9allocatorIiEEEEEENS_22__unordered_map_hasherIiS6_NS_4hashIiEENS_8equal_toIiEELb1EEENS_21__unordered_map_equalIiS6_SB_S9_Lb1EEENS3_IS6_EEE17__deallocate_nodeEPNS_16__hash_node_baseIPNS_11__hash_nodeIS6_PvEEEE, symObjAddr: 0x1D930, symBinAddr: 0xB6C60, symSize: 0x60 }
  - { offset: 0x3BF9D2, size: 0x8, addend: 0x0, symName: __ZNSt3__112__hash_tableINS_17__hash_value_typeIiiEENS_22__unordered_map_hasherIiS2_NS_4hashIiEENS_8equal_toIiEELb1EEENS_21__unordered_map_equalIiS2_S7_S5_Lb1EEENS_9allocatorIS2_EEE19__node_insert_multiEPNS_11__hash_nodeIS2_PvEE, symObjAddr: 0x1DC30, symBinAddr: 0xB6F60, symSize: 0x190 }
  - { offset: 0x3BFC3B, size: 0x8, addend: 0x0, symName: __ZNSt3__112__hash_tableINS_17__hash_value_typeIiiEENS_22__unordered_map_hasherIiS2_NS_4hashIiEENS_8equal_toIiEELb1EEENS_21__unordered_map_equalIiS2_S7_S5_Lb1EEENS_9allocatorIS2_EEE27__node_insert_multi_prepareEmRS2_, symObjAddr: 0x1DDC0, symBinAddr: 0xB70F0, symSize: 0x3C0 }
  - { offset: 0x3BFFBB, size: 0x8, addend: 0x0, symName: __ZNSt3__112__hash_tableINS_17__hash_value_typeIiiEENS_22__unordered_map_hasherIiS2_NS_4hashIiEENS_8equal_toIiEELb1EEENS_21__unordered_map_equalIiS2_S7_S5_Lb1EEENS_9allocatorIS2_EEE11__do_rehashILb0EEEvm, symObjAddr: 0x1E180, symBinAddr: 0xB74B0, symSize: 0x2E0 }
  - { offset: 0x3C04CD, size: 0x8, addend: 0x0, symName: __ZL29llama_sampler_logit_bias_namePK13llama_sampler, symObjAddr: 0x1E560, symBinAddr: 0xB7890, symSize: 0x10 }
  - { offset: 0x3C07EC, size: 0x8, addend: 0x0, symName: __ZL30llama_sampler_logit_bias_applyP13llama_samplerP22llama_token_data_array, symObjAddr: 0x1E570, symBinAddr: 0xB78A0, symSize: 0x210 }
  - { offset: 0x3C0E69, size: 0x8, addend: 0x0, symName: __ZL30llama_sampler_logit_bias_clonePK13llama_sampler, symObjAddr: 0x1E780, symBinAddr: 0xB7AB0, symSize: 0x20 }
  - { offset: 0x3C0F49, size: 0x8, addend: 0x0, symName: __ZL29llama_sampler_logit_bias_freeP13llama_sampler, symObjAddr: 0x1E7A0, symBinAddr: 0xB7AD0, symSize: 0x60 }
  - { offset: 0x3C12CF, size: 0x8, addend: 0x0, symName: __ZL25llama_sampler_infill_namePK13llama_sampler, symObjAddr: 0x1E810, symBinAddr: 0xB7B40, symSize: 0x10 }
  - { offset: 0x3C140E, size: 0x8, addend: 0x0, symName: __ZL26llama_sampler_infill_applyP13llama_samplerP22llama_token_data_array, symObjAddr: 0x1E820, symBinAddr: 0xB7B50, symSize: 0xC30 }
  - { offset: 0x3C1CC4, size: 0x8, addend: 0x0, symName: __ZL26llama_sampler_infill_clonePK13llama_sampler, symObjAddr: 0x1F450, symBinAddr: 0xB8780, symSize: 0x20 }
  - { offset: 0x3C1D51, size: 0x8, addend: 0x0, symName: __ZL25llama_sampler_infill_freeP13llama_sampler, symObjAddr: 0x1F470, symBinAddr: 0xB87A0, symSize: 0x60 }
  - { offset: 0x3E687E, size: 0x8, addend: 0x0, symName: '__ZNSt3__111__introsortINS_17_ClassicAlgPolicyERZN11llama_vocab4impl4loadER18llama_model_loaderRK6LLM_KVE3$_0PiLb0EEEvT1_SC_T0_NS_15iterator_traitsISC_E15difference_typeEb', symObjAddr: 0x119E0, symBinAddr: 0xC9800, symSize: 0xDB0 }
  - { offset: 0x3E7EEE, size: 0x8, addend: 0x0, symName: '__ZNSt3__127__insertion_sort_incompleteB8ne190107INS_17_ClassicAlgPolicyERZN11llama_vocab4impl4loadER18llama_model_loaderRK6LLM_KVE3$_0PiEEbT1_SC_T0_', symObjAddr: 0x12A50, symBinAddr: 0xCA870, symSize: 0x280 }
  - { offset: 0x3EB349, size: 0x8, addend: 0x0, symName: __ZNSt3__18pop_heapB8ne190107INS_11__wrap_iterIP14llm_bigram_spmEENS2_10comparatorEEEvT_S6_T0_, symObjAddr: 0xDF70, symBinAddr: 0xC63E0, symSize: 0x1F0 }
  - { offset: 0x3EB95A, size: 0x8, addend: 0x0, symName: __ZNSt3__110__pop_heapB8ne190107INS_17_ClassicAlgPolicyEN14llm_bigram_bpe10comparatorENS_11__wrap_iterIPS2_EEEEvT1_S7_RT0_NS_15iterator_traitsIS7_E15difference_typeE, symObjAddr: 0xEB80, symBinAddr: 0xC6FE0, symSize: 0x260 }
  - { offset: 0x3EC522, size: 0x8, addend: 0x0, symName: __ZNSt3__1plB8ne190107IcNS_11char_traitsIcEENS_9allocatorIcEEEENS_12basic_stringIT_T0_T1_EERKS9_PKS6_, symObjAddr: 0xFDA0, symBinAddr: 0xC81E0, symSize: 0x110 }
  - { offset: 0x3ED15A, size: 0x8, addend: 0x0, symName: __ZNSt3__19__sift_upB8ne190107INS_17_ClassicAlgPolicyERN14llm_bigram_bpe10comparatorENS_11__wrap_iterIPS2_EEEEvT1_S8_OT0_NS_15iterator_traitsIS8_E15difference_typeE, symObjAddr: 0xE9F0, symBinAddr: 0xC6E50, symSize: 0x190 }
  - { offset: 0x3EED3F, size: 0x8, addend: 0x0, symName: '__ZNSt3__17__sort3B8ne190107INS_17_ClassicAlgPolicyERZN11llama_vocab4impl4loadER18llama_model_loaderRK6LLM_KVE3$_0PiEEjT1_SC_SC_T0_', symObjAddr: 0x12920, symBinAddr: 0xCA740, symSize: 0x130 }
  - { offset: 0x3EF266, size: 0x8, addend: 0x0, symName: '__ZNSt3__124__sort5_maybe_branchlessB8ne190107INS_17_ClassicAlgPolicyERZN11llama_vocab4impl4loadER18llama_model_loaderRK6LLM_KVE3$_0PiTnNS_9enable_ifIXntsr21__use_branchless_sortIT0_T1_EE5valueEiE4typeELi0EEEvSE_SE_SE_SE_SE_SD_', symObjAddr: 0x12790, symBinAddr: 0xCA5B0, symSize: 0x190 }
  - { offset: 0x3EF851, size: 0x8, addend: 0x0, symName: '__ZNSt3__17__sort4B8ne190107INS_17_ClassicAlgPolicyERZN11llama_vocab4impl4loadER18llama_model_loaderRK6LLM_KVE3$_0PiEEvT1_SC_SC_SC_T0_', symObjAddr: 0x12CD0, symBinAddr: 0xCAAF0, symSize: 0x130 }
  - { offset: 0x3F31A7, size: 0x8, addend: 0x0, symName: __ZNK11llama_vocab4impl14token_to_pieceEiPciib, symObjAddr: 0xA480, symBinAddr: 0xC2B30, symSize: 0x4A0 }
  - { offset: 0x3F3BAE, size: 0x8, addend: 0x0, symName: __ZNK11llama_vocab13byte_to_tokenEh, symObjAddr: 0x47F0, symBinAddr: 0xBCF30, symSize: 0x2A0 }
  - { offset: 0x3F7299, size: 0x8, addend: 0x0, symName: __ZN11llama_vocab4impl4loadER18llama_model_loaderRK6LLM_KV, symObjAddr: 0x0, symBinAddr: 0xB8810, symSize: 0x4580 }
  - { offset: 0x40380C, size: 0x8, addend: 0x0, symName: __ZNSt3__16vectorIN11llama_vocab10token_dataENS_9allocatorIS2_EEE8__appendEm, symObjAddr: 0xFFD0, symBinAddr: 0xC82F0, symSize: 0x1D0 }
  - { offset: 0x4041BA, size: 0x8, addend: 0x0, symName: __ZNSt3__16vectorIcNS_9allocatorIcEEE18__assign_with_sizeB8ne190107IPKcS6_EEvT_T0_l, symObjAddr: 0x10FB0, symBinAddr: 0xC8E20, symSize: 0x120 }
  - { offset: 0x404C98, size: 0x8, addend: 0x0, symName: __ZNSt3__112__hash_tableINS_17__hash_value_typeINS_12basic_stringIcNS_11char_traitsIcEENS_9allocatorIcEEEEiEENS_22__unordered_map_hasherIS7_S8_NS_4hashIS7_EENS_8equal_toIS7_EELb1EEENS_21__unordered_map_equalIS7_S8_SD_SB_Lb1EEENS5_IS8_EEE25__emplace_unique_key_argsIS7_JRKNS_21piecewise_construct_tENS_5tupleIJRKS7_EEENSN_IJEEEEEENS_4pairINS_15__hash_iteratorIPNS_11__hash_nodeIS8_PvEEEEbEERKT_DpOT0_, symObjAddr: 0x110E0, symBinAddr: 0xC8F40, symSize: 0x5C0 }
  - { offset: 0x4056D7, size: 0x8, addend: 0x0, symName: __ZN11llama_vocab4impl14init_tokenizerE16llama_vocab_type, symObjAddr: 0x4650, symBinAddr: 0xBCD90, symSize: 0x1A0 }
  - { offset: 0x4058EC, size: 0x8, addend: 0x0, symName: __ZNK11llama_vocab4impl8tokenizeERKNSt3__112basic_stringIcNS1_11char_traitsIcEENS1_9allocatorIcEEEEbb, symObjAddr: 0x4AA0, symBinAddr: 0xBD1D0, symSize: 0x1CD0 }
  - { offset: 0x40C6B0, size: 0x8, addend: 0x0, symName: __ZNK11llama_vocab4impl24token_to_piece_for_cacheEib, symObjAddr: 0x6770, symBinAddr: 0xBEEA0, symSize: 0x120 }
  - { offset: 0x40CB5C, size: 0x8, addend: 0x0, symName: __ZNSt3__112__hash_tableINS_17__hash_value_typeINS_12basic_stringIcNS_11char_traitsIcEENS_9allocatorIcEEEEiEENS_22__unordered_map_hasherIS7_S8_NS_4hashIS7_EENS_8equal_toIS7_EELb1EEENS_21__unordered_map_equalIS7_S8_SD_SB_Lb1EEENS5_IS8_EEE4findIS7_EENS_15__hash_iteratorIPNS_11__hash_nodeIS8_PvEEEERKT_, symObjAddr: 0x14CD0, symBinAddr: 0xCCAF0, symSize: 0x290 }
  - { offset: 0x40CFE9, size: 0x8, addend: 0x0, symName: __ZNSt3__112__hash_tableINS_17__hash_value_typeINS_4pairINS_12basic_stringIcNS_11char_traitsIcEENS_9allocatorIcEEEES8_EEiEENS_22__unordered_map_hasherIS9_SA_N11llama_vocab4impl9pair_hashENS_8equal_toIS9_EELb1EEENS_21__unordered_map_equalIS9_SA_SG_SE_Lb1EEENS6_ISA_EEE25__emplace_unique_key_argsIS9_JS9_RiEEENS2_INS_15__hash_iteratorIPNS_11__hash_nodeISA_PvEEEEbEERKT_DpOT0_, symObjAddr: 0x101B0, symBinAddr: 0xC84D0, symSize: 0x530 }
  - { offset: 0x40DA2A, size: 0x8, addend: 0x0, symName: __ZNSt3__16vectorI10llm_symbolNS_9allocatorIS1_EEE18__assign_with_sizeB8ne190107IPS1_S6_EEvT_T0_l, symObjAddr: 0xEDF0, symBinAddr: 0xC7240, symSize: 0x160 }
  - { offset: 0x40DA4D, size: 0x8, addend: 0x0, symName: __ZNSt3__16__treeINS_12__value_typeINS_12basic_stringIcNS_11char_traitsIcEENS_9allocatorIcEEEENS_4pairIiiEEEENS_19__map_value_compareIS7_SA_NS_4lessIS7_EELb1EEENS5_ISA_EEE7destroyEPNS_11__tree_nodeISA_PvEE, symObjAddr: 0xE280, symBinAddr: 0xC66E0, symSize: 0x50 }
  - { offset: 0x40DA58, size: 0x8, addend: 0x0, symName: __ZNKSt3__16vectorIN11llama_vocab10token_dataENS_9allocatorIS2_EEE20__throw_out_of_rangeB8ne190107Ev, symObjAddr: 0x12E00, symBinAddr: 0xCAC20, symSize: 0x10 }
  - { offset: 0x40DA82, size: 0x8, addend: 0x0, symName: __ZNSt3__128__exception_guard_exceptionsINS_29_AllocatorDestroyRangeReverseINS_9allocatorINS_12basic_stringIcNS_11char_traitsIcEENS2_IcEEEEEEPS7_EEED1B8ne190107Ev, symObjAddr: 0x12E10, symBinAddr: 0xCAC30, symSize: 0x50 }
  - { offset: 0x40DAC7, size: 0x8, addend: 0x0, symName: __ZNSt3__128__exception_guard_exceptionsINS_6vectorINS_12basic_stringIcNS_11char_traitsIcEENS_9allocatorIcEEEENS5_IS7_EEE16__destroy_vectorEED1B8ne190107Ev, symObjAddr: 0xF610, symBinAddr: 0xC7A60, symSize: 0x80 }
  - { offset: 0x40E276, size: 0x8, addend: 0x0, symName: __ZN18llm_tokenizer_rwkvC2ERK11llama_vocab, symObjAddr: 0x14890, symBinAddr: 0xCC6B0, symSize: 0x160 }
  - { offset: 0x40E8E4, size: 0x8, addend: 0x0, symName: __ZN17llm_tokenizer_ugmC2ERK11llama_vocabRKNSt3__16vectorIcNS3_9allocatorIcEEEE, symObjAddr: 0x142E0, symBinAddr: 0xCC100, symSize: 0x2D0 }
  - { offset: 0x40F324, size: 0x8, addend: 0x0, symName: __ZN17llm_tokenizer_bpeC2ERK11llama_vocab, symObjAddr: 0x12E80, symBinAddr: 0xCACA0, symSize: 0xFD0 }
  - { offset: 0x415078, size: 0x8, addend: 0x0, symName: __ZNK11llama_vocab4impl22tokenizer_st_partitionERNSt3__112forward_listI23fragment_buffer_variantNS1_9allocatorIS3_EEEEb, symObjAddr: 0x6E30, symBinAddr: 0xBF4E0, symSize: 0x780 }
  - { offset: 0x4169E8, size: 0x8, addend: 0x0, symName: __ZNK25llm_tokenizer_bpe_session10append_bosERNSt3__16vectorIiNS0_9allocatorIiEEEE, symObjAddr: 0x7A80, symBinAddr: 0xC0130, symSize: 0x160 }
  - { offset: 0x416E85, size: 0x8, addend: 0x0, symName: __ZN25llm_tokenizer_bpe_session8tokenizeERKNSt3__112basic_stringIcNS0_11char_traitsIcEENS0_9allocatorIcEEEERNS0_6vectorIiNS4_IiEEEE, symObjAddr: 0x7BE0, symBinAddr: 0xC0290, symSize: 0x1290 }
  - { offset: 0x41B394, size: 0x8, addend: 0x0, symName: __ZN26llm_tokenizer_rwkv_session8tokenizeERKNSt3__112basic_stringIcNS0_11char_traitsIcEENS0_9allocatorIcEEEERNS0_6vectorIiNS4_IiEEEE, symObjAddr: 0xA080, symBinAddr: 0xC2730, symSize: 0x390 }
  - { offset: 0x41C0A6, size: 0x8, addend: 0x0, symName: __ZNK25llm_tokenizer_bpe_session10append_eosERNSt3__16vectorIiNS0_9allocatorIiEEEE, symObjAddr: 0x8E70, symBinAddr: 0xC1520, symSize: 0x160 }
  - { offset: 0x41C543, size: 0x8, addend: 0x0, symName: __ZN25llm_tokenizer_wpm_session8tokenizeERKNSt3__112basic_stringIcNS0_11char_traitsIcEENS0_9allocatorIcEEEERNS0_6vectorIiNS4_IiEEEE, symObjAddr: 0x9080, symBinAddr: 0xC1730, symSize: 0x780 }
  - { offset: 0x41E199, size: 0x8, addend: 0x0, symName: __ZN25llm_tokenizer_spm_session8tokenizeERKNSt3__112basic_stringIcNS0_11char_traitsIcEENS0_9allocatorIcEEEERNS0_6vectorIiNS4_IiEEEE, symObjAddr: 0x7650, symBinAddr: 0xBFD00, symSize: 0x3D0 }
  - { offset: 0x41E949, size: 0x8, addend: 0x0, symName: __ZNSt3__16__treeINS_12__value_typeINS_12basic_stringIcNS_11char_traitsIcEENS_9allocatorIcEEEENS_4pairIiiEEEENS_19__map_value_compareIS7_SA_NS_4lessIS7_EELb1EEENS5_ISA_EEE7destroyEPNS_11__tree_nodeISA_PvEE, symObjAddr: 0xE280, symBinAddr: 0xC66E0, symSize: 0x50 }
  - { offset: 0x41EC7A, size: 0x8, addend: 0x0, symName: __ZN25llm_tokenizer_ugm_session8tokenizeERKNSt3__112basic_stringIcNS0_11char_traitsIcEENS0_9allocatorIcEEEERNS0_6vectorIiNS4_IiEEEE, symObjAddr: 0x9800, symBinAddr: 0xC1EB0, symSize: 0x880 }
  - { offset: 0x42023D, size: 0x8, addend: 0x0, symName: __ZN25llm_tokenizer_spm_sessionD1Ev, symObjAddr: 0x7A20, symBinAddr: 0xC00D0, symSize: 0x60 }
  - { offset: 0x420673, size: 0x8, addend: 0x0, symName: __ZN25llm_tokenizer_bpe_sessionD1Ev, symObjAddr: 0x8FD0, symBinAddr: 0xC1680, symSize: 0xB0 }
  - { offset: 0x420DA2, size: 0x8, addend: 0x0, symName: __ZNSt3__112forward_listI23fragment_buffer_variantNS_9allocatorIS1_EEED1Ev, symObjAddr: 0xA410, symBinAddr: 0xC2AC0, symSize: 0x70 }
  - { offset: 0x4211A6, size: 0x8, addend: 0x0, symName: __ZNK11llama_vocab4impl8get_typeEv, symObjAddr: 0x6910, symBinAddr: 0xBEFC0, symSize: 0x10 }
  - { offset: 0x4211C6, size: 0x8, addend: 0x0, symName: __ZNK11llama_vocab4impl9type_nameEv, symObjAddr: 0x6920, symBinAddr: 0xBEFD0, symSize: 0xF0 }
  - { offset: 0x421830, size: 0x8, addend: 0x0, symName: __ZNK11llama_vocab4impl9is_normalEi, symObjAddr: 0x6A10, symBinAddr: 0xBF0C0, symSize: 0x50 }
  - { offset: 0x421897, size: 0x8, addend: 0x0, symName: __ZNK11llama_vocab4impl10is_unknownEi, symObjAddr: 0x6A60, symBinAddr: 0xBF110, symSize: 0x50 }
  - { offset: 0x4218FE, size: 0x8, addend: 0x0, symName: __ZNK11llama_vocab4impl10is_controlEi, symObjAddr: 0x6AB0, symBinAddr: 0xBF160, symSize: 0x50 }
  - { offset: 0x421965, size: 0x8, addend: 0x0, symName: __ZNK11llama_vocab4impl7is_byteEi, symObjAddr: 0x6B00, symBinAddr: 0xBF1B0, symSize: 0x50 }
  - { offset: 0x4219CC, size: 0x8, addend: 0x0, symName: __ZNK11llama_vocab4impl15is_user_definedEi, symObjAddr: 0x6B50, symBinAddr: 0xBF200, symSize: 0x50 }
  - { offset: 0x421A33, size: 0x8, addend: 0x0, symName: __ZNK11llama_vocab4impl9is_unusedEi, symObjAddr: 0x6BA0, symBinAddr: 0xBF250, symSize: 0x50 }
  - { offset: 0x421A9A, size: 0x8, addend: 0x0, symName: __ZNK11llama_vocab4impl6is_eogEi, symObjAddr: 0x6BF0, symBinAddr: 0xBF2A0, symSize: 0x40 }
  - { offset: 0x421B7B, size: 0x8, addend: 0x0, symName: __ZNK11llama_vocab4impl13token_to_byteEi, symObjAddr: 0x6C30, symBinAddr: 0xBF2E0, symSize: 0x1A0 }
  - { offset: 0x421F18, size: 0x8, addend: 0x0, symName: __ZNK11llama_vocab4impl14token_get_attrEi, symObjAddr: 0x6DD0, symBinAddr: 0xBF480, symSize: 0x60 }
  - { offset: 0x4225D1, size: 0x8, addend: 0x0, symName: __ZNK11llama_vocab14get_token_dataEi, symObjAddr: 0x75B0, symBinAddr: 0xBFC60, symSize: 0x60 }
  - { offset: 0x422671, size: 0x8, addend: 0x0, symName: __ZNK11llama_vocab14token_to_pieceEiPciib, symObjAddr: 0x7610, symBinAddr: 0xBFCC0, symSize: 0x10 }
  - { offset: 0x422711, size: 0x8, addend: 0x0, symName: __ZNSt3__112basic_stringIcNS_11char_traitsIcEENS_9allocatorIcEEEpLB8ne190107ERKS5_, symObjAddr: 0x7620, symBinAddr: 0xBFCD0, symSize: 0x30 }
  - { offset: 0x422B3F, size: 0x8, addend: 0x0, symName: __ZN25llm_tokenizer_spm_session14try_add_bigramEii, symObjAddr: 0xD1B0, symBinAddr: 0xC5860, symSize: 0x240 }
  - { offset: 0x4233A7, size: 0x8, addend: 0x0, symName: __ZN25llm_tokenizer_spm_session9resegmentER10llm_symbolRNSt3__16vectorIiNS2_9allocatorIiEEEE, symObjAddr: 0xD3F0, symBinAddr: 0xC5AA0, symSize: 0x490 }
  - { offset: 0x42472E, size: 0x8, addend: 0x0, symName: __ZNKSt3__16vectorI10llm_symbolNS_9allocatorIS1_EEE20__throw_length_errorB8ne190107Ev, symObjAddr: 0xD880, symBinAddr: 0xC5F30, symSize: 0x10 }
  - { offset: 0x424FC4, size: 0x8, addend: 0x0, symName: __ZN25llm_tokenizer_bpe_session14add_new_bigramEii, symObjAddr: 0xE2D0, symBinAddr: 0xC6730, symSize: 0x460 }
  - { offset: 0x426607, size: 0x8, addend: 0x0, symName: __ZNSt3__16vectorI10llm_symbolNS_9allocatorIS1_EEE18__assign_with_sizeB8ne190107IPS1_S6_EEvT_T0_l, symObjAddr: 0xEDF0, symBinAddr: 0xC7240, symSize: 0x160 }
  - { offset: 0x427327, size: 0x8, addend: 0x0, symName: __ZN25llm_tokenizer_wpm_session10preprocessERKNSt3__112basic_stringIcNS0_11char_traitsIcEENS0_9allocatorIcEEEE, symObjAddr: 0xEF50, symBinAddr: 0xC73A0, symSize: 0x6C0 }
  - { offset: 0x42996F, size: 0x8, addend: 0x0, symName: __ZN25llm_tokenizer_ugm_session9normalizeERKNSt3__112basic_stringIcNS0_11char_traitsIcEENS0_9allocatorIcEEEEPS6_, symObjAddr: 0xF6A0, symBinAddr: 0xC7AE0, symSize: 0x3E0 }
  - { offset: 0x42A216, size: 0x8, addend: 0x0, symName: __ZNKSt3__16vectorIN25llm_tokenizer_ugm_session17best_tokenizationENS_9allocatorIS2_EEE20__throw_length_errorB8ne190107Ev, symObjAddr: 0xFD90, symBinAddr: 0xC81D0, symSize: 0x10 }
  - { offset: 0x42A240, size: 0x8, addend: 0x0, symName: __ZNSt3__1plB8ne190107IcNS_11char_traitsIcEENS_9allocatorIcEEEENS_12basic_stringIT_T0_T1_EERKS9_PKS6_, symObjAddr: 0xFDA0, symBinAddr: 0xC81E0, symSize: 0x110 }
  - { offset: 0x42A476, size: 0x8, addend: 0x0, symName: __ZL25llama_unescape_rwkv_tokenRKNSt3__112basic_stringIcNS_11char_traitsIcEENS_9allocatorIcEEEE, symObjAddr: 0xAC40, symBinAddr: 0xC32F0, symSize: 0x590 }
  - { offset: 0x42BA55, size: 0x8, addend: 0x0, symName: __ZL17llama_decode_textRKNSt3__112basic_stringIcNS_11char_traitsIcEENS_9allocatorIcEEEE, symObjAddr: 0xA9E0, symBinAddr: 0xC3090, symSize: 0x260 }
  - { offset: 0x42C892, size: 0x8, addend: 0x0, symName: __ZL25llama_unescape_whitespaceRNSt3__112basic_stringIcNS_11char_traitsIcEENS_9allocatorIcEEEE, symObjAddr: 0xA920, symBinAddr: 0xC2FD0, symSize: 0xC0 }
  - { offset: 0x42CF88, size: 0x8, addend: 0x0, symName: __ZNKSt3__16vectorINS_12basic_stringIcNS_11char_traitsIcEENS_9allocatorIcEEEENS4_IS6_EEE20__throw_out_of_rangeB8ne190107Ev, symObjAddr: 0x14A50, symBinAddr: 0xCC870, symSize: 0x10 }
  - { offset: 0x42CFB2, size: 0x8, addend: 0x0, symName: __ZN11llama_vocab4implD2Ev, symObjAddr: 0x14A60, symBinAddr: 0xCC880, symSize: 0x1D0 }
  - { offset: 0x42D60A, size: 0x8, addend: 0x0, symName: __ZNK11llama_vocab4impl14token_to_pieceEi, symObjAddr: 0xB1D0, symBinAddr: 0xC3880, symSize: 0x50 }
  - { offset: 0x42D678, size: 0x8, addend: 0x0, symName: __ZNK11llama_vocab4impl10detokenizeEPKiiPcibb, symObjAddr: 0xB220, symBinAddr: 0xC38D0, symSize: 0x430 }
  - { offset: 0x42D9AF, size: 0x8, addend: 0x0, symName: __ZNK11llama_vocab4impl10print_infoEv, symObjAddr: 0xB650, symBinAddr: 0xC3D00, symSize: 0x670 }
  - { offset: 0x42F1C7, size: 0x8, addend: 0x0, symName: __ZNK11llama_vocab8n_tokensEv, symObjAddr: 0xBCC0, symBinAddr: 0xC4370, symSize: 0x20 }
  - { offset: 0x42F791, size: 0x8, addend: 0x0, symName: __ZN11llama_vocabC2Ev, symObjAddr: 0xBCE0, symBinAddr: 0xC4390, symSize: 0xF0 }
  - { offset: 0x42FC7E, size: 0x8, addend: 0x0, symName: __ZN11llama_vocabC1Ev, symObjAddr: 0xBDD0, symBinAddr: 0xC4480, symSize: 0xF0 }
  - { offset: 0x430216, size: 0x8, addend: 0x0, symName: __ZN11llama_vocabD2Ev, symObjAddr: 0xBEC0, symBinAddr: 0xC4570, symSize: 0x40 }
  - { offset: 0x4302FD, size: 0x8, addend: 0x0, symName: __ZN11llama_vocab4implD2Ev, symObjAddr: 0x14A60, symBinAddr: 0xCC880, symSize: 0x1D0 }
  - { offset: 0x43135C, size: 0x8, addend: 0x0, symName: __ZN11llama_vocabD1Ev, symObjAddr: 0xBF00, symBinAddr: 0xC45B0, symSize: 0x40 }
  - { offset: 0x43146E, size: 0x8, addend: 0x0, symName: __ZN11llama_vocab4loadER18llama_model_loaderRK6LLM_KV, symObjAddr: 0xBF40, symBinAddr: 0xC45F0, symSize: 0x10 }
  - { offset: 0x4314F0, size: 0x8, addend: 0x0, symName: __ZNK11llama_vocab8get_typeEv, symObjAddr: 0xBF50, symBinAddr: 0xC4600, symSize: 0x10 }
  - { offset: 0x43152D, size: 0x8, addend: 0x0, symName: __ZNK11llama_vocab12get_pre_typeEv, symObjAddr: 0xBF60, symBinAddr: 0xC4610, symSize: 0x10 }
  - { offset: 0x43156A, size: 0x8, addend: 0x0, symName: __ZNK11llama_vocab13n_token_typesEv, symObjAddr: 0xBF70, symBinAddr: 0xC4620, symSize: 0x10 }
  - { offset: 0x4315AF, size: 0x8, addend: 0x0, symName: __ZNK11llama_vocab9type_nameEv, symObjAddr: 0xBF80, symBinAddr: 0xC4630, symSize: 0xF0 }
  - { offset: 0x431C55, size: 0x8, addend: 0x0, symName: __ZNK11llama_vocab9is_normalEi, symObjAddr: 0xC070, symBinAddr: 0xC4720, symSize: 0x50 }
  - { offset: 0x431C82, size: 0x8, addend: 0x0, symName: __ZNK11llama_vocab9is_normalEi, symObjAddr: 0xC070, symBinAddr: 0xC4720, symSize: 0x50 }
  - { offset: 0x431D14, size: 0x8, addend: 0x0, symName: __ZNK11llama_vocab10is_unknownEi, symObjAddr: 0xC0C0, symBinAddr: 0xC4770, symSize: 0x50 }
  - { offset: 0x431D50, size: 0x8, addend: 0x0, symName: __ZNK11llama_vocab10is_unknownEi, symObjAddr: 0xC0C0, symBinAddr: 0xC4770, symSize: 0x50 }
  - { offset: 0x431DE2, size: 0x8, addend: 0x0, symName: __ZNK11llama_vocab10is_controlEi, symObjAddr: 0xC110, symBinAddr: 0xC47C0, symSize: 0x50 }
  - { offset: 0x431E0F, size: 0x8, addend: 0x0, symName: __ZNK11llama_vocab10is_controlEi, symObjAddr: 0xC110, symBinAddr: 0xC47C0, symSize: 0x50 }
  - { offset: 0x431E7D, size: 0x8, addend: 0x0, symName: __ZNK11llama_vocab7is_byteEi, symObjAddr: 0xC160, symBinAddr: 0xC4810, symSize: 0x50 }
  - { offset: 0x431EB9, size: 0x8, addend: 0x0, symName: __ZNK11llama_vocab7is_byteEi, symObjAddr: 0xC160, symBinAddr: 0xC4810, symSize: 0x50 }
  - { offset: 0x431F27, size: 0x8, addend: 0x0, symName: __ZNK11llama_vocab15is_user_definedEi, symObjAddr: 0xC1B0, symBinAddr: 0xC4860, symSize: 0x50 }
  - { offset: 0x431F54, size: 0x8, addend: 0x0, symName: __ZNK11llama_vocab15is_user_definedEi, symObjAddr: 0xC1B0, symBinAddr: 0xC4860, symSize: 0x50 }
  - { offset: 0x431FE6, size: 0x8, addend: 0x0, symName: __ZNK11llama_vocab9is_unusedEi, symObjAddr: 0xC200, symBinAddr: 0xC48B0, symSize: 0x50 }
  - { offset: 0x432022, size: 0x8, addend: 0x0, symName: __ZNK11llama_vocab9is_unusedEi, symObjAddr: 0xC200, symBinAddr: 0xC48B0, symSize: 0x50 }
  - { offset: 0x4320B4, size: 0x8, addend: 0x0, symName: __ZNK11llama_vocab6is_eogEi, symObjAddr: 0xC250, symBinAddr: 0xC4900, symSize: 0x50 }
  - { offset: 0x43216C, size: 0x8, addend: 0x0, symName: __ZNK11llama_vocab13token_to_byteEi, symObjAddr: 0xC2A0, symBinAddr: 0xC4950, symSize: 0x10 }
  - { offset: 0x4321D8, size: 0x8, addend: 0x0, symName: __ZNK11llama_vocab13text_to_tokenERKNSt3__112basic_stringIcNS0_11char_traitsIcEENS0_9allocatorIcEEEE, symObjAddr: 0xC2B0, symBinAddr: 0xC4960, symSize: 0x50 }
  - { offset: 0x4322B1, size: 0x8, addend: 0x0, symName: __ZNK11llama_vocab14token_get_textEi, symObjAddr: 0xC300, symBinAddr: 0xC49B0, symSize: 0x70 }
  - { offset: 0x4323B8, size: 0x8, addend: 0x0, symName: __ZNK11llama_vocab15token_get_scoreEi, symObjAddr: 0xC370, symBinAddr: 0xC4A20, symSize: 0x60 }
  - { offset: 0x43244D, size: 0x8, addend: 0x0, symName: __ZNK11llama_vocab14token_get_attrEi, symObjAddr: 0xC3D0, symBinAddr: 0xC4A80, symSize: 0x60 }
  - { offset: 0x432458, size: 0x8, addend: 0x0, symName: __ZNK11llama_vocab14token_get_attrEi, symObjAddr: 0xC3D0, symBinAddr: 0xC4A80, symSize: 0x60 }
  - { offset: 0x43250F, size: 0x8, addend: 0x0, symName: __ZNK11llama_vocab9token_bosEv, symObjAddr: 0xC430, symBinAddr: 0xC4AE0, symSize: 0x10 }
  - { offset: 0x43254C, size: 0x8, addend: 0x0, symName: __ZNK11llama_vocab9token_eosEv, symObjAddr: 0xC440, symBinAddr: 0xC4AF0, symSize: 0x10 }
  - { offset: 0x432589, size: 0x8, addend: 0x0, symName: __ZNK11llama_vocab9token_eotEv, symObjAddr: 0xC450, symBinAddr: 0xC4B00, symSize: 0x10 }
  - { offset: 0x4325C6, size: 0x8, addend: 0x0, symName: __ZNK11llama_vocab9token_eomEv, symObjAddr: 0xC460, symBinAddr: 0xC4B10, symSize: 0x10 }
  - { offset: 0x43260B, size: 0x8, addend: 0x0, symName: __ZNK11llama_vocab9token_unkEv, symObjAddr: 0xC470, symBinAddr: 0xC4B20, symSize: 0x10 }
  - { offset: 0x432648, size: 0x8, addend: 0x0, symName: __ZNK11llama_vocab9token_sepEv, symObjAddr: 0xC480, symBinAddr: 0xC4B30, symSize: 0x10 }
  - { offset: 0x432685, size: 0x8, addend: 0x0, symName: __ZNK11llama_vocab8token_nlEv, symObjAddr: 0xC490, symBinAddr: 0xC4B40, symSize: 0x10 }
  - { offset: 0x4326C2, size: 0x8, addend: 0x0, symName: __ZNK11llama_vocab9token_padEv, symObjAddr: 0xC4A0, symBinAddr: 0xC4B50, symSize: 0x10 }
  - { offset: 0x4326FF, size: 0x8, addend: 0x0, symName: __ZNK11llama_vocab12token_prefixEv, symObjAddr: 0xC4B0, symBinAddr: 0xC4B60, symSize: 0x10 }
  - { offset: 0x432744, size: 0x8, addend: 0x0, symName: __ZNK11llama_vocab12token_middleEv, symObjAddr: 0xC4C0, symBinAddr: 0xC4B70, symSize: 0x10 }
  - { offset: 0x432789, size: 0x8, addend: 0x0, symName: __ZNK11llama_vocab12token_suffixEv, symObjAddr: 0xC4D0, symBinAddr: 0xC4B80, symSize: 0x10 }
  - { offset: 0x4327CE, size: 0x8, addend: 0x0, symName: __ZNK11llama_vocab13token_fim_preEv, symObjAddr: 0xC4E0, symBinAddr: 0xC4B90, symSize: 0x10 }
  - { offset: 0x43280B, size: 0x8, addend: 0x0, symName: __ZNK11llama_vocab13token_fim_sufEv, symObjAddr: 0xC4F0, symBinAddr: 0xC4BA0, symSize: 0x10 }
  - { offset: 0x432848, size: 0x8, addend: 0x0, symName: __ZNK11llama_vocab13token_fim_midEv, symObjAddr: 0xC500, symBinAddr: 0xC4BB0, symSize: 0x10 }
  - { offset: 0x432885, size: 0x8, addend: 0x0, symName: __ZNK11llama_vocab13token_fim_padEv, symObjAddr: 0xC510, symBinAddr: 0xC4BC0, symSize: 0x10 }
  - { offset: 0x4328C2, size: 0x8, addend: 0x0, symName: __ZNK11llama_vocab13token_fim_repEv, symObjAddr: 0xC520, symBinAddr: 0xC4BD0, symSize: 0x10 }
  - { offset: 0x4328FF, size: 0x8, addend: 0x0, symName: __ZNK11llama_vocab13token_fim_sepEv, symObjAddr: 0xC530, symBinAddr: 0xC4BE0, symSize: 0x10 }
  - { offset: 0x43293C, size: 0x8, addend: 0x0, symName: __ZNK11llama_vocab20get_add_space_prefixEv, symObjAddr: 0xC540, symBinAddr: 0xC4BF0, symSize: 0x10 }
  - { offset: 0x432981, size: 0x8, addend: 0x0, symName: __ZNK11llama_vocab11get_add_bosEv, symObjAddr: 0xC550, symBinAddr: 0xC4C00, symSize: 0x10 }
  - { offset: 0x4329BE, size: 0x8, addend: 0x0, symName: __ZNK11llama_vocab11get_add_eosEv, symObjAddr: 0xC560, symBinAddr: 0xC4C10, symSize: 0x10 }
  - { offset: 0x4329FB, size: 0x8, addend: 0x0, symName: __ZNK11llama_vocab17get_ignore_mergesEv, symObjAddr: 0xC570, symBinAddr: 0xC4C20, symSize: 0x10 }
  - { offset: 0x432A38, size: 0x8, addend: 0x0, symName: __ZNK11llama_vocab16get_clean_spacesEv, symObjAddr: 0xC580, symBinAddr: 0xC4C30, symSize: 0x10 }
  - { offset: 0x432A7D, size: 0x8, addend: 0x0, symName: __ZNK11llama_vocab28get_remove_extra_whitespacesEv, symObjAddr: 0xC590, symBinAddr: 0xC4C40, symSize: 0x10 }
  - { offset: 0x432AC2, size: 0x8, addend: 0x0, symName: __ZNK11llama_vocab22get_escape_whitespacesEv, symObjAddr: 0xC5A0, symBinAddr: 0xC4C50, symSize: 0x10 }
  - { offset: 0x432AFF, size: 0x8, addend: 0x0, symName: __ZNK11llama_vocab30get_treat_whitespace_as_suffixEv, symObjAddr: 0xC5B0, symBinAddr: 0xC4C60, symSize: 0x10 }
  - { offset: 0x432B3C, size: 0x8, addend: 0x0, symName: __ZNK11llama_vocab13max_token_lenEv, symObjAddr: 0xC5C0, symBinAddr: 0xC4C70, symSize: 0x10 }
  - { offset: 0x432C25, size: 0x8, addend: 0x0, symName: __ZNK11llama_vocab13find_bpe_rankERKNSt3__112basic_stringIcNS0_11char_traitsIcEENS0_9allocatorIcEEEES8_, symObjAddr: 0xC5D0, symBinAddr: 0xC4C80, symSize: 0x200 }
  - { offset: 0x4332B5, size: 0x8, addend: 0x0, symName: __ZNSt3__112__hash_tableINS_17__hash_value_typeINS_4pairINS_12basic_stringIcNS_11char_traitsIcEENS_9allocatorIcEEEES8_EEiEENS_22__unordered_map_hasherIS9_SA_N11llama_vocab4impl9pair_hashENS_8equal_toIS9_EELb1EEENS_21__unordered_map_equalIS9_SA_SG_SE_Lb1EEENS6_ISA_EEE4findIS9_EENS_15__hash_iteratorIPNS_11__hash_nodeISA_PvEEEERKT_, symObjAddr: 0x14F60, symBinAddr: 0xCCD80, symSize: 0x1E5 }
  - { offset: 0x43365B, size: 0x8, addend: 0x0, symName: __ZNK11llama_vocab8tokenizeEPKciPiibb, symObjAddr: 0xC7D0, symBinAddr: 0xC4E80, symSize: 0x200 }
  - { offset: 0x433E57, size: 0x8, addend: 0x0, symName: __ZNK11llama_vocab8tokenizeERKNSt3__112basic_stringIcNS0_11char_traitsIcEENS0_9allocatorIcEEEEbb, symObjAddr: 0xC9D0, symBinAddr: 0xC5080, symSize: 0x20 }
  - { offset: 0x433EFF, size: 0x8, addend: 0x0, symName: __ZNK11llama_vocab14token_to_pieceEi, symObjAddr: 0xC9F0, symBinAddr: 0xC50A0, symSize: 0x50 }
  - { offset: 0x433F3B, size: 0x8, addend: 0x0, symName: __ZNK11llama_vocab14token_to_pieceEi, symObjAddr: 0xC9F0, symBinAddr: 0xC50A0, symSize: 0x50 }
  - { offset: 0x433FB9, size: 0x8, addend: 0x0, symName: __ZNK11llama_vocab10detokenizeEPKiiPcibb, symObjAddr: 0xCA40, symBinAddr: 0xC50F0, symSize: 0x10 }
  - { offset: 0x4340D6, size: 0x8, addend: 0x0, symName: __ZNK11llama_vocab10detokenizeERKNSt3__16vectorIiNS0_9allocatorIiEEEEb, symObjAddr: 0xCA50, symBinAddr: 0xC5100, symSize: 0x150 }
  - { offset: 0x434611, size: 0x8, addend: 0x0, symName: __ZNK11llama_vocab10print_infoEv, symObjAddr: 0xCBA0, symBinAddr: 0xC5250, symSize: 0x10 }
  - { offset: 0x434666, size: 0x8, addend: 0x0, symName: _llama_vocab_n_tokens, symObjAddr: 0xCBB0, symBinAddr: 0xC5260, symSize: 0x20 }
  - { offset: 0x4346F7, size: 0x8, addend: 0x0, symName: _llama_n_vocab, symObjAddr: 0xCBD0, symBinAddr: 0xC5280, symSize: 0x20 }
  - { offset: 0x434799, size: 0x8, addend: 0x0, symName: _llama_vocab_type, symObjAddr: 0xCBF0, symBinAddr: 0xC52A0, symSize: 0x10 }
  - { offset: 0x434823, size: 0x8, addend: 0x0, symName: _llama_vocab_get_text, symObjAddr: 0xCC00, symBinAddr: 0xC52B0, symSize: 0x70 }
  - { offset: 0x43496B, size: 0x8, addend: 0x0, symName: _llama_vocab_get_score, symObjAddr: 0xCC70, symBinAddr: 0xC5320, symSize: 0x60 }
  - { offset: 0x434A1C, size: 0x8, addend: 0x0, symName: _llama_vocab_get_attr, symObjAddr: 0xCCD0, symBinAddr: 0xC5380, symSize: 0x60 }
  - { offset: 0x434A4C, size: 0x8, addend: 0x0, symName: _llama_vocab_get_attr, symObjAddr: 0xCCD0, symBinAddr: 0xC5380, symSize: 0x60 }
  - { offset: 0x434B44, size: 0x8, addend: 0x0, symName: _llama_vocab_is_eog, symObjAddr: 0xCD30, symBinAddr: 0xC53E0, symSize: 0x50 }
  - { offset: 0x434C3D, size: 0x8, addend: 0x0, symName: _llama_vocab_is_control, symObjAddr: 0xCD80, symBinAddr: 0xC5430, symSize: 0x50 }
  - { offset: 0x434C85, size: 0x8, addend: 0x0, symName: _llama_vocab_is_control, symObjAddr: 0xCD80, symBinAddr: 0xC5430, symSize: 0x50 }
  - { offset: 0x434CF4, size: 0x8, addend: 0x0, symName: _llama_vocab_bos, symObjAddr: 0xCDD0, symBinAddr: 0xC5480, symSize: 0x10 }
  - { offset: 0x434D4A, size: 0x8, addend: 0x0, symName: _llama_vocab_eos, symObjAddr: 0xCDE0, symBinAddr: 0xC5490, symSize: 0x10 }
  - { offset: 0x434DB9, size: 0x8, addend: 0x0, symName: _llama_vocab_eot, symObjAddr: 0xCDF0, symBinAddr: 0xC54A0, symSize: 0x10 }
  - { offset: 0x434E0F, size: 0x8, addend: 0x0, symName: _llama_vocab_cls, symObjAddr: 0xCE00, symBinAddr: 0xC54B0, symSize: 0x10 }
  - { offset: 0x434E8D, size: 0x8, addend: 0x0, symName: _llama_vocab_sep, symObjAddr: 0xCE10, symBinAddr: 0xC54C0, symSize: 0x10 }
  - { offset: 0x434EFC, size: 0x8, addend: 0x0, symName: _llama_vocab_nl, symObjAddr: 0xCE20, symBinAddr: 0xC54D0, symSize: 0x10 }
  - { offset: 0x434F6B, size: 0x8, addend: 0x0, symName: _llama_vocab_pad, symObjAddr: 0xCE30, symBinAddr: 0xC54E0, symSize: 0x10 }
  - { offset: 0x434FC1, size: 0x8, addend: 0x0, symName: _llama_vocab_get_add_bos, symObjAddr: 0xCE40, symBinAddr: 0xC54F0, symSize: 0x10 }
  - { offset: 0x435017, size: 0x8, addend: 0x0, symName: _llama_vocab_get_add_eos, symObjAddr: 0xCE50, symBinAddr: 0xC5500, symSize: 0x10 }
  - { offset: 0x435086, size: 0x8, addend: 0x0, symName: _llama_vocab_fim_pre, symObjAddr: 0xCE60, symBinAddr: 0xC5510, symSize: 0x10 }
  - { offset: 0x4350F5, size: 0x8, addend: 0x0, symName: _llama_vocab_fim_suf, symObjAddr: 0xCE70, symBinAddr: 0xC5520, symSize: 0x10 }
  - { offset: 0x435164, size: 0x8, addend: 0x0, symName: _llama_vocab_fim_mid, symObjAddr: 0xCE80, symBinAddr: 0xC5530, symSize: 0x10 }
  - { offset: 0x4351D3, size: 0x8, addend: 0x0, symName: _llama_vocab_fim_pad, symObjAddr: 0xCE90, symBinAddr: 0xC5540, symSize: 0x10 }
  - { offset: 0x435242, size: 0x8, addend: 0x0, symName: _llama_vocab_fim_rep, symObjAddr: 0xCEA0, symBinAddr: 0xC5550, symSize: 0x10 }
  - { offset: 0x4352B1, size: 0x8, addend: 0x0, symName: _llama_vocab_fim_sep, symObjAddr: 0xCEB0, symBinAddr: 0xC5560, symSize: 0x10 }
  - { offset: 0x43532E, size: 0x8, addend: 0x0, symName: _llama_token_get_text, symObjAddr: 0xCEC0, symBinAddr: 0xC5570, symSize: 0x70 }
  - { offset: 0x4354AD, size: 0x8, addend: 0x0, symName: _llama_token_get_score, symObjAddr: 0xCF30, symBinAddr: 0xC55E0, symSize: 0x60 }
  - { offset: 0x435593, size: 0x8, addend: 0x0, symName: _llama_token_get_attr, symObjAddr: 0xCF90, symBinAddr: 0xC5640, symSize: 0x60 }
  - { offset: 0x4355C5, size: 0x8, addend: 0x0, symName: _llama_token_get_attr, symObjAddr: 0xCF90, symBinAddr: 0xC5640, symSize: 0x60 }
  - { offset: 0x4356F4, size: 0x8, addend: 0x0, symName: _llama_token_is_eog, symObjAddr: 0xCFF0, symBinAddr: 0xC56A0, symSize: 0x50 }
  - { offset: 0x435826, size: 0x8, addend: 0x0, symName: _llama_token_is_control, symObjAddr: 0xD040, symBinAddr: 0xC56F0, symSize: 0x50 }
  - { offset: 0x4358A2, size: 0x8, addend: 0x0, symName: _llama_token_is_control, symObjAddr: 0xD040, symBinAddr: 0xC56F0, symSize: 0x50 }
  - { offset: 0x43592D, size: 0x8, addend: 0x0, symName: _llama_token_bos, symObjAddr: 0xD090, symBinAddr: 0xC5740, symSize: 0x10 }
  - { offset: 0x4359CA, size: 0x8, addend: 0x0, symName: _llama_token_eos, symObjAddr: 0xD0A0, symBinAddr: 0xC5750, symSize: 0x10 }
  - { offset: 0x435A67, size: 0x8, addend: 0x0, symName: _llama_token_eot, symObjAddr: 0xD0B0, symBinAddr: 0xC5760, symSize: 0x10 }
  - { offset: 0x435AE9, size: 0x8, addend: 0x0, symName: _llama_token_cls, symObjAddr: 0xD0C0, symBinAddr: 0xC5770, symSize: 0x10 }
  - { offset: 0x435B86, size: 0x8, addend: 0x0, symName: _llama_token_sep, symObjAddr: 0xD0D0, symBinAddr: 0xC5780, symSize: 0x10 }
  - { offset: 0x435C23, size: 0x8, addend: 0x0, symName: _llama_token_nl, symObjAddr: 0xD0E0, symBinAddr: 0xC5790, symSize: 0x10 }
  - { offset: 0x435CC0, size: 0x8, addend: 0x0, symName: _llama_token_pad, symObjAddr: 0xD0F0, symBinAddr: 0xC57A0, symSize: 0x10 }
  - { offset: 0x435D5D, size: 0x8, addend: 0x0, symName: _llama_add_bos_token, symObjAddr: 0xD100, symBinAddr: 0xC57B0, symSize: 0x10 }
  - { offset: 0x435DFA, size: 0x8, addend: 0x0, symName: _llama_add_eos_token, symObjAddr: 0xD110, symBinAddr: 0xC57C0, symSize: 0x10 }
  - { offset: 0x435E97, size: 0x8, addend: 0x0, symName: _llama_token_fim_pre, symObjAddr: 0xD120, symBinAddr: 0xC57D0, symSize: 0x10 }
  - { offset: 0x435F34, size: 0x8, addend: 0x0, symName: _llama_token_fim_suf, symObjAddr: 0xD130, symBinAddr: 0xC57E0, symSize: 0x10 }
  - { offset: 0x435FD1, size: 0x8, addend: 0x0, symName: _llama_token_fim_mid, symObjAddr: 0xD140, symBinAddr: 0xC57F0, symSize: 0x10 }
  - { offset: 0x43606E, size: 0x8, addend: 0x0, symName: _llama_token_fim_pad, symObjAddr: 0xD150, symBinAddr: 0xC5800, symSize: 0x10 }
  - { offset: 0x43610B, size: 0x8, addend: 0x0, symName: _llama_token_fim_rep, symObjAddr: 0xD160, symBinAddr: 0xC5810, symSize: 0x10 }
  - { offset: 0x4361A8, size: 0x8, addend: 0x0, symName: _llama_token_fim_sep, symObjAddr: 0xD170, symBinAddr: 0xC5820, symSize: 0x10 }
  - { offset: 0x43622A, size: 0x8, addend: 0x0, symName: _llama_tokenize, symObjAddr: 0xD180, symBinAddr: 0xC5830, symSize: 0x10 }
  - { offset: 0x4362F1, size: 0x8, addend: 0x0, symName: _llama_token_to_piece, symObjAddr: 0xD190, symBinAddr: 0xC5840, symSize: 0x10 }
  - { offset: 0x436411, size: 0x8, addend: 0x0, symName: _llama_detokenize, symObjAddr: 0xD1A0, symBinAddr: 0xC5850, symSize: 0x10 }
  - { offset: 0x436588, size: 0x8, addend: 0x0, symName: __ZNSt3__114priority_queueI14llm_bigram_spmNS_6vectorIS1_NS_9allocatorIS1_EEEENS1_10comparatorEE4pushERKS1_, symObjAddr: 0xD950, symBinAddr: 0xC5F40, symSize: 0x280 }
  - { offset: 0x436B42, size: 0x8, addend: 0x0, symName: __ZNSt3__16__treeINS_12__value_typeINS_12basic_stringIcNS_11char_traitsIcEENS_9allocatorIcEEEENS_4pairIiiEEEENS_19__map_value_compareIS7_SA_NS_4lessIS7_EELb1EEENS5_ISA_EEE25__emplace_unique_key_argsIS7_JRKNS_21piecewise_construct_tENS_5tupleIJRKS7_EEENSL_IJEEEEEENS8_INS_15__tree_iteratorISA_PNS_11__tree_nodeISA_PvEElEEbEERKT_DpOT0_, symObjAddr: 0xDBE0, symBinAddr: 0xC61D0, symSize: 0x1C0 }
  - { offset: 0x437363, size: 0x8, addend: 0x0, symName: __ZNSt3__16__treeINS_12__value_typeINS_12basic_stringIcNS_11char_traitsIcEENS_9allocatorIcEEEENS_4pairIiiEEEENS_19__map_value_compareIS7_SA_NS_4lessIS7_EELb1EEENS5_ISA_EEE4findIS7_EENS_15__tree_iteratorISA_PNS_11__tree_nodeISA_PvEElEERKT_, symObjAddr: 0xE160, symBinAddr: 0xC65D0, symSize: 0x110 }
  - { offset: 0x437A86, size: 0x8, addend: 0x0, symName: __ZNKSt3__16vectorI14llm_bigram_spmNS_9allocatorIS1_EEE20__throw_length_errorB8ne190107Ev, symObjAddr: 0xDBD0, symBinAddr: 0xC61C0, symSize: 0x10 }
  - { offset: 0x437AB0, size: 0x8, addend: 0x0, symName: __ZNSt3__16__treeINS_12__value_typeINS_12basic_stringIcNS_11char_traitsIcEENS_9allocatorIcEEEENS_4pairIiiEEEENS_19__map_value_compareIS7_SA_NS_4lessIS7_EELb1EEENS5_ISA_EEE25__emplace_unique_key_argsIS7_JRKNS_21piecewise_construct_tENS_5tupleIJRKS7_EEENSL_IJEEEEEENS8_INS_15__tree_iteratorISA_PNS_11__tree_nodeISA_PvEElEEbEERKT_DpOT0_, symObjAddr: 0xDBE0, symBinAddr: 0xC61D0, symSize: 0x1C0 }
  - { offset: 0x438109, size: 0x8, addend: 0x0, symName: __ZNSt3__110unique_ptrINS_11__tree_nodeINS_12__value_typeINS_12basic_stringIcNS_11char_traitsIcEENS_9allocatorIcEEEENS_4pairIiiEEEEPvEENS_22__tree_node_destructorINS6_ISD_EEEEED1B8ne190107Ev, symObjAddr: 0xDDA0, symBinAddr: 0xC6390, symSize: 0x50 }
  - { offset: 0x4387C1, size: 0x8, addend: 0x0, symName: __ZNSt3__16vectorI14llm_bigram_bpeNS_9allocatorIS1_EEE21__push_back_slow_pathIRKS1_EEPS1_OT_, symObjAddr: 0xE730, symBinAddr: 0xC6B90, symSize: 0x240 }
  - { offset: 0x43931D, size: 0x8, addend: 0x0, symName: __ZNKSt3__16vectorI14llm_bigram_bpeNS_9allocatorIS1_EEE20__throw_length_errorB8ne190107Ev, symObjAddr: 0xE9E0, symBinAddr: 0xC6E40, symSize: 0x10 }
  - { offset: 0x439347, size: 0x8, addend: 0x0, symName: __ZNSt3__19__sift_upB8ne190107INS_17_ClassicAlgPolicyERN14llm_bigram_bpe10comparatorENS_11__wrap_iterIPS2_EEEEvT1_S8_OT0_NS_15iterator_traitsIS8_E15difference_typeE, symObjAddr: 0xE9F0, symBinAddr: 0xC6E50, symSize: 0x190 }
  - { offset: 0x439352, size: 0x8, addend: 0x0, symName: __ZNSt3__114__split_bufferI14llm_bigram_bpeRNS_9allocatorIS1_EEED1Ev, symObjAddr: 0xE970, symBinAddr: 0xC6DD0, symSize: 0x70 }
  - { offset: 0x439D95, size: 0x8, addend: 0x0, symName: __ZN25llm_tokenizer_ugm_session9normalizeERKNSt3__112basic_stringIcNS0_11char_traitsIcEENS0_9allocatorIcEEEEPS6_, symObjAddr: 0xF6A0, symBinAddr: 0xC7AE0, symSize: 0x3E0 }
  - { offset: 0x439E10, size: 0x8, addend: 0x0, symName: __ZN25llm_tokenizer_ugm_session16normalize_prefixERKNSt3__112basic_stringIcNS0_11char_traitsIcEENS0_9allocatorIcEEEEm, symObjAddr: 0xFA80, symBinAddr: 0xC7EC0, symSize: 0x310 }
  - { offset: 0x43A869, size: 0x8, addend: 0x0, symName: __ZNKSt3__16vectorIN11llama_vocab10token_dataENS_9allocatorIS2_EEE20__throw_length_errorB8ne190107Ev, symObjAddr: 0x101A0, symBinAddr: 0xC84C0, symSize: 0x10 }
  - { offset: 0x43A893, size: 0x8, addend: 0x0, symName: __ZNSt3__112__hash_tableINS_17__hash_value_typeINS_4pairINS_12basic_stringIcNS_11char_traitsIcEENS_9allocatorIcEEEES8_EEiEENS_22__unordered_map_hasherIS9_SA_N11llama_vocab4impl9pair_hashENS_8equal_toIS9_EELb1EEENS_21__unordered_map_equalIS9_SA_SG_SE_Lb1EEENS6_ISA_EEE25__emplace_unique_key_argsIS9_JS9_RiEEENS2_INS_15__hash_iteratorIPNS_11__hash_nodeISA_PvEEEEbEERKT_DpOT0_, symObjAddr: 0x101B0, symBinAddr: 0xC84D0, symSize: 0x530 }
  - { offset: 0x43B4FC, size: 0x8, addend: 0x0, symName: __ZNKSt3__18equal_toINS_4pairINS_12basic_stringIcNS_11char_traitsIcEENS_9allocatorIcEEEES7_EEEclB8ne190107ERKS8_SB_, symObjAddr: 0x10C00, symBinAddr: 0xC8A70, symSize: 0x100 }
  - { offset: 0x43B7AF, size: 0x8, addend: 0x0, symName: __ZNSt3__112__hash_tableINS_17__hash_value_typeINS_4pairINS_12basic_stringIcNS_11char_traitsIcEENS_9allocatorIcEEEES8_EEiEENS_22__unordered_map_hasherIS9_SA_N11llama_vocab4impl9pair_hashENS_8equal_toIS9_EELb1EEENS_21__unordered_map_equalIS9_SA_SG_SE_Lb1EEENS6_ISA_EEE11__do_rehashILb1EEEvm, symObjAddr: 0x10D00, symBinAddr: 0xC8B70, symSize: 0x2B0 }
  - { offset: 0x43BC6F, size: 0x8, addend: 0x0, symName: __ZNSt3__110unique_ptrINS_11__hash_nodeINS_17__hash_value_typeINS_4pairINS_12basic_stringIcNS_11char_traitsIcEENS_9allocatorIcEEEES9_EEiEEPvEENS_22__hash_node_destructorINS7_ISD_EEEEED1B8ne190107Ev, symObjAddr: 0x106E0, symBinAddr: 0xC8A00, symSize: 0x70 }
  - { offset: 0x43C852, size: 0x8, addend: 0x0, symName: __ZNSt3__112__hash_tableINS_17__hash_value_typeINS_12basic_stringIcNS_11char_traitsIcEENS_9allocatorIcEEEEiEENS_22__unordered_map_hasherIS7_S8_NS_4hashIS7_EENS_8equal_toIS7_EELb1EEENS_21__unordered_map_equalIS7_S8_SD_SB_Lb1EEENS5_IS8_EEE25__emplace_unique_key_argsIS7_JRKNS_21piecewise_construct_tENS_5tupleIJRKS7_EEENSN_IJEEEEEENS_4pairINS_15__hash_iteratorIPNS_11__hash_nodeIS8_PvEEEEbEERKT_DpOT0_, symObjAddr: 0x110E0, symBinAddr: 0xC8F40, symSize: 0x5C0 }
  - { offset: 0x43CED8, size: 0x8, addend: 0x0, symName: __ZNSt3__112__hash_tableINS_17__hash_value_typeINS_12basic_stringIcNS_11char_traitsIcEENS_9allocatorIcEEEEiEENS_22__unordered_map_hasherIS7_S8_NS_4hashIS7_EENS_8equal_toIS7_EELb1EEENS_21__unordered_map_equalIS7_S8_SD_SB_Lb1EEENS5_IS8_EEE11__do_rehashILb1EEEvm, symObjAddr: 0x116F0, symBinAddr: 0xC9550, symSize: 0x2B0 }
  - { offset: 0x43D398, size: 0x8, addend: 0x0, symName: __ZNSt3__110unique_ptrINS_11__hash_nodeINS_17__hash_value_typeINS_12basic_stringIcNS_11char_traitsIcEENS_9allocatorIcEEEEiEEPvEENS_22__hash_node_destructorINS6_ISB_EEEEED1B8ne190107Ev, symObjAddr: 0x116A0, symBinAddr: 0xC9500, symSize: 0x50 }
  - { offset: 0x43DA45, size: 0x8, addend: 0x0, symName: __ZNSt3__128__exception_guard_exceptionsINS_29_AllocatorDestroyRangeReverseINS_9allocatorINS_12basic_stringIcNS_11char_traitsIcEENS2_IcEEEEEEPS7_EEED1B8ne190107Ev, symObjAddr: 0x12E10, symBinAddr: 0xCAC30, symSize: 0x50 }
  - { offset: 0x43DA72, size: 0x8, addend: 0x0, symName: __ZNSt3__128__exception_guard_exceptionsINS_29_AllocatorDestroyRangeReverseINS_9allocatorINS_12basic_stringIcNS_11char_traitsIcEENS2_IcEEEEEEPS7_EEED1B8ne190107Ev, symObjAddr: 0x12E10, symBinAddr: 0xCAC30, symSize: 0x50 }
  - { offset: 0x43DC58, size: 0x8, addend: 0x0, symName: __ZN17llm_tokenizer_spmD1Ev, symObjAddr: 0x12E60, symBinAddr: 0xCAC80, symSize: 0x10 }
  - { offset: 0x43DC83, size: 0x8, addend: 0x0, symName: __ZN17llm_tokenizer_spmD0Ev, symObjAddr: 0x12E70, symBinAddr: 0xCAC90, symSize: 0x10 }
  - { offset: 0x43DD75, size: 0x8, addend: 0x0, symName: __ZNSt3__16vectorINS_12basic_stringIcNS_11char_traitsIcEENS_9allocatorIcEEEENS4_IS6_EEE18__assign_with_sizeB8ne190107IPKS6_SB_EEvT_T0_l, symObjAddr: 0x13F70, symBinAddr: 0xCBD90, symSize: 0x350 }
  - { offset: 0x43EB58, size: 0x8, addend: 0x0, symName: __ZN17llm_tokenizer_bpeD1Ev, symObjAddr: 0x13E50, symBinAddr: 0xCBC70, symSize: 0x90 }
  - { offset: 0x43EEC2, size: 0x8, addend: 0x0, symName: __ZN17llm_tokenizer_bpeD0Ev, symObjAddr: 0x13EE0, symBinAddr: 0xCBD00, symSize: 0x90 }
  - { offset: 0x43F366, size: 0x8, addend: 0x0, symName: __ZN17llm_tokenizer_wpmD1Ev, symObjAddr: 0x142C0, symBinAddr: 0xCC0E0, symSize: 0x10 }
  - { offset: 0x43F392, size: 0x8, addend: 0x0, symName: __ZN17llm_tokenizer_wpmD0Ev, symObjAddr: 0x142D0, symBinAddr: 0xCC0F0, symSize: 0x10 }
  - { offset: 0x43F634, size: 0x8, addend: 0x0, symName: __ZN10naive_trie6insertEPKcmi, symObjAddr: 0x145B0, symBinAddr: 0xCC3D0, symSize: 0x1D0 }
  - { offset: 0x44020D, size: 0x8, addend: 0x0, symName: __ZNSt3__16__treeINS_12__value_typeIc10naive_trieEENS_19__map_value_compareIcS3_NS_4lessIcEELb1EEENS_9allocatorIS3_EEE7destroyEPNS_11__tree_nodeIS3_PvEE, symObjAddr: 0x14840, symBinAddr: 0xCC660, symSize: 0x50 }
  - { offset: 0x440AB0, size: 0x8, addend: 0x0, symName: __ZN17llm_tokenizer_ugmD1Ev, symObjAddr: 0x14780, symBinAddr: 0xCC5A0, symSize: 0x60 }
  - { offset: 0x440E0A, size: 0x8, addend: 0x0, symName: __ZN17llm_tokenizer_ugmD0Ev, symObjAddr: 0x147E0, symBinAddr: 0xCC600, symSize: 0x60 }
  - { offset: 0x44127A, size: 0x8, addend: 0x0, symName: __ZN18llm_tokenizer_rwkvD1Ev, symObjAddr: 0x149F0, symBinAddr: 0xCC810, symSize: 0x20 }
  - { offset: 0x441383, size: 0x8, addend: 0x0, symName: __ZN18llm_tokenizer_rwkvD0Ev, symObjAddr: 0x14A10, symBinAddr: 0xCC830, symSize: 0x40 }
  - { offset: 0x4417D8, size: 0x8, addend: 0x0, symName: __ZNSt3__112__hash_tableINS_17__hash_value_typeINS_4pairINS_12basic_stringIcNS_11char_traitsIcEENS_9allocatorIcEEEES8_EEiEENS_22__unordered_map_hasherIS9_SA_N11llama_vocab4impl9pair_hashENS_8equal_toIS9_EELb1EEENS_21__unordered_map_equalIS9_SA_SG_SE_Lb1EEENS6_ISA_EEED2Ev, symObjAddr: 0x14C30, symBinAddr: 0xCCA50, symSize: 0xA0 }
  - { offset: 0x443DAD, size: 0x8, addend: 0x0, symName: _llama_split_path, symObjAddr: 0x1640, symBinAddr: 0xCE4A0, symSize: 0x40 }
  - { offset: 0x443E6E, size: 0x8, addend: 0x0, symName: _llama_print_system_info, symObjAddr: 0x1A40, symBinAddr: 0xCE8A0, symSize: 0x1B0 }
  - { offset: 0x443E96, size: 0x8, addend: 0x0, symName: __ZZ23llama_print_system_infoE1s, symObjAddr: 0xBB4A8, symBinAddr: 0x296460, symSize: 0x0 }
  - { offset: 0x4578A6, size: 0x8, addend: 0x0, symName: _llama_sampler_chain_default_params, symObjAddr: 0x0, symBinAddr: 0xCCF70, symSize: 0x10 }
  - { offset: 0x4578CE, size: 0x8, addend: 0x0, symName: _llama_max_devices, symObjAddr: 0x10, symBinAddr: 0xCCF80, symSize: 0x10 }
  - { offset: 0x4578E8, size: 0x8, addend: 0x0, symName: _llama_supports_mmap, symObjAddr: 0x20, symBinAddr: 0xCCF90, symSize: 0x10 }
  - { offset: 0x457902, size: 0x8, addend: 0x0, symName: _llama_supports_mlock, symObjAddr: 0x30, symBinAddr: 0xCCFA0, symSize: 0x10 }
  - { offset: 0x457929, size: 0x8, addend: 0x0, symName: _llama_supports_gpu_offload, symObjAddr: 0x40, symBinAddr: 0xCCFB0, symSize: 0x30 }
  - { offset: 0x4579A9, size: 0x8, addend: 0x0, symName: _llama_supports_rpc, symObjAddr: 0x70, symBinAddr: 0xCCFE0, symSize: 0x20 }
  - { offset: 0x4579CC, size: 0x8, addend: 0x0, symName: _llama_backend_init, symObjAddr: 0x90, symBinAddr: 0xCD000, symSize: 0x40 }
  - { offset: 0x457A61, size: 0x8, addend: 0x0, symName: _llama_numa_init, symObjAddr: 0xD0, symBinAddr: 0xCD040, symSize: 0x70 }
  - { offset: 0x457B50, size: 0x8, addend: 0x0, symName: _llama_backend_free, symObjAddr: 0x140, symBinAddr: 0xCD0B0, symSize: 0x10 }
  - { offset: 0x457B7E, size: 0x8, addend: 0x0, symName: _llama_time_us, symObjAddr: 0x150, symBinAddr: 0xCD0C0, symSize: 0x10 }
  - { offset: 0x457BB4, size: 0x8, addend: 0x0, symName: _llama_load_model_from_file, symObjAddr: 0x160, symBinAddr: 0xCD0D0, symSize: 0x10 }
  - { offset: 0x457C02, size: 0x8, addend: 0x0, symName: _llama_model_load_from_file, symObjAddr: 0x170, symBinAddr: 0xCD0E0, symSize: 0x1A0 }
  - { offset: 0x458A10, size: 0x8, addend: 0x0, symName: __ZL31llama_model_load_from_file_implRKNSt3__112basic_stringIcNS_11char_traitsIcEENS_9allocatorIcEEEERNS_6vectorIS5_NS3_IS5_EEEE18llama_model_params, symObjAddr: 0x310, symBinAddr: 0xCD280, symSize: 0xC50 }
  - { offset: 0x45D706, size: 0x8, addend: 0x0, symName: __ZNSt3__16vectorIP19ggml_backend_deviceNS_9allocatorIS2_EEE18__insert_with_sizeB8ne190107INS_11__wrap_iterIPS2_EES9_EES9_NS7_IPKS2_EET_T0_l, symObjAddr: 0x1D70, symBinAddr: 0xCEB00, symSize: 0x2F0 }
  - { offset: 0x45EB09, size: 0x8, addend: 0x0, symName: __ZNKSt3__16vectorIP19ggml_backend_deviceNS_9allocatorIS2_EEE20__throw_length_errorB8ne190107Ev, symObjAddr: 0x1C90, symBinAddr: 0xCEAF0, symSize: 0x10 }
  - { offset: 0x45EFE0, size: 0x8, addend: 0x0, symName: _llama_model_load_from_splits, symObjAddr: 0x1070, symBinAddr: 0xCDED0, symSize: 0x300 }
  - { offset: 0x45FD01, size: 0x8, addend: 0x0, symName: __ZNSt3__16vectorIPK18llama_chat_messageNS_9allocatorIS3_EEE8__appendEm, symObjAddr: 0x2300, symBinAddr: 0xCEDF0, symSize: 0x160 }
  - { offset: 0x45FFCA, size: 0x8, addend: 0x0, symName: _llama_chat_apply_template, symObjAddr: 0x1370, symBinAddr: 0xCE1D0, symSize: 0x2D0 }
  - { offset: 0x460DDC, size: 0x8, addend: 0x0, symName: __ZNSt3__16vectorIPK18llama_chat_messageNS_9allocatorIS3_EEE8__appendEm, symObjAddr: 0x2300, symBinAddr: 0xCEDF0, symSize: 0x160 }
  - { offset: 0x46132E, size: 0x8, addend: 0x0, symName: _llama_split_prefix, symObjAddr: 0x1680, symBinAddr: 0xCE4E0, symSize: 0x3C0 }
  - { offset: 0x46210B, size: 0x8, addend: 0x0, symName: '__ZZL31llama_model_load_from_file_implRKNSt3__112basic_stringIcNS_11char_traitsIcEENS_9allocatorIcEEEERNS_6vectorIS5_NS3_IS5_EEEE18llama_model_paramsEN3$_08__invokeEfPv', symObjAddr: 0x1BF0, symBinAddr: 0xCEA50, symSize: 0xA0 }
  - { offset: 0x46361A, size: 0x8, addend: 0x0, symName: __ZNKSt3__16vectorIPK18llama_chat_messageNS_9allocatorIS3_EEE20__throw_length_errorB8ne190107Ev, symObjAddr: 0x2460, symBinAddr: 0xCEF50, symSize: 0x10 }
  - { offset: 0x4654EE, size: 0x8, addend: 0x0, symName: _unicode_ranges_flags, symObjAddr: 0x101D8, symBinAddr: 0x229970, symSize: 0x0 }
  - { offset: 0x468EB5, size: 0x8, addend: 0x0, symName: _unicode_set_whitespace, symObjAddr: 0x2ADF8, symBinAddr: 0x2D6A90, symSize: 0x0 }
  - { offset: 0x469356, size: 0x8, addend: 0x0, symName: _unicode_map_lowercase, symObjAddr: 0x101E8, symBinAddr: 0x229980, symSize: 0x0 }
  - { offset: 0x469386, size: 0x8, addend: 0x0, symName: _unicode_map_uppercase, symObjAddr: 0x101F8, symBinAddr: 0x229990, symSize: 0x0 }
  - { offset: 0x46939D, size: 0x8, addend: 0x0, symName: _unicode_ranges_nfd, symObjAddr: 0x10208, symBinAddr: 0x2299A0, symSize: 0x0 }
  - { offset: 0x4695DE, size: 0x8, addend: 0x0, symName: __ZNSt3__113unordered_setIjNS_4hashIjEENS_8equal_toIjEENS_9allocatorIjEEED1B8ne190107Ev, symObjAddr: 0x0, symBinAddr: 0xCEF60, symSize: 0x60 }
  - { offset: 0x4698EF, size: 0x8, addend: 0x0, symName: __ZNSt3__112__hash_tableIjNS_4hashIjEENS_8equal_toIjEENS_9allocatorIjEEED1Ev, symObjAddr: 0x60, symBinAddr: 0xCEFC0, symSize: 0x60 }
  - { offset: 0x469EF1, size: 0x8, addend: 0x0, symName: __ZNSt3__112__hash_tableIjNS_4hashIjEENS_8equal_toIjEENS_9allocatorIjEEE25__emplace_unique_key_argsIjJRKjEEENS_4pairINS_15__hash_iteratorIPNS_11__hash_nodeIjPvEEEEbEERKT_DpOT0_, symObjAddr: 0xC0, symBinAddr: 0xCF020, symSize: 0x420 }
  - { offset: 0x46A5B2, size: 0x8, addend: 0x0, symName: __ZNSt3__112__hash_tableIjNS_4hashIjEENS_8equal_toIjEENS_9allocatorIjEEE11__do_rehashILb1EEEvm, symObjAddr: 0x520, symBinAddr: 0xCF440, symSize: 0x2A1 }
  - { offset: 0x46CA24, size: 0x8, addend: 0x0, symName: __Z26unicode_cpt_flags_from_cptj, symObjAddr: 0x9D0, symBinAddr: 0xD0360, symSize: 0xD0 }
  - { offset: 0x46CA45, size: 0x8, addend: 0x0, symName: __ZZ26unicode_cpt_flags_from_cptjE5undef, symObjAddr: 0x2F2BB0, symBinAddr: 0x296480, symSize: 0x0 }
  - { offset: 0x46CA5C, size: 0x8, addend: 0x0, symName: __ZZ26unicode_cpt_flags_from_cptjE9cpt_flags, symObjAddr: 0x2F2BC0, symBinAddr: 0x296490, symSize: 0x0 }
  - { offset: 0x4A2AC2, size: 0x8, addend: 0x0, symName: __ZNSt3__119__throw_range_errorB8ne190107EPKc, symObjAddr: 0x15EA0, symBinAddr: 0xD9380, symSize: 0x50 }
  - { offset: 0x4A8866, size: 0x8, addend: 0x0, symName: __Z27unicode_cpt_flags_from_utf8RKNSt3__112basic_stringIcNS_11char_traitsIcEENS_9allocatorIcEEEE, symObjAddr: 0xD00, symBinAddr: 0xD0690, symSize: 0x90 }
  - { offset: 0x4A8892, size: 0x8, addend: 0x0, symName: __ZZ27unicode_cpt_flags_from_utf8RKNSt3__112basic_stringIcNS_11char_traitsIcEENS_9allocatorIcEEEEE5undef, symObjAddr: 0x2F2BE0, symBinAddr: 0x2964B0, symSize: 0x0 }
  - { offset: 0x4A8949, size: 0x8, addend: 0x0, symName: __Z20unicode_byte_to_utf8h, symObjAddr: 0xD90, symBinAddr: 0xD0720, symSize: 0x1F0 }
  - { offset: 0x4A8975, size: 0x8, addend: 0x0, symName: __ZZ20unicode_byte_to_utf8hE3map, symObjAddr: 0x2F2BF0, symBinAddr: 0x2964C0, symSize: 0x0 }
  - { offset: 0x4A9165, size: 0x8, addend: 0x0, symName: __Z20unicode_utf8_to_byteRKNSt3__112basic_stringIcNS_11char_traitsIcEENS_9allocatorIcEEEE, symObjAddr: 0x13E0, symBinAddr: 0xD0D70, symSize: 0xA0 }
  - { offset: 0x4A9191, size: 0x8, addend: 0x0, symName: __ZZ20unicode_utf8_to_byteRKNSt3__112basic_stringIcNS_11char_traitsIcEENS_9allocatorIcEEEEE3map, symObjAddr: 0x2F2C20, symBinAddr: 0x2964F0, symSize: 0x0 }
  - { offset: 0x4A9726, size: 0x8, addend: 0x0, symName: __Z19unicode_regex_splitRKNSt3__112basic_stringIcNS_11char_traitsIcEENS_9allocatorIcEEEERKNS_6vectorIS5_NS3_IS5_EEEE, symObjAddr: 0x1AF0, symBinAddr: 0xD1480, symSize: 0x6050 }
  - { offset: 0x4A9752, size: 0x8, addend: 0x0, symName: __ZZ19unicode_regex_splitRKNSt3__112basic_stringIcNS_11char_traitsIcEENS_9allocatorIcEEEERKNS_6vectorIS5_NS3_IS5_EEEEE11k_ucat_enum, symObjAddr: 0x2F2C50, symBinAddr: 0x296520, symSize: 0x0 }
  - { offset: 0x4A9769, size: 0x8, addend: 0x0, symName: __ZZ19unicode_regex_splitRKNSt3__112basic_stringIcNS_11char_traitsIcEENS_9allocatorIcEEEERKNS_6vectorIS5_NS3_IS5_EEEEE10k_ucat_cpt, symObjAddr: 0x2F2C70, symBinAddr: 0x296540, symSize: 0x0 }
  - { offset: 0x4A9780, size: 0x8, addend: 0x0, symName: __ZZ19unicode_regex_splitRKNSt3__112basic_stringIcNS_11char_traitsIcEENS_9allocatorIcEEEERKNS_6vectorIS5_NS3_IS5_EEEEE10k_ucat_map, symObjAddr: 0x2F2C90, symBinAddr: 0x296560, symSize: 0x0 }
  - { offset: 0x4BB672, size: 0x8, addend: 0x0, symName: __Z16unicode_len_utf8c, symObjAddr: 0x0, symBinAddr: 0xCF9A0, symSize: 0x20 }
  - { offset: 0x4BB735, size: 0x8, addend: 0x0, symName: __Z21unicode_cpt_from_utf8RKNSt3__112basic_stringIcNS_11char_traitsIcEENS_9allocatorIcEEEERm, symObjAddr: 0x20, symBinAddr: 0xCF9C0, symSize: 0x290 }
  - { offset: 0x4BB9C4, size: 0x8, addend: 0x0, symName: __ZNSt16invalid_argumentC1B8ne190107EPKc, symObjAddr: 0x2B0, symBinAddr: 0xCFC50, symSize: 0x30 }
  - { offset: 0x4BBC0B, size: 0x8, addend: 0x0, symName: __Z19unicode_cpt_to_utf8j, symObjAddr: 0x2E0, symBinAddr: 0xCFC80, symSize: 0x150 }
  - { offset: 0x4BC043, size: 0x8, addend: 0x0, symName: __Z26unicode_cpts_normalize_nfdRKNSt3__16vectorIjNS_9allocatorIjEEEE, symObjAddr: 0x430, symBinAddr: 0xCFDD0, symSize: 0x210 }
  - { offset: 0x4BC749, size: 0x8, addend: 0x0, symName: __ZNSt3__16__treeINS_12__value_typeINS_12basic_stringIcNS_11char_traitsIcEENS_9allocatorIcEEEEiEENS_19__map_value_compareIS7_S8_NS_4lessIS7_EELb1EEENS5_IS8_EEE30__emplace_hint_unique_key_argsIS7_JRKNS_4pairIKS7_iEEEEENSG_INS_15__tree_iteratorIS8_PNS_11__tree_nodeIS8_PvEElEEbEENS_21__tree_const_iteratorIS8_SP_lEERKT_DpOT0_, symObjAddr: 0x22CD0, symBinAddr: 0xE6120, symSize: 0xF0 }
  - { offset: 0x4BCA67, size: 0x8, addend: 0x0, symName: __Z22unicode_cpts_from_utf8RKNSt3__112basic_stringIcNS_11char_traitsIcEENS_9allocatorIcEEEE, symObjAddr: 0x640, symBinAddr: 0xCFFE0, symSize: 0x260 }
  - { offset: 0x4BD30E, size: 0x8, addend: 0x0, symName: __ZNSt3__16vectorIjNS_9allocatorIjEEE12emplace_backIJiEEERjDpOT_, symObjAddr: 0x8A0, symBinAddr: 0xD0240, symSize: 0x120 }
  - { offset: 0x4BD8CC, size: 0x8, addend: 0x0, symName: __ZL23unicode_cpt_flags_arrayv, symObjAddr: 0xAA0, symBinAddr: 0xD0430, symSize: 0x230 }
  - { offset: 0x4BE156, size: 0x8, addend: 0x0, symName: __ZNSt3__16vectorI17unicode_cpt_flagsNS_9allocatorIS1_EEED1B8ne190107Ev, symObjAddr: 0xCD0, symBinAddr: 0xD0660, symSize: 0x30 }
  - { offset: 0x4BE673, size: 0x8, addend: 0x0, symName: __ZL24unicode_byte_to_utf8_mapv, symObjAddr: 0xF80, symBinAddr: 0xD0910, symSize: 0x3E0 }
  - { offset: 0x4BF33C, size: 0x8, addend: 0x0, symName: __ZNSt3__112__hash_tableINS_17__hash_value_typeIhNS_12basic_stringIcNS_11char_traitsIcEENS_9allocatorIcEEEEEENS_22__unordered_map_hasherIhS8_NS_4hashIhEENS_8equal_toIhEELb1EEENS_21__unordered_map_equalIhS8_SD_SB_Lb1EEENS5_IS8_EEE25__emplace_unique_key_argsIhJRKNS_21piecewise_construct_tENS_5tupleIJOhEEENSN_IJEEEEEENS_4pairINS_15__hash_iteratorIPNS_11__hash_nodeIS8_PvEEEEbEERKT_DpOT0_, symObjAddr: 0x8260, symBinAddr: 0xD7AB0, symSize: 0x460 }
  - { offset: 0x4BFB3F, size: 0x8, addend: 0x0, symName: __ZNSt3__113unordered_mapIhNS_12basic_stringIcNS_11char_traitsIcEENS_9allocatorIcEEEENS_4hashIhEENS_8equal_toIhEENS4_INS_4pairIKhS6_EEEEED1B8ne190107Ev, symObjAddr: 0x1360, symBinAddr: 0xD0CF0, symSize: 0x80 }
  - { offset: 0x4C02D3, size: 0x8, addend: 0x0, symName: __ZNSt3__112__hash_tableINS_17__hash_value_typeINS_12basic_stringIcNS_11char_traitsIcEENS_9allocatorIcEEEEhEENS_22__unordered_map_hasherIS7_S8_NS_4hashIS7_EENS_8equal_toIS7_EELb1EEENS_21__unordered_map_equalIS7_S8_SD_SB_Lb1EEENS5_IS8_EEE4findIS7_EENS_15__hash_iteratorIPNS_11__hash_nodeIS8_PvEEEERKT_, symObjAddr: 0x9740, symBinAddr: 0xD8AE0, symSize: 0x290 }
  - { offset: 0x4C05C2, size: 0x8, addend: 0x0, symName: __ZL24unicode_utf8_to_byte_mapv, symObjAddr: 0x1480, symBinAddr: 0xD0E10, symSize: 0x590 }
  - { offset: 0x4C15A2, size: 0x8, addend: 0x0, symName: __ZNSt3__112__hash_tableINS_17__hash_value_typeINS_12basic_stringIcNS_11char_traitsIcEENS_9allocatorIcEEEEhEENS_22__unordered_map_hasherIS7_S8_NS_4hashIS7_EENS_8equal_toIS7_EELb1EEENS_21__unordered_map_equalIS7_S8_SD_SB_Lb1EEENS5_IS8_EEE25__emplace_unique_key_argsIS7_JRKNS_21piecewise_construct_tENS_5tupleIJOS7_EEENSN_IJEEEEEENS_4pairINS_15__hash_iteratorIPNS_11__hash_nodeIS8_PvEEEEbEERKT_DpOT0_, symObjAddr: 0x89C0, symBinAddr: 0xD8210, symSize: 0x5D0 }
  - { offset: 0x4C1EA7, size: 0x8, addend: 0x0, symName: __ZNSt3__113unordered_mapINS_12basic_stringIcNS_11char_traitsIcEENS_9allocatorIcEEEEhNS_4hashIS6_EENS_8equal_toIS6_EENS4_INS_4pairIKS6_hEEEEED1B8ne190107Ev, symObjAddr: 0x1A10, symBinAddr: 0xD13A0, symSize: 0x80 }
  - { offset: 0x4C25DA, size: 0x8, addend: 0x0, symName: __Z15unicode_tolowerj, symObjAddr: 0x1A90, symBinAddr: 0xD1420, symSize: 0x60 }
  - { offset: 0x4C6280, size: 0x8, addend: 0x0, symName: __ZNKSt3__16__treeINS_12__value_typeINS_12basic_stringIcNS_11char_traitsIcEENS_9allocatorIcEEEEiEENS_19__map_value_compareIS7_S8_NS_4lessIS7_EELb1EEENS5_IS8_EEE4findIS7_EENS_21__tree_const_iteratorIS8_PNS_11__tree_nodeIS8_PvEElEERKT_, symObjAddr: 0x238E0, symBinAddr: 0xE6BB0, symSize: 0x105 }
  - { offset: 0x4C65C7, size: 0x8, addend: 0x0, symName: __ZNKSt3__13mapINS_12basic_stringIcNS_11char_traitsIcEENS_9allocatorIcEEEEiNS_4lessIS6_EENS4_INS_4pairIKS6_iEEEEE2atERSA_, symObjAddr: 0x8020, symBinAddr: 0xD79B0, symSize: 0x100 }
  - { offset: 0x4C6E74, size: 0x8, addend: 0x0, symName: __ZNSt3__115wstring_convertINS_12codecvt_utf8IwLm1114111ELNS_12codecvt_modeE0EEEwNS_9allocatorIwEENS4_IcEEE10from_bytesEPKcS9_, symObjAddr: 0x15930, symBinAddr: 0xD8E10, symSize: 0x360 }
  - { offset: 0x4C76F5, size: 0x8, addend: 0x0, symName: __ZNSt3__111basic_regexIwNS_12regex_traitsIwEEEC2B8ne190107INS_11char_traitsIwEENS_9allocatorIwEEEERKNS_12basic_stringIwT_T0_EENS_15regex_constants18syntax_option_typeE, symObjAddr: 0x16020, symBinAddr: 0xD9500, symSize: 0xD0 }
  - { offset: 0x4C78E9, size: 0x8, addend: 0x0, symName: __ZNKSt3__111basic_regexIwNS_12regex_traitsIwEEE8__searchINS_9allocatorINS_9sub_matchIPKwEEEEEEbS8_S8_RNS_13match_resultsIS8_T_EENS_15regex_constants15match_flag_typeE, symObjAddr: 0x1FE30, symBinAddr: 0xE3310, symSize: 0x340 }
  - { offset: 0x4C7E99, size: 0x8, addend: 0x0, symName: __ZNSt3__16vectorINS_12basic_stringIcNS_11char_traitsIcEENS_9allocatorIcEEEENS4_IS6_EEE24__emplace_back_slow_pathIJRS6_EEEPS6_DpOT_, symObjAddr: 0x22AC0, symBinAddr: 0xE5FA0, symSize: 0x180 }
  - { offset: 0x4C83D1, size: 0x8, addend: 0x0, symName: __ZNKSt3__16vectorINS_9sub_matchIPKwEENS_9allocatorIS4_EEE20__throw_length_errorB8ne190107Ev, symObjAddr: 0x186C0, symBinAddr: 0xDBBA0, symSize: 0x10 }
  - { offset: 0x4C83FB, size: 0x8, addend: 0x0, symName: __ZNSt3__17__stateIwED1Ev, symObjAddr: 0x186D0, symBinAddr: 0xDBBB0, symSize: 0x50 }
  - { offset: 0x4C844C, size: 0x8, addend: 0x0, symName: __ZNKSt3__112basic_stringIwNS_11char_traitsIwEENS_9allocatorIwEEE20__throw_length_errorB8ne190107Ev, symObjAddr: 0x15EF0, symBinAddr: 0xD93D0, symSize: 0x10 }
  - { offset: 0x4C8476, size: 0x8, addend: 0x0, symName: __ZNSt11range_errorC1B8ne190107EPKc, symObjAddr: 0x15F00, symBinAddr: 0xD93E0, symSize: 0x30 }
  - { offset: 0x4C84BF, size: 0x8, addend: 0x0, symName: __ZNSt3__14pairIKNS_12basic_stringIcNS_11char_traitsIcEENS_9allocatorIcEEEEiEC1B8ne190107IRA6_KcN17unicode_cpt_flagsUt_ETnNS_9enable_ifIXclsr10_CheckArgsE23__is_pair_constructibleIT_T0_EEEiE4typeELi0EEEOSG_OSH_, symObjAddr: 0x7B40, symBinAddr: 0xD74D0, symSize: 0xB0 }
  - { offset: 0x4C880E, size: 0x8, addend: 0x0, symName: __ZNSt3__13mapINS_12basic_stringIcNS_11char_traitsIcEENS_9allocatorIcEEEEiNS_4lessIS6_EENS4_INS_4pairIKS6_iEEEEEC1B8ne190107ESt16initializer_listISB_ERKS8_, symObjAddr: 0x7BF0, symBinAddr: 0xD7580, symSize: 0x70 }
  - { offset: 0x4C8A3C, size: 0x8, addend: 0x0, symName: __ZNSt3__13mapIiiNS_4lessIiEENS_9allocatorINS_4pairIKiiEEEEEC2B8ne190107ESt16initializer_listIS6_ERKS2_, symObjAddr: 0x23440, symBinAddr: 0xE6710, symSize: 0x170 }
  - { offset: 0x4C8F96, size: 0x8, addend: 0x0, symName: __ZNSt3__14pairIKiNS_12basic_stringIcNS_11char_traitsIcEENS_9allocatorIcEEEEEC1B8ne190107IN17unicode_cpt_flagsUt_ERA4_KcTnNS_9enable_ifIXclsr10_CheckArgsE23__is_pair_constructibleIT_T0_EEEiE4typeELi0EEEOSG_OSH_, symObjAddr: 0x7C80, symBinAddr: 0xD7610, symSize: 0xA0 }
  - { offset: 0x4C92E5, size: 0x8, addend: 0x0, symName: __ZNSt3__14pairIKiNS_12basic_stringIcNS_11char_traitsIcEENS_9allocatorIcEEEEEC1B8ne190107IN17unicode_cpt_flagsUt_ERA7_KcTnNS_9enable_ifIXclsr10_CheckArgsE23__is_pair_constructibleIT_T0_EEEiE4typeELi0EEEOSG_OSH_, symObjAddr: 0x7D20, symBinAddr: 0xD76B0, symSize: 0xA0 }
  - { offset: 0x4C9634, size: 0x8, addend: 0x0, symName: __ZNSt3__14pairIKiNS_12basic_stringIcNS_11char_traitsIcEENS_9allocatorIcEEEEEC1B8ne190107IN17unicode_cpt_flagsUt_ERA26_KcTnNS_9enable_ifIXclsr10_CheckArgsE23__is_pair_constructibleIT_T0_EEEiE4typeELi0EEEOSG_OSH_, symObjAddr: 0x7DC0, symBinAddr: 0xD7750, symSize: 0xA0 }
  - { offset: 0x4C9983, size: 0x8, addend: 0x0, symName: __ZNSt3__14pairIKiNS_12basic_stringIcNS_11char_traitsIcEENS_9allocatorIcEEEEEC1B8ne190107IN17unicode_cpt_flagsUt_ERA1_KcTnNS_9enable_ifIXclsr10_CheckArgsE23__is_pair_constructibleIT_T0_EEEiE4typeELi0EEEOSG_OSH_, symObjAddr: 0x7E60, symBinAddr: 0xD77F0, symSize: 0xA0 }
  - { offset: 0x4C9CD2, size: 0x8, addend: 0x0, symName: __ZNSt3__14pairIKiNS_12basic_stringIcNS_11char_traitsIcEENS_9allocatorIcEEEEEC1B8ne190107IN17unicode_cpt_flagsUt_ERA12_KcTnNS_9enable_ifIXclsr10_CheckArgsE23__is_pair_constructibleIT_T0_EEEiE4typeELi0EEEOSG_OSH_, symObjAddr: 0x7F00, symBinAddr: 0xD7890, symSize: 0xA0 }
  - { offset: 0x4CA00B, size: 0x8, addend: 0x0, symName: __ZNSt3__13mapIiNS_12basic_stringIcNS_11char_traitsIcEENS_9allocatorIcEEEENS_4lessIiEENS4_INS_4pairIKiS6_EEEEEC1B8ne190107ESt16initializer_listISB_ERKS8_, symObjAddr: 0x7FA0, symBinAddr: 0xD7930, symSize: 0x70 }
  - { offset: 0x4CA239, size: 0x8, addend: 0x0, symName: __ZNSt3__115wstring_convertINS_12codecvt_utf8IwLm1114111ELNS_12codecvt_modeE0EEEwNS_9allocatorIwEENS4_IcEEED1Ev, symObjAddr: 0x15890, symBinAddr: 0xD8D70, symSize: 0x60 }
  - { offset: 0x4CA7A6, size: 0x8, addend: 0x0, symName: __ZNSt3__111basic_regexIwNS_12regex_traitsIwEEED1Ev, symObjAddr: 0x15FD0, symBinAddr: 0xD94B0, symSize: 0x50 }
  - { offset: 0x4CAE4C, size: 0x8, addend: 0x0, symName: __ZNSt3__16__treeINS_12__value_typeINS_12basic_stringIcNS_11char_traitsIcEENS_9allocatorIcEEEEiEENS_19__map_value_compareIS7_S8_NS_4lessIS7_EELb1EEENS5_IS8_EEE30__emplace_hint_unique_key_argsIS7_JRKNS_4pairIKS7_iEEEEENSG_INS_15__tree_iteratorIS8_PNS_11__tree_nodeIS8_PvEElEEbEENS_21__tree_const_iteratorIS8_SP_lEERKT_DpOT0_, symObjAddr: 0x22CD0, symBinAddr: 0xE6120, symSize: 0xF0 }
  - { offset: 0x4CB26F, size: 0x8, addend: 0x0, symName: __ZNSt3__16__treeINS_12__value_typeINS_12basic_stringIcNS_11char_traitsIcEENS_9allocatorIcEEEEiEENS_19__map_value_compareIS7_S8_NS_4lessIS7_EELb1EEENS5_IS8_EEE7destroyEPNS_11__tree_nodeIS8_PvEE, symObjAddr: 0x233F0, symBinAddr: 0xE66C0, symSize: 0x50 }
  - { offset: 0x4CB5BA, size: 0x8, addend: 0x0, symName: __ZNSt3__13mapINS_12basic_stringIcNS_11char_traitsIcEENS_9allocatorIcEEEEiNS_4lessIS6_EENS4_INS_4pairIKS6_iEEEEED1B8ne190107Ev, symObjAddr: 0x7C60, symBinAddr: 0xD75F0, symSize: 0x10 }
  - { offset: 0x4CB6BF, size: 0x8, addend: 0x0, symName: __ZNSt3__13mapIiiNS_4lessIiEENS_9allocatorINS_4pairIKiiEEEEED1B8ne190107Ev, symObjAddr: 0x7C70, symBinAddr: 0xD7600, symSize: 0x10 }
  - { offset: 0x4CB772, size: 0x8, addend: 0x0, symName: __ZNSt3__16__treeINS_12__value_typeIiiEENS_19__map_value_compareIiS2_NS_4lessIiEELb1EEENS_9allocatorIS2_EEE7destroyEPNS_11__tree_nodeIS2_PvEE, symObjAddr: 0x235B0, symBinAddr: 0xE6880, symSize: 0x40 }
  - { offset: 0x4CBC0E, size: 0x8, addend: 0x0, symName: __ZNSt3__16__treeINS_12__value_typeIiNS_12basic_stringIcNS_11char_traitsIcEENS_9allocatorIcEEEEEENS_19__map_value_compareIiS8_NS_4lessIiEELb1EEENS5_IS8_EEE30__emplace_hint_unique_key_argsIiJRKNS_4pairIKiS7_EEEEENSG_INS_15__tree_iteratorIS8_PNS_11__tree_nodeIS8_PvEElEEbEENS_21__tree_const_iteratorIS8_SP_lEERKT_DpOT0_, symObjAddr: 0x235F0, symBinAddr: 0xE68C0, symSize: 0xF0 }
  - { offset: 0x4CC01D, size: 0x8, addend: 0x0, symName: __ZNSt3__16__treeINS_12__value_typeIiNS_12basic_stringIcNS_11char_traitsIcEENS_9allocatorIcEEEEEENS_19__map_value_compareIiS8_NS_4lessIiEELb1EEENS5_IS8_EEE7destroyEPNS_11__tree_nodeIS8_PvEE, symObjAddr: 0x23890, symBinAddr: 0xE6B60, symSize: 0x50 }
  - { offset: 0x4CC368, size: 0x8, addend: 0x0, symName: __ZNSt3__13mapIiNS_12basic_stringIcNS_11char_traitsIcEENS_9allocatorIcEEEENS_4lessIiEENS4_INS_4pairIKiS6_EEEEED1B8ne190107Ev, symObjAddr: 0x8010, symBinAddr: 0xD79A0, symSize: 0x10 }
  - { offset: 0x4CCB68, size: 0x8, addend: 0x0, symName: __ZNSt3__112__hash_tableINS_17__hash_value_typeIhNS_12basic_stringIcNS_11char_traitsIcEENS_9allocatorIcEEEEEENS_22__unordered_map_hasherIhS8_NS_4hashIhEENS_8equal_toIhEELb1EEENS_21__unordered_map_equalIhS8_SD_SB_Lb1EEENS5_IS8_EEE11__do_rehashILb1EEEvm, symObjAddr: 0x8710, symBinAddr: 0xD7F60, symSize: 0x2B0 }
  - { offset: 0x4CD028, size: 0x8, addend: 0x0, symName: __ZNSt3__110unique_ptrINS_11__hash_nodeINS_17__hash_value_typeIhNS_12basic_stringIcNS_11char_traitsIcEENS_9allocatorIcEEEEEEPvEENS_22__hash_node_destructorINS6_ISB_EEEEED1B8ne190107Ev, symObjAddr: 0x86C0, symBinAddr: 0xD7F10, symSize: 0x50 }
  - { offset: 0x4CE15E, size: 0x8, addend: 0x0, symName: __ZNSt3__112__hash_tableINS_17__hash_value_typeINS_12basic_stringIcNS_11char_traitsIcEENS_9allocatorIcEEEEhEENS_22__unordered_map_hasherIS7_S8_NS_4hashIS7_EENS_8equal_toIS7_EELb1EEENS_21__unordered_map_equalIS7_S8_SD_SB_Lb1EEENS5_IS8_EEE11__do_rehashILb1EEEvm, symObjAddr: 0x9490, symBinAddr: 0xD8830, symSize: 0x2B0 }
  - { offset: 0x4CE61E, size: 0x8, addend: 0x0, symName: __ZNSt3__110unique_ptrINS_11__hash_nodeINS_17__hash_value_typeINS_12basic_stringIcNS_11char_traitsIcEENS_9allocatorIcEEEEhEEPvEENS_22__hash_node_destructorINS6_ISB_EEEEED1B8ne190107Ev, symObjAddr: 0x8F90, symBinAddr: 0xD87E0, symSize: 0x50 }
  - { offset: 0x4E5EED, size: 0x8, addend: 0x0, symName: __ZNSt3__112codecvt_utf8IwLm1114111ELNS_12codecvt_modeE0EED1B8ne190107Ev, symObjAddr: 0x158F0, symBinAddr: 0xD8DD0, symSize: 0x10 }
  - { offset: 0x4E5F5F, size: 0x8, addend: 0x0, symName: __ZNSt3__112codecvt_utf8IwLm1114111ELNS_12codecvt_modeE0EED0B8ne190107Ev, symObjAddr: 0x15900, symBinAddr: 0xD8DE0, symSize: 0x30 }
  - { offset: 0x4E61EA, size: 0x8, addend: 0x0, symName: __ZNSt3__112basic_stringIwNS_11char_traitsIwEENS_9allocatorIwEEE25__init_copy_ctor_externalEPKwm, symObjAddr: 0x15F30, symBinAddr: 0xD9410, symSize: 0xA0 }
  - { offset: 0x4E641A, size: 0x8, addend: 0x0, symName: __ZNSt3__112basic_stringIwNS_11char_traitsIwEENS_9allocatorIwEEE6appendB8ne190107IPKwTnNS_9enable_ifIXsr31__has_forward_iterator_categoryIT_EE5valueEiE4typeELi0EEERS5_SA_SA_, symObjAddr: 0x15C90, symBinAddr: 0xD9170, symSize: 0x210 }
  - { offset: 0x4E706F, size: 0x8, addend: 0x0, symName: __ZNSt11range_errorC1B8ne190107EPKc, symObjAddr: 0x15F00, symBinAddr: 0xD93E0, symSize: 0x30 }
  - { offset: 0x4E71C2, size: 0x8, addend: 0x0, symName: __ZNSt3__111basic_regexIwNS_12regex_traitsIwEEE7__parseINS_11__wrap_iterIPKwEEEET_S9_S9_, symObjAddr: 0x16130, symBinAddr: 0xD9610, symSize: 0x1C0 }
  - { offset: 0x4E76BF, size: 0x8, addend: 0x0, symName: __ZNSt3__110shared_ptrINS_13__empty_stateIwEEED1B8ne190107Ev, symObjAddr: 0x160F0, symBinAddr: 0xD95D0, symSize: 0x40 }
  - { offset: 0x4E7D58, size: 0x8, addend: 0x0, symName: __ZNSt3__111basic_regexIwNS_12regex_traitsIwEEE13__parse_egrepINS_11__wrap_iterIPKwEEEET_S9_S9_, symObjAddr: 0x16A50, symBinAddr: 0xD9F30, symSize: 0x1F0 }
  - { offset: 0x4E83B0, size: 0x8, addend: 0x0, symName: __ZNSt3__111basic_regexIwNS_12regex_traitsIwEEE24__parse_extended_reg_expINS_11__wrap_iterIPKwEEEET_S9_S9_, symObjAddr: 0x166D0, symBinAddr: 0xD9BB0, symSize: 0x190 }
  - { offset: 0x4E8808, size: 0x8, addend: 0x0, symName: __ZNSt3__111basic_regexIwNS_12regex_traitsIwEEE21__parse_basic_reg_expINS_11__wrap_iterIPKwEEEET_S9_S9_, symObjAddr: 0x16570, symBinAddr: 0xD9A50, symSize: 0x160 }
  - { offset: 0x4E8C5A, size: 0x8, addend: 0x0, symName: __ZNSt3__111basic_regexIwNS_12regex_traitsIwEEE12__parse_grepINS_11__wrap_iterIPKwEEEET_S9_S9_, symObjAddr: 0x16860, symBinAddr: 0xD9D40, symSize: 0x1F0 }
  - { offset: 0x4E92B2, size: 0x8, addend: 0x0, symName: __ZNSt3__111basic_regexIwNS_12regex_traitsIwEEE16__parse_ecma_expINS_11__wrap_iterIPKwEEEET_S9_S9_, symObjAddr: 0x162F0, symBinAddr: 0xD97D0, symSize: 0x280 }
  - { offset: 0x4E998C, size: 0x8, addend: 0x0, symName: __ZNSt3__113__empty_stateIwED0Ev, symObjAddr: 0x16D50, symBinAddr: 0xDA230, symSize: 0x40 }
  - { offset: 0x4E99BC, size: 0x8, addend: 0x0, symName: __ZNSt3__113__empty_stateIwED0Ev, symObjAddr: 0x16D50, symBinAddr: 0xDA230, symSize: 0x40 }
  - { offset: 0x4E99DA, size: 0x8, addend: 0x0, symName: __ZNSt3__113__empty_stateIwED0Ev, symObjAddr: 0x16D50, symBinAddr: 0xDA230, symSize: 0x40 }
  - { offset: 0x4E99F8, size: 0x8, addend: 0x0, symName: __ZNSt3__113__empty_stateIwED0Ev, symObjAddr: 0x16D50, symBinAddr: 0xDA230, symSize: 0x40 }
  - { offset: 0x4E9C56, size: 0x8, addend: 0x0, symName: __ZNSt3__111basic_regexIwNS_12regex_traitsIwEEE17__parse_assertionINS_11__wrap_iterIPKwEEEET_S9_S9_, symObjAddr: 0x16E20, symBinAddr: 0xDA300, symSize: 0x2D0 }
  - { offset: 0x4EA39E, size: 0x8, addend: 0x0, symName: __ZNSt3__111basic_regexIwNS_12regex_traitsIwEEE12__parse_atomINS_11__wrap_iterIPKwEEEET_S9_S9_, symObjAddr: 0x170F0, symBinAddr: 0xDA5D0, symSize: 0x2C0 }
  - { offset: 0x4EA81B, size: 0x8, addend: 0x0, symName: __ZNSt3__111basic_regexIwNS_12regex_traitsIwEEE23__parse_ERE_dupl_symbolINS_11__wrap_iterIPKwEEEET_S9_S9_PNS_16__owns_one_stateIwEEjj, symObjAddr: 0x173B0, symBinAddr: 0xDA890, symSize: 0x460 }
  - { offset: 0x4EB275, size: 0x8, addend: 0x0, symName: __ZNSt3__111basic_regexIwNS_12regex_traitsIwEEE18__parse_nondupl_REINS_11__wrap_iterIPKwEEEET_S9_S9_, symObjAddr: 0x1F170, symBinAddr: 0xE2650, symSize: 0x200 }
  - { offset: 0x4EB944, size: 0x8, addend: 0x0, symName: __ZNSt3__111basic_regexIwNS_12regex_traitsIwEEE22__parse_RE_dupl_symbolINS_11__wrap_iterIPKwEEEET_S9_S9_PNS_16__owns_one_stateIwEEjj, symObjAddr: 0x1F370, symBinAddr: 0xE2850, symSize: 0x2D0 }
  - { offset: 0x4EC242, size: 0x8, addend: 0x0, symName: __ZNSt3__111basic_regexIwNS_12regex_traitsIwEEE22__parse_ERE_expressionINS_11__wrap_iterIPKwEEEET_S9_S9_, symObjAddr: 0x1F830, symBinAddr: 0xE2D10, symSize: 0x260 }
  - { offset: 0x4EC79E, size: 0x8, addend: 0x0, symName: __ZNSt3__111basic_regexIwNS_12regex_traitsIwEEE20__parse_ORD_CHAR_EREINS_11__wrap_iterIPKwEEEET_S9_S9_, symObjAddr: 0x1FA90, symBinAddr: 0xE2F70, symSize: 0x1B0 }
  - { offset: 0x4EC7CE, size: 0x8, addend: 0x0, symName: __ZNSt3__111__end_stateIwED1Ev, symObjAddr: 0x16C40, symBinAddr: 0xDA120, symSize: 0x10 }
  - { offset: 0x4EC7FA, size: 0x8, addend: 0x0, symName: __ZNSt3__111__end_stateIwED0Ev, symObjAddr: 0x16C50, symBinAddr: 0xDA130, symSize: 0x10 }
  - { offset: 0x4EC826, size: 0x8, addend: 0x0, symName: __ZNKSt3__111__end_stateIwE6__execERNS_7__stateIwEE, symObjAddr: 0x16C60, symBinAddr: 0xDA140, symSize: 0x10 }
  - { offset: 0x4EC85A, size: 0x8, addend: 0x0, symName: __ZNKSt3__16__nodeIwE12__exec_splitEbRNS_7__stateIwEE, symObjAddr: 0x16C70, symBinAddr: 0xDA150, symSize: 0x10 }
  - { offset: 0x4EC8A1, size: 0x8, addend: 0x0, symName: __ZNKSt3__16__nodeIwE6__execERNS_7__stateIwEE, symObjAddr: 0x16C80, symBinAddr: 0xDA160, symSize: 0x10 }
  - { offset: 0x4EC8ED, size: 0x8, addend: 0x0, symName: __ZNSt3__120__shared_ptr_pointerIPNS_13__empty_stateIwEENS_10shared_ptrIS2_E27__shared_ptr_default_deleteIS2_S2_EENS_9allocatorIS2_EEED1Ev, symObjAddr: 0x16C90, symBinAddr: 0xDA170, symSize: 0x10 }
  - { offset: 0x4EC945, size: 0x8, addend: 0x0, symName: __ZNSt3__120__shared_ptr_pointerIPNS_13__empty_stateIwEENS_10shared_ptrIS2_E27__shared_ptr_default_deleteIS2_S2_EENS_9allocatorIS2_EEED0Ev, symObjAddr: 0x16CA0, symBinAddr: 0xDA180, symSize: 0x30 }
  - { offset: 0x4EC9AA, size: 0x8, addend: 0x0, symName: __ZNSt3__120__shared_ptr_pointerIPNS_13__empty_stateIwEENS_10shared_ptrIS2_E27__shared_ptr_default_deleteIS2_S2_EENS_9allocatorIS2_EEE16__on_zero_sharedEv, symObjAddr: 0x16CD0, symBinAddr: 0xDA1B0, symSize: 0x20 }
  - { offset: 0x4EC9F9, size: 0x8, addend: 0x0, symName: __ZNKSt3__120__shared_ptr_pointerIPNS_13__empty_stateIwEENS_10shared_ptrIS2_E27__shared_ptr_default_deleteIS2_S2_EENS_9allocatorIS2_EEE13__get_deleterERKSt9type_info, symObjAddr: 0x16CF0, symBinAddr: 0xDA1D0, symSize: 0x20 }
  - { offset: 0x4ECAB9, size: 0x8, addend: 0x0, symName: __ZNSt3__120__shared_ptr_pointerIPNS_13__empty_stateIwEENS_10shared_ptrIS2_E27__shared_ptr_default_deleteIS2_S2_EENS_9allocatorIS2_EEE21__on_zero_shared_weakEv, symObjAddr: 0x16D10, symBinAddr: 0xDA1F0, symSize: 0x10 }
  - { offset: 0x4ECBC0, size: 0x8, addend: 0x0, symName: __ZNSt3__113__empty_stateIwED1Ev, symObjAddr: 0x16D20, symBinAddr: 0xDA200, symSize: 0x30 }
  - { offset: 0x4ECC64, size: 0x8, addend: 0x0, symName: __ZNKSt3__113__empty_stateIwE6__execERNS_7__stateIwEE, symObjAddr: 0x16D90, symBinAddr: 0xDA270, symSize: 0x20 }
  - { offset: 0x4ECCB5, size: 0x8, addend: 0x0, symName: __ZNSt3__116__owns_one_stateIwED1Ev, symObjAddr: 0x16DB0, symBinAddr: 0xDA290, symSize: 0x30 }
  - { offset: 0x4ECD1C, size: 0x8, addend: 0x0, symName: __ZNSt3__116__owns_one_stateIwED0Ev, symObjAddr: 0x16DE0, symBinAddr: 0xDA2C0, symSize: 0x40 }
  - { offset: 0x4ECD49, size: 0x8, addend: 0x0, symName: __ZNSt3__116__owns_one_stateIwED0Ev, symObjAddr: 0x16DE0, symBinAddr: 0xDA2C0, symSize: 0x40 }
  - { offset: 0x4ECD67, size: 0x8, addend: 0x0, symName: __ZNSt3__116__owns_one_stateIwED0Ev, symObjAddr: 0x16DE0, symBinAddr: 0xDA2C0, symSize: 0x40 }
  - { offset: 0x4ECE8C, size: 0x8, addend: 0x0, symName: __ZNSt3__111basic_regexIwNS_12regex_traitsIwEEEC1B8ne190107Ev, symObjAddr: 0x17810, symBinAddr: 0xDACF0, symSize: 0x60 }
  - { offset: 0x4ECF53, size: 0x8, addend: 0x0, symName: __ZNSt3__111basic_regexIwNS_12regex_traitsIwEEE16__push_lookaheadERKS3_bj, symObjAddr: 0x17870, symBinAddr: 0xDAD50, symSize: 0xC0 }
  - { offset: 0x4ED341, size: 0x8, addend: 0x0, symName: __ZNSt3__111basic_regexIwNS_12regex_traitsIwEEE19__parse_atom_escapeINS_11__wrap_iterIPKwEEEET_S9_S9_, symObjAddr: 0x190A0, symBinAddr: 0xDC580, symSize: 0x100 }
  - { offset: 0x4ED5C1, size: 0x8, addend: 0x0, symName: __ZNSt3__111basic_regexIwNS_12regex_traitsIwEEE26__parse_bracket_expressionINS_11__wrap_iterIPKwEEEET_S9_S9_, symObjAddr: 0x191A0, symBinAddr: 0xDC680, symSize: 0x150 }
  - { offset: 0x4ED8D0, size: 0x8, addend: 0x0, symName: __ZNSt3__111basic_regexIwNS_12regex_traitsIwEEE25__parse_pattern_characterINS_11__wrap_iterIPKwEEEET_S9_S9_, symObjAddr: 0x192F0, symBinAddr: 0xDC7D0, symSize: 0x1B0 }
  - { offset: 0x4EDAFA, size: 0x8, addend: 0x0, symName: __ZNSt3__111basic_regexIwNS_12regex_traitsIwEEE11__push_loopEmmPNS_16__owns_one_stateIwEEmmb, symObjAddr: 0x1EA30, symBinAddr: 0xE1F10, symSize: 0x130 }
  - { offset: 0x4EE055, size: 0x8, addend: 0x0, symName: __ZNSt3__120__l_anchor_multilineIwED1Ev, symObjAddr: 0x17930, symBinAddr: 0xDAE10, symSize: 0x30 }
  - { offset: 0x4EE0DE, size: 0x8, addend: 0x0, symName: __ZNSt3__120__l_anchor_multilineIwED0Ev, symObjAddr: 0x17960, symBinAddr: 0xDAE40, symSize: 0x40 }
  - { offset: 0x4EE10E, size: 0x8, addend: 0x0, symName: __ZNSt3__120__l_anchor_multilineIwED0Ev, symObjAddr: 0x17960, symBinAddr: 0xDAE40, symSize: 0x40 }
  - { offset: 0x4EE12C, size: 0x8, addend: 0x0, symName: __ZNSt3__120__l_anchor_multilineIwED0Ev, symObjAddr: 0x17960, symBinAddr: 0xDAE40, symSize: 0x40 }
  - { offset: 0x4EE14A, size: 0x8, addend: 0x0, symName: __ZNSt3__120__l_anchor_multilineIwED0Ev, symObjAddr: 0x17960, symBinAddr: 0xDAE40, symSize: 0x40 }
  - { offset: 0x4EE175, size: 0x8, addend: 0x0, symName: __ZNKSt3__120__l_anchor_multilineIwE6__execERNS_7__stateIwEE, symObjAddr: 0x179A0, symBinAddr: 0xDAE80, symSize: 0x60 }
  - { offset: 0x4EE1DA, size: 0x8, addend: 0x0, symName: __ZNSt3__120__r_anchor_multilineIwED1Ev, symObjAddr: 0x17A00, symBinAddr: 0xDAEE0, symSize: 0x30 }
  - { offset: 0x4EE263, size: 0x8, addend: 0x0, symName: __ZNSt3__120__r_anchor_multilineIwED0Ev, symObjAddr: 0x17A30, symBinAddr: 0xDAF10, symSize: 0x40 }
  - { offset: 0x4EE293, size: 0x8, addend: 0x0, symName: __ZNSt3__120__r_anchor_multilineIwED0Ev, symObjAddr: 0x17A30, symBinAddr: 0xDAF10, symSize: 0x40 }
  - { offset: 0x4EE2B1, size: 0x8, addend: 0x0, symName: __ZNSt3__120__r_anchor_multilineIwED0Ev, symObjAddr: 0x17A30, symBinAddr: 0xDAF10, symSize: 0x40 }
  - { offset: 0x4EE2CF, size: 0x8, addend: 0x0, symName: __ZNSt3__120__r_anchor_multilineIwED0Ev, symObjAddr: 0x17A30, symBinAddr: 0xDAF10, symSize: 0x40 }
  - { offset: 0x4EE2FA, size: 0x8, addend: 0x0, symName: __ZNKSt3__120__r_anchor_multilineIwE6__execERNS_7__stateIwEE, symObjAddr: 0x17A70, symBinAddr: 0xDAF50, symSize: 0x60 }
  - { offset: 0x4EE385, size: 0x8, addend: 0x0, symName: __ZNSt3__115__word_boundaryIwNS_12regex_traitsIwEEED1Ev, symObjAddr: 0x17AD0, symBinAddr: 0xDAFB0, symSize: 0x50 }
  - { offset: 0x4EE448, size: 0x8, addend: 0x0, symName: __ZNSt3__115__word_boundaryIwNS_12regex_traitsIwEEED0Ev, symObjAddr: 0x17B20, symBinAddr: 0xDB000, symSize: 0x50 }
  - { offset: 0x4EE573, size: 0x8, addend: 0x0, symName: __ZNKSt3__115__word_boundaryIwNS_12regex_traitsIwEEE6__execERNS_7__stateIwEE, symObjAddr: 0x17B70, symBinAddr: 0xDB050, symSize: 0x130 }
  - { offset: 0x4EE784, size: 0x8, addend: 0x0, symName: __ZNSt3__111__lookaheadIwNS_12regex_traitsIwEEED1Ev, symObjAddr: 0x17CA0, symBinAddr: 0xDB180, symSize: 0x90 }
  - { offset: 0x4EE91E, size: 0x8, addend: 0x0, symName: __ZNSt3__111__lookaheadIwNS_12regex_traitsIwEEED0Ev, symObjAddr: 0x17D30, symBinAddr: 0xDB210, symSize: 0x90 }
  - { offset: 0x4EEB82, size: 0x8, addend: 0x0, symName: __ZNKSt3__111__lookaheadIwNS_12regex_traitsIwEEE6__execERNS_7__stateIwEE, symObjAddr: 0x17DC0, symBinAddr: 0xDB2A0, symSize: 0x1B0 }
  - { offset: 0x4EF1D4, size: 0x8, addend: 0x0, symName: __ZNSt3__16vectorINS_9sub_matchIPKwEENS_9allocatorIS4_EEE6assignEmRKS4_, symObjAddr: 0x184A0, symBinAddr: 0xDB980, symSize: 0x220 }
  - { offset: 0x4EF871, size: 0x8, addend: 0x0, symName: __ZNKSt3__111basic_regexIwNS_12regex_traitsIwEEE21__match_at_start_ecmaINS_9allocatorINS_9sub_matchIPKwEEEEEEbS8_S8_RNS_13match_resultsIS8_T_EENS_15regex_constants15match_flag_typeEb, symObjAddr: 0x17F70, symBinAddr: 0xDB450, symSize: 0x530 }
  - { offset: 0x4F1341, size: 0x8, addend: 0x0, symName: __ZNSt3__16vectorINS_7__stateIwEENS_9allocatorIS2_EEE21__push_back_slow_pathIS2_EEPS2_OT_, symObjAddr: 0x187C0, symBinAddr: 0xDBCA0, symSize: 0x1E0 }
  - { offset: 0x4F1C08, size: 0x8, addend: 0x0, symName: __ZNSt3__16vectorINS_9sub_matchIPKwEENS_9allocatorIS4_EEE8__appendEmRKS4_, symObjAddr: 0x18BC0, symBinAddr: 0xDC0A0, symSize: 0x1D0 }
  - { offset: 0x4F20D4, size: 0x8, addend: 0x0, symName: __ZNSt3__16vectorINS_4pairImPKwEENS_9allocatorIS4_EEE8__appendEm, symObjAddr: 0x18D90, symBinAddr: 0xDC270, symSize: 0x150 }
  - { offset: 0x4F259A, size: 0x8, addend: 0x0, symName: __ZNSt3__17__stateIwEC2ERKS1_, symObjAddr: 0x18EF0, symBinAddr: 0xDC3D0, symSize: 0x1B0 }
  - { offset: 0x4F2CB7, size: 0x8, addend: 0x0, symName: __ZNSt3__17__stateIwED1Ev, symObjAddr: 0x186D0, symBinAddr: 0xDBBB0, symSize: 0x50 }
  - { offset: 0x4F3014, size: 0x8, addend: 0x0, symName: __ZNSt3__16vectorINS_7__stateIwEENS_9allocatorIS2_EEED1B8ne190107Ev, symObjAddr: 0x18720, symBinAddr: 0xDBC00, symSize: 0xA0 }
  - { offset: 0x4F392C, size: 0x8, addend: 0x0, symName: __ZNSt3__16vectorINS_7__stateIwEENS_9allocatorIS2_EEE26__swap_out_circular_bufferERNS_14__split_bufferIS2_RS4_EE, symObjAddr: 0x189A0, symBinAddr: 0xDBE80, symSize: 0x180 }
  - { offset: 0x4F3F8E, size: 0x8, addend: 0x0, symName: __ZNKSt3__16vectorINS_7__stateIwEENS_9allocatorIS2_EEE20__throw_length_errorB8ne190107Ev, symObjAddr: 0x18BB0, symBinAddr: 0xDC090, symSize: 0x10 }
  - { offset: 0x4F3FB8, size: 0x8, addend: 0x0, symName: __ZNSt3__16vectorINS_9sub_matchIPKwEENS_9allocatorIS4_EEE8__appendEmRKS4_, symObjAddr: 0x18BC0, symBinAddr: 0xDC0A0, symSize: 0x1D0 }
  - { offset: 0x4F3FC3, size: 0x8, addend: 0x0, symName: __ZNSt3__114__split_bufferINS_7__stateIwEERNS_9allocatorIS2_EEED1Ev, symObjAddr: 0x18B20, symBinAddr: 0xDC000, symSize: 0x90 }
  - { offset: 0x4F4971, size: 0x8, addend: 0x0, symName: __ZNKSt3__16vectorINS_4pairImPKwEENS_9allocatorIS4_EEE20__throw_length_errorB8ne190107Ev, symObjAddr: 0x18EE0, symBinAddr: 0xDC3C0, symSize: 0x10 }
  - { offset: 0x4F499B, size: 0x8, addend: 0x0, symName: __ZNSt3__17__stateIwEC2ERKS1_, symObjAddr: 0x18EF0, symBinAddr: 0xDC3D0, symSize: 0x1B0 }
  - { offset: 0x4F4C0B, size: 0x8, addend: 0x0, symName: __ZNSt3__111basic_regexIwNS_12regex_traitsIwEEE11__push_charEw, symObjAddr: 0x19C90, symBinAddr: 0xDD170, symSize: 0x140 }
  - { offset: 0x4F4FAF, size: 0x8, addend: 0x0, symName: __ZNSt3__111basic_regexIwNS_12regex_traitsIwEEE15__push_back_refEi, symObjAddr: 0x19DD0, symBinAddr: 0xDD2B0, symSize: 0xD0 }
  - { offset: 0x4F5201, size: 0x8, addend: 0x0, symName: __ZNSt3__111basic_regexIwNS_12regex_traitsIwEEE30__parse_character_class_escapeINS_11__wrap_iterIPKwEEEET_S9_S9_, symObjAddr: 0x19510, symBinAddr: 0xDC9F0, symSize: 0x2E0 }
  - { offset: 0x4F57A0, size: 0x8, addend: 0x0, symName: __ZNSt3__111basic_regexIwNS_12regex_traitsIwEEE24__parse_character_escapeINS_11__wrap_iterIPKwEEEET_S9_S9_PNS_12basic_stringIwNS_11char_traitsIwEENS_9allocatorIwEEEE, symObjAddr: 0x197F0, symBinAddr: 0xDCCD0, symSize: 0x4A0 }
  - { offset: 0x4F5F08, size: 0x8, addend: 0x0, symName: __ZNSt3__120__bracket_expressionIwNS_12regex_traitsIwEEEC2B8ne190107ERKS2_PNS_6__nodeIwEEbbb, symObjAddr: 0x1A7D0, symBinAddr: 0xDDCB0, symSize: 0x1D0 }
  - { offset: 0x4F67EE, size: 0x8, addend: 0x0, symName: __ZNSt3__120__bracket_expressionIwNS_12regex_traitsIwEEE10__add_charB8ne190107Ew, symObjAddr: 0x1A4F0, symBinAddr: 0xDD9D0, symSize: 0x2E0 }
  - { offset: 0x4F705F, size: 0x8, addend: 0x0, symName: __ZNSt3__111basic_regexIwNS_12regex_traitsIwEEE23__parse_expression_termINS_11__wrap_iterIPKwEEEET_S9_S9_PNS_20__bracket_expressionIwS2_EE, symObjAddr: 0x1C020, symBinAddr: 0xDF500, symSize: 0x4A0 }
  - { offset: 0x4F8343, size: 0x8, addend: 0x0, symName: __ZNSt3__123__match_any_but_newlineIwED1Ev, symObjAddr: 0x194A0, symBinAddr: 0xDC980, symSize: 0x30 }
  - { offset: 0x4F83CC, size: 0x8, addend: 0x0, symName: __ZNSt3__123__match_any_but_newlineIwED0Ev, symObjAddr: 0x194D0, symBinAddr: 0xDC9B0, symSize: 0x40 }
  - { offset: 0x4F83FC, size: 0x8, addend: 0x0, symName: __ZNSt3__123__match_any_but_newlineIwED0Ev, symObjAddr: 0x194D0, symBinAddr: 0xDC9B0, symSize: 0x40 }
  - { offset: 0x4F841A, size: 0x8, addend: 0x0, symName: __ZNSt3__123__match_any_but_newlineIwED0Ev, symObjAddr: 0x194D0, symBinAddr: 0xDC9B0, symSize: 0x40 }
  - { offset: 0x4F8438, size: 0x8, addend: 0x0, symName: __ZNSt3__123__match_any_but_newlineIwED0Ev, symObjAddr: 0x194D0, symBinAddr: 0xDC9B0, symSize: 0x40 }
  - { offset: 0x4F8868, size: 0x8, addend: 0x0, symName: __ZNSt3__118__match_char_icaseIwNS_12regex_traitsIwEEED1Ev, symObjAddr: 0x19EA0, symBinAddr: 0xDD380, symSize: 0x50 }
  - { offset: 0x4F892B, size: 0x8, addend: 0x0, symName: __ZNSt3__118__match_char_icaseIwNS_12regex_traitsIwEEED0Ev, symObjAddr: 0x19EF0, symBinAddr: 0xDD3D0, symSize: 0x50 }
  - { offset: 0x4F89FA, size: 0x8, addend: 0x0, symName: __ZNKSt3__118__match_char_icaseIwNS_12regex_traitsIwEEE6__execERNS_7__stateIwEE, symObjAddr: 0x19F40, symBinAddr: 0xDD420, symSize: 0x50 }
  - { offset: 0x4F8AC1, size: 0x8, addend: 0x0, symName: __ZNSt3__120__match_char_collateIwNS_12regex_traitsIwEEED1Ev, symObjAddr: 0x19F90, symBinAddr: 0xDD470, symSize: 0x50 }
  - { offset: 0x4F8B84, size: 0x8, addend: 0x0, symName: __ZNSt3__120__match_char_collateIwNS_12regex_traitsIwEEED0Ev, symObjAddr: 0x19FE0, symBinAddr: 0xDD4C0, symSize: 0x50 }
  - { offset: 0x4F8C53, size: 0x8, addend: 0x0, symName: __ZNKSt3__120__match_char_collateIwNS_12regex_traitsIwEEE6__execERNS_7__stateIwEE, symObjAddr: 0x1A030, symBinAddr: 0xDD510, symSize: 0x40 }
  - { offset: 0x4F8CC1, size: 0x8, addend: 0x0, symName: __ZNSt3__112__match_charIwED1Ev, symObjAddr: 0x1A070, symBinAddr: 0xDD550, symSize: 0x30 }
  - { offset: 0x4F8D4A, size: 0x8, addend: 0x0, symName: __ZNSt3__112__match_charIwED0Ev, symObjAddr: 0x1A0A0, symBinAddr: 0xDD580, symSize: 0x40 }
  - { offset: 0x4F8D7A, size: 0x8, addend: 0x0, symName: __ZNSt3__112__match_charIwED0Ev, symObjAddr: 0x1A0A0, symBinAddr: 0xDD580, symSize: 0x40 }
  - { offset: 0x4F8D98, size: 0x8, addend: 0x0, symName: __ZNSt3__112__match_charIwED0Ev, symObjAddr: 0x1A0A0, symBinAddr: 0xDD580, symSize: 0x40 }
  - { offset: 0x4F8DB6, size: 0x8, addend: 0x0, symName: __ZNSt3__112__match_charIwED0Ev, symObjAddr: 0x1A0A0, symBinAddr: 0xDD580, symSize: 0x40 }
  - { offset: 0x4F8DE1, size: 0x8, addend: 0x0, symName: __ZNKSt3__112__match_charIwE6__execERNS_7__stateIwEE, symObjAddr: 0x1A0E0, symBinAddr: 0xDD5C0, symSize: 0x40 }
  - { offset: 0x4F8E4F, size: 0x8, addend: 0x0, symName: __ZNSt3__116__back_ref_icaseIwNS_12regex_traitsIwEEED1Ev, symObjAddr: 0x1A120, symBinAddr: 0xDD600, symSize: 0x50 }
  - { offset: 0x4F8F12, size: 0x8, addend: 0x0, symName: __ZNSt3__116__back_ref_icaseIwNS_12regex_traitsIwEEED0Ev, symObjAddr: 0x1A170, symBinAddr: 0xDD650, symSize: 0x50 }
  - { offset: 0x4F8FE1, size: 0x8, addend: 0x0, symName: __ZNKSt3__116__back_ref_icaseIwNS_12regex_traitsIwEEE6__execERNS_7__stateIwEE, symObjAddr: 0x1A1C0, symBinAddr: 0xDD6A0, symSize: 0xE0 }
  - { offset: 0x4F916F, size: 0x8, addend: 0x0, symName: __ZNSt3__118__back_ref_collateIwNS_12regex_traitsIwEEED1Ev, symObjAddr: 0x1A2A0, symBinAddr: 0xDD780, symSize: 0x50 }
  - { offset: 0x4F9232, size: 0x8, addend: 0x0, symName: __ZNSt3__118__back_ref_collateIwNS_12regex_traitsIwEEED0Ev, symObjAddr: 0x1A2F0, symBinAddr: 0xDD7D0, symSize: 0x50 }
  - { offset: 0x4F9301, size: 0x8, addend: 0x0, symName: __ZNKSt3__118__back_ref_collateIwNS_12regex_traitsIwEEE6__execERNS_7__stateIwEE, symObjAddr: 0x1A340, symBinAddr: 0xDD820, symSize: 0x90 }
  - { offset: 0x4F93DA, size: 0x8, addend: 0x0, symName: __ZNSt3__110__back_refIwED1Ev, symObjAddr: 0x1A3D0, symBinAddr: 0xDD8B0, symSize: 0x30 }
  - { offset: 0x4F9463, size: 0x8, addend: 0x0, symName: __ZNSt3__110__back_refIwED0Ev, symObjAddr: 0x1A400, symBinAddr: 0xDD8E0, symSize: 0x40 }
  - { offset: 0x4F9493, size: 0x8, addend: 0x0, symName: __ZNSt3__110__back_refIwED0Ev, symObjAddr: 0x1A400, symBinAddr: 0xDD8E0, symSize: 0x40 }
  - { offset: 0x4F94B1, size: 0x8, addend: 0x0, symName: __ZNSt3__110__back_refIwED0Ev, symObjAddr: 0x1A400, symBinAddr: 0xDD8E0, symSize: 0x40 }
  - { offset: 0x4F94CF, size: 0x8, addend: 0x0, symName: __ZNSt3__110__back_refIwED0Ev, symObjAddr: 0x1A400, symBinAddr: 0xDD8E0, symSize: 0x40 }
  - { offset: 0x4F94FA, size: 0x8, addend: 0x0, symName: __ZNKSt3__110__back_refIwE6__execERNS_7__stateIwEE, symObjAddr: 0x1A440, symBinAddr: 0xDD920, symSize: 0xB0 }
  - { offset: 0x4F9A31, size: 0x8, addend: 0x0, symName: __ZNKSt3__16vectorIwNS_9allocatorIwEEE20__throw_length_errorB8ne190107Ev, symObjAddr: 0x1C010, symBinAddr: 0xDF4F0, symSize: 0x10 }
  - { offset: 0x4F9A5B, size: 0x8, addend: 0x0, symName: __ZNSt3__111basic_regexIwNS_12regex_traitsIwEEE23__parse_expression_termINS_11__wrap_iterIPKwEEEET_S9_S9_PNS_20__bracket_expressionIwS2_EE, symObjAddr: 0x1C020, symBinAddr: 0xDF500, symSize: 0x4A0 }
  - { offset: 0x4F9C53, size: 0x8, addend: 0x0, symName: __ZNSt3__16vectorINS_12basic_stringIwNS_11char_traitsIwEENS_9allocatorIwEEEENS4_IS6_EEED1B8ne190107Ev, symObjAddr: 0x1A9A0, symBinAddr: 0xDDE80, symSize: 0x80 }
  - { offset: 0x4F9F63, size: 0x8, addend: 0x0, symName: __ZNSt3__16vectorINS_4pairINS_12basic_stringIwNS_11char_traitsIwEENS_9allocatorIwEEEES7_EENS5_IS8_EEED1B8ne190107Ev, symObjAddr: 0x1AA20, symBinAddr: 0xDDF00, symSize: 0xB0 }
  - { offset: 0x4FA6C5, size: 0x8, addend: 0x0, symName: __ZNSt3__120__bracket_expressionIwNS_12regex_traitsIwEEED1Ev, symObjAddr: 0x1AAD0, symBinAddr: 0xDDFB0, symSize: 0x10 }
  - { offset: 0x4FA6FB, size: 0x8, addend: 0x0, symName: __ZNSt3__120__bracket_expressionIwNS_12regex_traitsIwEEED2Ev, symObjAddr: 0x1B620, symBinAddr: 0xDEB00, symSize: 0x1A0 }
  - { offset: 0x4FB433, size: 0x8, addend: 0x0, symName: __ZNSt3__120__bracket_expressionIwNS_12regex_traitsIwEEED0Ev, symObjAddr: 0x1AAE0, symBinAddr: 0xDDFC0, symSize: 0x30 }
  - { offset: 0x4FB8D0, size: 0x8, addend: 0x0, symName: __ZNKSt3__120__bracket_expressionIwNS_12regex_traitsIwEEE6__execERNS_7__stateIwEE, symObjAddr: 0x1AB10, symBinAddr: 0xDDFF0, symSize: 0xAC0 }
  - { offset: 0x4FDA93, size: 0x8, addend: 0x0, symName: __ZNKSt3__112regex_traitsIwE20__lookup_collatenameIPwEENS_12basic_stringIwNS_11char_traitsIwEENS_9allocatorIwEEEET_SA_w, symObjAddr: 0x1B910, symBinAddr: 0xDEDF0, symSize: 0x550 }
  - { offset: 0x4FEF62, size: 0x8, addend: 0x0, symName: __ZNKSt3__112regex_traitsIwE9transformIPwEENS_12basic_stringIwNS_11char_traitsIwEENS_9allocatorIwEEEET_SA_, symObjAddr: 0x1B7C0, symBinAddr: 0xDECA0, symSize: 0x150 }
  - { offset: 0x4FF658, size: 0x8, addend: 0x0, symName: __ZNKSt3__112regex_traitsIwE19__transform_primaryIPwEENS_12basic_stringIwNS_11char_traitsIwEENS_9allocatorIwEEEET_SA_w, symObjAddr: 0x1BE60, symBinAddr: 0xDF340, symSize: 0x1B0 }
  - { offset: 0x4FFE78, size: 0x8, addend: 0x0, symName: __ZNSt3__14pairINS_12basic_stringIwNS_11char_traitsIwEENS_9allocatorIwEEEES6_ED1Ev, symObjAddr: 0x1B5D0, symBinAddr: 0xDEAB0, symSize: 0x50 }
  - { offset: 0x50039F, size: 0x8, addend: 0x0, symName: __ZNSt3__111basic_regexIwNS_12regex_traitsIwEEE25__parse_equivalence_classINS_11__wrap_iterIPKwEEEET_S9_S9_PNS_20__bracket_expressionIwS2_EE, symObjAddr: 0x1C4C0, symBinAddr: 0xDF9A0, symSize: 0x280 }
  - { offset: 0x500F8A, size: 0x8, addend: 0x0, symName: __ZNSt3__111basic_regexIwNS_12regex_traitsIwEEE18__parse_awk_escapeINS_11__wrap_iterIPKwEEEET_S9_S9_PNS_12basic_stringIwNS_11char_traitsIwEENS_9allocatorIwEEEE, symObjAddr: 0x1CA50, symBinAddr: 0xDFF30, symSize: 0x2E0 }
  - { offset: 0x501104, size: 0x8, addend: 0x0, symName: __ZNSt3__111basic_regexIwNS_12regex_traitsIwEEE23__parse_character_classINS_11__wrap_iterIPKwEEEET_S9_S9_PNS_20__bracket_expressionIwS2_EE, symObjAddr: 0x1C740, symBinAddr: 0xDFC20, symSize: 0x90 }
  - { offset: 0x5013C1, size: 0x8, addend: 0x0, symName: __ZNSt3__111basic_regexIwNS_12regex_traitsIwEEE24__parse_collating_symbolINS_11__wrap_iterIPKwEEEET_S9_S9_RNS_12basic_stringIwNS_11char_traitsIwEENS_9allocatorIwEEEE, symObjAddr: 0x1C7D0, symBinAddr: 0xDFCB0, symSize: 0xE0 }
  - { offset: 0x5017CF, size: 0x8, addend: 0x0, symName: __ZNSt3__111basic_regexIwNS_12regex_traitsIwEEE20__parse_class_escapeINS_11__wrap_iterIPKwEEEET_S9_S9_RNS_12basic_stringIwNS_11char_traitsIwEENS_9allocatorIwEEEEPNS_20__bracket_expressionIwS2_EE, symObjAddr: 0x1C8B0, symBinAddr: 0xDFD90, symSize: 0x1A0 }
  - { offset: 0x5019AE, size: 0x8, addend: 0x0, symName: __ZNSt3__120__bracket_expressionIwNS_12regex_traitsIwEEE13__add_digraphB8ne190107Eww, symObjAddr: 0x1D590, symBinAddr: 0xE0A70, symSize: 0x250 }
  - { offset: 0x5021B7, size: 0x8, addend: 0x0, symName: __ZNSt3__120__bracket_expressionIwNS_12regex_traitsIwEEE11__add_rangeB8ne190107ENS_12basic_stringIwNS_11char_traitsIwEENS_9allocatorIwEEEES9_, symObjAddr: 0x1CD30, symBinAddr: 0xE0210, symSize: 0x860 }
  - { offset: 0x503765, size: 0x8, addend: 0x0, symName: __ZNKSt3__112regex_traitsIwE20__lookup_collatenameINS_11__wrap_iterIPKwEEEENS_12basic_stringIwNS_11char_traitsIwEENS_9allocatorIwEEEET_SD_w, symObjAddr: 0x1D7E0, symBinAddr: 0xE0CC0, symSize: 0x550 }
  - { offset: 0x504C49, size: 0x8, addend: 0x0, symName: __ZNKSt3__112regex_traitsIwE19__transform_primaryINS_11__wrap_iterIPwEEEENS_12basic_stringIwNS_11char_traitsIwEENS_9allocatorIwEEEET_SC_w, symObjAddr: 0x1DD30, symBinAddr: 0xE1210, symSize: 0x1B0 }
  - { offset: 0x50547E, size: 0x8, addend: 0x0, symName: __ZNSt3__16vectorINS_12basic_stringIwNS_11char_traitsIwEENS_9allocatorIwEEEENS4_IS6_EEE21__push_back_slow_pathIRKS6_EEPS6_OT_, symObjAddr: 0x1DEE0, symBinAddr: 0xE13C0, symSize: 0x180 }
  - { offset: 0x5059F7, size: 0x8, addend: 0x0, symName: __ZNKSt3__112regex_traitsIwE18__lookup_classnameINS_11__wrap_iterIPKwEEEEjT_S7_bw, symObjAddr: 0x1E0E0, symBinAddr: 0xE15C0, symSize: 0x220 }
  - { offset: 0x506641, size: 0x8, addend: 0x0, symName: __ZNSt3__120__bracket_expressionIwNS_12regex_traitsIwEEE14__add_neg_charB8ne190107Ew, symObjAddr: 0x1E300, symBinAddr: 0xE17E0, symSize: 0x2E0 }
  - { offset: 0x506F78, size: 0x8, addend: 0x0, symName: __ZNSt3__16vectorINS_4pairINS_12basic_stringIwNS_11char_traitsIwEENS_9allocatorIwEEEES7_EENS5_IS8_EEE9push_backB8ne190107EOS8_, symObjAddr: 0x1E5E0, symBinAddr: 0xE1AC0, symSize: 0x1A0 }
  - { offset: 0x50757A, size: 0x8, addend: 0x0, symName: __ZNKSt3__112regex_traitsIwE9transformINS_11__wrap_iterIPwEEEENS_12basic_stringIwNS_11char_traitsIwEENS_9allocatorIwEEEET_SC_, symObjAddr: 0x1E780, symBinAddr: 0xE1C60, symSize: 0x150 }
  - { offset: 0x507F37, size: 0x8, addend: 0x0, symName: __ZNKSt3__16vectorINS_4pairIwwEENS_9allocatorIS2_EEE20__throw_length_errorB8ne190107Ev, symObjAddr: 0x1E8E0, symBinAddr: 0xE1DC0, symSize: 0x10 }
  - { offset: 0x507F61, size: 0x8, addend: 0x0, symName: __ZNSt3__128__begin_marked_subexpressionIwED1Ev, symObjAddr: 0x1E8F0, symBinAddr: 0xE1DD0, symSize: 0x30 }
  - { offset: 0x50849F, size: 0x8, addend: 0x0, symName: __ZNKSt3__16vectorINS_12basic_stringIwNS_11char_traitsIwEENS_9allocatorIwEEEENS4_IS6_EEE20__throw_length_errorB8ne190107Ev, symObjAddr: 0x1E0D0, symBinAddr: 0xE15B0, symSize: 0x10 }
  - { offset: 0x5084C9, size: 0x8, addend: 0x0, symName: __ZNKSt3__112regex_traitsIwE18__lookup_classnameINS_11__wrap_iterIPKwEEEEjT_S7_bw, symObjAddr: 0x1E0E0, symBinAddr: 0xE15C0, symSize: 0x220 }
  - { offset: 0x5084D4, size: 0x8, addend: 0x0, symName: __ZNSt3__114__split_bufferINS_12basic_stringIwNS_11char_traitsIwEENS_9allocatorIwEEEERNS4_IS6_EEED1Ev, symObjAddr: 0x1E060, symBinAddr: 0xE1540, symSize: 0x70 }
  - { offset: 0x508B36, size: 0x8, addend: 0x0, symName: __ZNKSt3__16vectorINS_4pairINS_12basic_stringIwNS_11char_traitsIwEENS_9allocatorIwEEEES7_EENS5_IS8_EEE20__throw_length_errorB8ne190107Ev, symObjAddr: 0x1E8D0, symBinAddr: 0xE1DB0, symSize: 0x10 }
  - { offset: 0x508B60, size: 0x8, addend: 0x0, symName: __ZNKSt3__16vectorINS_4pairIwwEENS_9allocatorIS2_EEE20__throw_length_errorB8ne190107Ev, symObjAddr: 0x1E8E0, symBinAddr: 0xE1DC0, symSize: 0x10 }
  - { offset: 0x508B88, size: 0x8, addend: 0x0, symName: __ZNSt3__128__begin_marked_subexpressionIwED1Ev, symObjAddr: 0x1E8F0, symBinAddr: 0xE1DD0, symSize: 0x30 }
  - { offset: 0x508C11, size: 0x8, addend: 0x0, symName: __ZNSt3__128__begin_marked_subexpressionIwED0Ev, symObjAddr: 0x1E920, symBinAddr: 0xE1E00, symSize: 0x40 }
  - { offset: 0x508C41, size: 0x8, addend: 0x0, symName: __ZNSt3__128__begin_marked_subexpressionIwED0Ev, symObjAddr: 0x1E920, symBinAddr: 0xE1E00, symSize: 0x40 }
  - { offset: 0x508C5F, size: 0x8, addend: 0x0, symName: __ZNSt3__128__begin_marked_subexpressionIwED0Ev, symObjAddr: 0x1E920, symBinAddr: 0xE1E00, symSize: 0x40 }
  - { offset: 0x508C7D, size: 0x8, addend: 0x0, symName: __ZNSt3__128__begin_marked_subexpressionIwED0Ev, symObjAddr: 0x1E920, symBinAddr: 0xE1E00, symSize: 0x40 }
  - { offset: 0x508CA8, size: 0x8, addend: 0x0, symName: __ZNKSt3__128__begin_marked_subexpressionIwE6__execERNS_7__stateIwEE, symObjAddr: 0x1E960, symBinAddr: 0xE1E40, symSize: 0x30 }
  - { offset: 0x508D3C, size: 0x8, addend: 0x0, symName: __ZNSt3__126__end_marked_subexpressionIwED1Ev, symObjAddr: 0x1E990, symBinAddr: 0xE1E70, symSize: 0x30 }
  - { offset: 0x508DC5, size: 0x8, addend: 0x0, symName: __ZNSt3__126__end_marked_subexpressionIwED0Ev, symObjAddr: 0x1E9C0, symBinAddr: 0xE1EA0, symSize: 0x40 }
  - { offset: 0x508DF5, size: 0x8, addend: 0x0, symName: __ZNSt3__126__end_marked_subexpressionIwED0Ev, symObjAddr: 0x1E9C0, symBinAddr: 0xE1EA0, symSize: 0x40 }
  - { offset: 0x508E13, size: 0x8, addend: 0x0, symName: __ZNSt3__126__end_marked_subexpressionIwED0Ev, symObjAddr: 0x1E9C0, symBinAddr: 0xE1EA0, symSize: 0x40 }
  - { offset: 0x508E31, size: 0x8, addend: 0x0, symName: __ZNSt3__126__end_marked_subexpressionIwED0Ev, symObjAddr: 0x1E9C0, symBinAddr: 0xE1EA0, symSize: 0x40 }
  - { offset: 0x508E5C, size: 0x8, addend: 0x0, symName: __ZNKSt3__126__end_marked_subexpressionIwE6__execERNS_7__stateIwEE, symObjAddr: 0x1EA00, symBinAddr: 0xE1EE0, symSize: 0x30 }
  - { offset: 0x509168, size: 0x8, addend: 0x0, symName: __ZNSt3__16__loopIwED0Ev, symObjAddr: 0x1EBB0, symBinAddr: 0xE2090, symSize: 0x60 }
  - { offset: 0x50925F, size: 0x8, addend: 0x0, symName: __ZNSt3__16__loopIwED1Ev, symObjAddr: 0x1EB60, symBinAddr: 0xE2040, symSize: 0x50 }
  - { offset: 0x509385, size: 0x8, addend: 0x0, symName: __ZNKSt3__16__loopIwE6__execERNS_7__stateIwEE, symObjAddr: 0x1EC10, symBinAddr: 0xE20F0, symSize: 0x260 }
  - { offset: 0x5094EB, size: 0x8, addend: 0x0, symName: __ZNKSt3__16__loopIwE12__exec_splitEbRNS_7__stateIwEE, symObjAddr: 0x1EE70, symBinAddr: 0xE2350, symSize: 0xF0 }
  - { offset: 0x5095D2, size: 0x8, addend: 0x0, symName: __ZNSt3__117__owns_two_statesIwED1Ev, symObjAddr: 0x1EF60, symBinAddr: 0xE2440, symSize: 0x50 }
  - { offset: 0x509664, size: 0x8, addend: 0x0, symName: __ZNSt3__117__owns_two_statesIwED0Ev, symObjAddr: 0x1EFB0, symBinAddr: 0xE2490, symSize: 0x60 }
  - { offset: 0x509702, size: 0x8, addend: 0x0, symName: __ZNSt3__117__repeat_one_loopIwED1Ev, symObjAddr: 0x1F010, symBinAddr: 0xE24F0, symSize: 0x10 }
  - { offset: 0x50972E, size: 0x8, addend: 0x0, symName: __ZNSt3__117__repeat_one_loopIwED0Ev, symObjAddr: 0x1F020, symBinAddr: 0xE2500, symSize: 0x10 }
  - { offset: 0x50975A, size: 0x8, addend: 0x0, symName: __ZNKSt3__117__repeat_one_loopIwE6__execERNS_7__stateIwEE, symObjAddr: 0x1F030, symBinAddr: 0xE2510, symSize: 0x20 }
  - { offset: 0x5097C8, size: 0x8, addend: 0x0, symName: __ZNSt3__111__alternateIwED1Ev, symObjAddr: 0x1F050, symBinAddr: 0xE2530, symSize: 0x50 }
  - { offset: 0x50987C, size: 0x8, addend: 0x0, symName: __ZNSt3__111__alternateIwED0Ev, symObjAddr: 0x1F0A0, symBinAddr: 0xE2580, symSize: 0x60 }
  - { offset: 0x50993C, size: 0x8, addend: 0x0, symName: __ZNKSt3__111__alternateIwE6__execERNS_7__stateIwEE, symObjAddr: 0x1F100, symBinAddr: 0xE25E0, symSize: 0x10 }
  - { offset: 0x509970, size: 0x8, addend: 0x0, symName: __ZNKSt3__111__alternateIwE12__exec_splitEbRNS_7__stateIwEE, symObjAddr: 0x1F110, symBinAddr: 0xE25F0, symSize: 0x20 }
  - { offset: 0x5099BF, size: 0x8, addend: 0x0, symName: __ZNSt3__121__empty_non_own_stateIwED1Ev, symObjAddr: 0x1F130, symBinAddr: 0xE2610, symSize: 0x10 }
  - { offset: 0x5099EB, size: 0x8, addend: 0x0, symName: __ZNSt3__121__empty_non_own_stateIwED0Ev, symObjAddr: 0x1F140, symBinAddr: 0xE2620, symSize: 0x10 }
  - { offset: 0x509A17, size: 0x8, addend: 0x0, symName: __ZNKSt3__121__empty_non_own_stateIwE6__execERNS_7__stateIwEE, symObjAddr: 0x1F150, symBinAddr: 0xE2630, symSize: 0x20 }
  - { offset: 0x509B65, size: 0x8, addend: 0x0, symName: __ZNSt3__111basic_regexIwNS_12regex_traitsIwEEE32__parse_one_char_or_coll_elem_REINS_11__wrap_iterIPKwEEEET_S9_S9_, symObjAddr: 0x1F640, symBinAddr: 0xE2B20, symSize: 0xD0 }
  - { offset: 0x509F70, size: 0x8, addend: 0x0, symName: __ZNSt3__111__match_anyIwED1Ev, symObjAddr: 0x1F710, symBinAddr: 0xE2BF0, symSize: 0x30 }
  - { offset: 0x509FF9, size: 0x8, addend: 0x0, symName: __ZNSt3__111__match_anyIwED0Ev, symObjAddr: 0x1F740, symBinAddr: 0xE2C20, symSize: 0x40 }
  - { offset: 0x50A029, size: 0x8, addend: 0x0, symName: __ZNSt3__111__match_anyIwED0Ev, symObjAddr: 0x1F740, symBinAddr: 0xE2C20, symSize: 0x40 }
  - { offset: 0x50A047, size: 0x8, addend: 0x0, symName: __ZNSt3__111__match_anyIwED0Ev, symObjAddr: 0x1F740, symBinAddr: 0xE2C20, symSize: 0x40 }
  - { offset: 0x50A065, size: 0x8, addend: 0x0, symName: __ZNSt3__111__match_anyIwED0Ev, symObjAddr: 0x1F740, symBinAddr: 0xE2C20, symSize: 0x40 }
  - { offset: 0x50A090, size: 0x8, addend: 0x0, symName: __ZNKSt3__111__match_anyIwE6__execERNS_7__stateIwEE, symObjAddr: 0x1F780, symBinAddr: 0xE2C60, symSize: 0x40 }
  - { offset: 0x50A0E1, size: 0x8, addend: 0x0, symName: __ZNSt3__111basic_regexIwNS_12regex_traitsIwEEE15__test_back_refEw, symObjAddr: 0x1F7C0, symBinAddr: 0xE2CA0, symSize: 0x70 }
  - { offset: 0x50A25D, size: 0x8, addend: 0x0, symName: __ZNSt3__111basic_regexIwNS_12regex_traitsIwEEE20__parse_ORD_CHAR_EREINS_11__wrap_iterIPKwEEEET_S9_S9_, symObjAddr: 0x1FA90, symBinAddr: 0xE2F70, symSize: 0x1B0 }
  - { offset: 0x50A2FA, size: 0x8, addend: 0x0, symName: __ZNSt3__111basic_regexIwNS_12regex_traitsIwEEE23__parse_QUOTED_CHAR_EREINS_11__wrap_iterIPKwEEEET_S9_S9_, symObjAddr: 0x1FC40, symBinAddr: 0xE3120, symSize: 0x1F0 }
  - { offset: 0x50A4EC, size: 0x8, addend: 0x0, symName: __ZNKSt3__111basic_regexIwNS_12regex_traitsIwEEE27__match_at_start_posix_subsINS_9allocatorINS_9sub_matchIPKwEEEEEEbS8_S8_RNS_13match_resultsIS8_T_EENS_15regex_constants15match_flag_typeEb, symObjAddr: 0x20C00, symBinAddr: 0xE40E0, symSize: 0x780 }
  - { offset: 0x50C90C, size: 0x8, addend: 0x0, symName: __ZNKSt3__111basic_regexIwNS_12regex_traitsIwEEE29__match_at_start_posix_nosubsINS_9allocatorINS_9sub_matchIPKwEEEEEEbS8_S8_RNS_13match_resultsIS8_T_EENS_15regex_constants15match_flag_typeEb, symObjAddr: 0x20170, symBinAddr: 0xE3650, symSize: 0xA90 }
  - { offset: 0x50F0B3, size: 0x8, addend: 0x0, symName: __ZNSt3__15dequeINS_7__stateIwEENS_9allocatorIS2_EEE19__add_back_capacityEv, symObjAddr: 0x21570, symBinAddr: 0xE4A50, symSize: 0x780 }
  - { offset: 0x5108F3, size: 0x8, addend: 0x0, symName: __ZNSt3__15dequeINS_7__stateIwEENS_9allocatorIS2_EEE20__add_front_capacityEv, symObjAddr: 0x22100, symBinAddr: 0xE55E0, symSize: 0x410 }
  - { offset: 0x5118BD, size: 0x8, addend: 0x0, symName: __ZNSt3__15dequeINS_7__stateIwEENS_9allocatorIS2_EEED1B8ne190107Ev, symObjAddr: 0x214F0, symBinAddr: 0xE49D0, symSize: 0x80 }
  - { offset: 0x511CD3, size: 0x8, addend: 0x0, symName: __ZNSt3__16vectorINS_9sub_matchIPKwEENS_9allocatorIS4_EEE18__assign_with_sizeB8ne190107IPS4_S9_EEvT_T0_l, symObjAddr: 0x22700, symBinAddr: 0xE5BE0, symSize: 0x200 }
  - { offset: 0x512589, size: 0x8, addend: 0x0, symName: __ZNSt3__16vectorINS_4pairImPKwEENS_9allocatorIS4_EEE18__assign_with_sizeB8ne190107IPS4_S9_EEvT_T0_l, symObjAddr: 0x22900, symBinAddr: 0xE5DE0, symSize: 0x1C0 }
  - { offset: 0x512DC4, size: 0x8, addend: 0x0, symName: __ZNSt3__15dequeINS_7__stateIwEENS_9allocatorIS2_EEE5clearEv, symObjAddr: 0x21380, symBinAddr: 0xE4860, symSize: 0x170 }
  - { offset: 0x5139FD, size: 0x8, addend: 0x0, symName: __ZNSt3__114__split_bufferIPNS_7__stateIwEENS_9allocatorIS3_EEE9push_backEOS3_, symObjAddr: 0x21CF0, symBinAddr: 0xE51D0, symSize: 0x1E0 }
  - { offset: 0x513EA9, size: 0x8, addend: 0x0, symName: __ZNSt3__114__split_bufferIPNS_7__stateIwEENS_9allocatorIS3_EEE10push_frontEOS3_, symObjAddr: 0x21ED0, symBinAddr: 0xE53B0, symSize: 0x1F0 }
  - { offset: 0x51437A, size: 0x8, addend: 0x0, symName: __ZNSt3__114__split_bufferIPNS_7__stateIwEERNS_9allocatorIS3_EEED1Ev, symObjAddr: 0x220C0, symBinAddr: 0xE55A0, symSize: 0x40 }
  - { offset: 0x5145C0, size: 0x8, addend: 0x0, symName: __ZNSt3__114__split_bufferIPNS_7__stateIwEENS_9allocatorIS3_EEE10push_frontERKS3_, symObjAddr: 0x22510, symBinAddr: 0xE59F0, symSize: 0x1F0 }
  - { offset: 0x514EA2, size: 0x8, addend: 0x0, symName: __ZNSt3__16__treeINS_12__value_typeINS_12basic_stringIcNS_11char_traitsIcEENS_9allocatorIcEEEEiEENS_19__map_value_compareIS7_S8_NS_4lessIS7_EELb1EEENS5_IS8_EEE12__find_equalIS7_EERPNS_16__tree_node_baseIPvEENS_21__tree_const_iteratorIS8_PNS_11__tree_nodeIS8_SH_EElEERPNS_15__tree_end_nodeISJ_EESK_RKT_, symObjAddr: 0x22DC0, symBinAddr: 0xE6210, symSize: 0x460 }
  - { offset: 0x515C69, size: 0x8, addend: 0x0, symName: __ZNSt3__110unique_ptrINS_11__tree_nodeINS_12__value_typeINS_12basic_stringIcNS_11char_traitsIcEENS_9allocatorIcEEEEiEEPvEENS_22__tree_node_destructorINS6_ISB_EEEEED1B8ne190107Ev, symObjAddr: 0x23220, symBinAddr: 0xE6670, symSize: 0x50 }
  - { offset: 0x51684B, size: 0x8, addend: 0x0, symName: __ZNSt3__16__treeINS_12__value_typeIiNS_12basic_stringIcNS_11char_traitsIcEENS_9allocatorIcEEEEEENS_19__map_value_compareIiS8_NS_4lessIiEELb1EEENS5_IS8_EEE12__find_equalIiEERPNS_16__tree_node_baseIPvEENS_21__tree_const_iteratorIS8_PNS_11__tree_nodeIS8_SH_EElEERPNS_15__tree_end_nodeISJ_EESK_RKT_, symObjAddr: 0x236E0, symBinAddr: 0xE69B0, symSize: 0x160 }
  - { offset: 0x516C8D, size: 0x8, addend: 0x0, symName: __ZNSt3__110unique_ptrINS_11__tree_nodeINS_12__value_typeIiNS_12basic_stringIcNS_11char_traitsIcEENS_9allocatorIcEEEEEEPvEENS_22__tree_node_destructorINS6_ISB_EEEEED1B8ne190107Ev, symObjAddr: 0x23840, symBinAddr: 0xE6B10, symSize: 0x50 }
  - { offset: 0x51D93D, size: 0x8, addend: 0x0, symName: __ZNSt3__14__fs10filesystemdvB8ne190107ERKNS1_4pathES4_, symObjAddr: 0x33B0, symBinAddr: 0xE9F00, symSize: 0xB0 }
  - { offset: 0x52B6AF, size: 0x8, addend: 0x0, symName: _ggml_backend_register, symObjAddr: 0x0, symBinAddr: 0xE6CC0, symSize: 0xD0 }
  - { offset: 0x52B870, size: 0x8, addend: 0x0, symName: __ZN21ggml_backend_registry16register_backendEP16ggml_backend_regNSt3__110unique_ptrIv17dl_handle_deleterEE, symObjAddr: 0xD0, symBinAddr: 0xE6D90, symSize: 0x1F0 }
  - { offset: 0x52C0CB, size: 0x8, addend: 0x0, symName: __ZN21ggml_backend_registryC2Ev, symObjAddr: 0x2D20, symBinAddr: 0xE99E0, symSize: 0x120 }
  - { offset: 0x52C6E2, size: 0x8, addend: 0x0, symName: __ZNSt3__110unique_ptrIv17dl_handle_deleterED1B8ne190107Ev, symObjAddr: 0x2C0, symBinAddr: 0xE6F80, symSize: 0x30 }
  - { offset: 0x52CD85, size: 0x8, addend: 0x0, symName: __ZNSt3__16vectorI22ggml_backend_reg_entryNS_9allocatorIS1_EEE21__push_back_slow_pathIS1_EEPS1_OT_, symObjAddr: 0x2FE0, symBinAddr: 0xE9C90, symSize: 0x180 }
  - { offset: 0x52D536, size: 0x8, addend: 0x0, symName: __ZL15dl_load_libraryRKNSt3__14__fs10filesystem4pathE, symObjAddr: 0x3240, symBinAddr: 0xE9E20, symSize: 0xA0 }
  - { offset: 0x52D541, size: 0x8, addend: 0x0, symName: __ZN22ggml_backend_reg_entryD1Ev, symObjAddr: 0x2EE0, symBinAddr: 0xE9B90, symSize: 0x30 }
  - { offset: 0x52D603, size: 0x8, addend: 0x0, symName: _ggml_backend_device_register, symObjAddr: 0x2F0, symBinAddr: 0xE6FB0, symSize: 0x1B0 }
  - { offset: 0x52D9EC, size: 0x8, addend: 0x0, symName: _ggml_backend_reg_count, symObjAddr: 0x4A0, symBinAddr: 0xE7160, symSize: 0x90 }
  - { offset: 0x52DA81, size: 0x8, addend: 0x0, symName: _ggml_backend_reg_get, symObjAddr: 0x530, symBinAddr: 0xE71F0, symSize: 0x120 }
  - { offset: 0x52DBDC, size: 0x8, addend: 0x0, symName: _ggml_backend_reg_by_name, symObjAddr: 0x650, symBinAddr: 0xE7310, symSize: 0x130 }
  - { offset: 0x52DD46, size: 0x8, addend: 0x0, symName: _ggml_backend_dev_count, symObjAddr: 0x780, symBinAddr: 0xE7440, symSize: 0x90 }
  - { offset: 0x52DDDB, size: 0x8, addend: 0x0, symName: _ggml_backend_dev_get, symObjAddr: 0x810, symBinAddr: 0xE74D0, symSize: 0x120 }
  - { offset: 0x52DED2, size: 0x8, addend: 0x0, symName: _ggml_backend_dev_by_name, symObjAddr: 0x930, symBinAddr: 0xE75F0, symSize: 0x130 }
  - { offset: 0x52E02A, size: 0x8, addend: 0x0, symName: _ggml_backend_dev_by_type, symObjAddr: 0xA60, symBinAddr: 0xE7720, symSize: 0xD0 }
  - { offset: 0x52E10A, size: 0x8, addend: 0x0, symName: _ggml_backend_init_by_name, symObjAddr: 0xB30, symBinAddr: 0xE77F0, symSize: 0x30 }
  - { offset: 0x52E190, size: 0x8, addend: 0x0, symName: _ggml_backend_init_by_type, symObjAddr: 0xB60, symBinAddr: 0xE7820, symSize: 0x30 }
  - { offset: 0x52E1FF, size: 0x8, addend: 0x0, symName: _ggml_backend_init_best, symObjAddr: 0xB90, symBinAddr: 0xE7850, symSize: 0x30 }
  - { offset: 0x52E56E, size: 0x8, addend: 0x0, symName: _ggml_backend_load, symObjAddr: 0xBC0, symBinAddr: 0xE7880, symSize: 0x110 }
  - { offset: 0x52E915, size: 0x8, addend: 0x0, symName: __ZNSt3__112basic_stringIcNS_11char_traitsIcEENS_9allocatorIcEEE6appendB8ne190107IPKcTnNS_9enable_ifIXsr31__has_forward_iterator_categoryIT_EE5valueEiE4typeELi0EEERS5_SA_SA_, symObjAddr: 0x34E0, symBinAddr: 0xEA030, symSize: 0x1D0 }
  - { offset: 0x52F281, size: 0x8, addend: 0x0, symName: __ZN21ggml_backend_registry12load_backendERKNSt3__14__fs10filesystem4pathEb, symObjAddr: 0xCD0, symBinAddr: 0xE7990, symSize: 0x550 }
  - { offset: 0x530952, size: 0x8, addend: 0x0, symName: __ZL15dl_load_libraryRKNSt3__14__fs10filesystem4pathE, symObjAddr: 0x3240, symBinAddr: 0xE9E20, symSize: 0xA0 }
  - { offset: 0x530EFC, size: 0x8, addend: 0x0, symName: _ggml_backend_unload, symObjAddr: 0x1220, symBinAddr: 0xE7EE0, symSize: 0x90 }
  - { offset: 0x530F73, size: 0x8, addend: 0x0, symName: __ZN21ggml_backend_registry14unload_backendEP16ggml_backend_regb, symObjAddr: 0x12B0, symBinAddr: 0xE7F70, symSize: 0x210 }
  - { offset: 0x531B87, size: 0x8, addend: 0x0, symName: _ggml_backend_load_all, symObjAddr: 0x14C0, symBinAddr: 0xE8180, symSize: 0x10 }
  - { offset: 0x531BB3, size: 0x8, addend: 0x0, symName: _ggml_backend_load_all_from_path, symObjAddr: 0x14D0, symBinAddr: 0xE8190, symSize: 0xF0 }
  - { offset: 0x531D05, size: 0x8, addend: 0x0, symName: __ZL22ggml_backend_load_bestPKcbS0_, symObjAddr: 0x15C0, symBinAddr: 0xE8280, symSize: 0x1750 }
  - { offset: 0x53A6B6, size: 0x8, addend: 0x0, symName: __ZNSt3__16vectorINS_4__fs10filesystem4pathENS_9allocatorIS3_EEE21__push_back_slow_pathIS3_EEPS3_OT_, symObjAddr: 0x36B0, symBinAddr: 0xEA200, symSize: 0x190 }
  - { offset: 0x53AE8D, size: 0x8, addend: 0x0, symName: __ZNSt3__14__fs10filesystem18directory_iteratorD1B8ne190107Ev, symObjAddr: 0x3370, symBinAddr: 0xE9EC0, symSize: 0x40 }
  - { offset: 0x53AE98, size: 0x8, addend: 0x0, symName: __ZNSt3__14__fs10filesystem18directory_iteratorD1B8ne190107Ev, symObjAddr: 0x3370, symBinAddr: 0xE9EC0, symSize: 0x40 }
  - { offset: 0x53AF5B, size: 0x8, addend: 0x0, symName: __ZNSt3__16vectorINS_4__fs10filesystem4pathENS_9allocatorIS3_EEED1B8ne190107Ev, symObjAddr: 0x3460, symBinAddr: 0xE9FB0, symSize: 0x80 }
  - { offset: 0x53B290, size: 0x8, addend: 0x0, symName: __ZN21ggml_backend_registryD1Ev, symObjAddr: 0x2D10, symBinAddr: 0xE99D0, symSize: 0x10 }
  - { offset: 0x53B2CF, size: 0x8, addend: 0x0, symName: __ZN21ggml_backend_registryD2Ev, symObjAddr: 0x2F10, symBinAddr: 0xE9BC0, symSize: 0xD0 }
  - { offset: 0x53B88F, size: 0x8, addend: 0x0, symName: __ZNSt3__16vectorI22ggml_backend_reg_entryNS_9allocatorIS1_EEED1B8ne190107Ev, symObjAddr: 0x2E40, symBinAddr: 0xE9B00, symSize: 0x90 }
  - { offset: 0x53BD14, size: 0x8, addend: 0x0, symName: __ZNKSt3__16vectorI22ggml_backend_reg_entryNS_9allocatorIS1_EEE20__throw_length_errorB8ne190107Ev, symObjAddr: 0x3160, symBinAddr: 0xE9E10, symSize: 0x10 }
  - { offset: 0x53C308, size: 0x8, addend: 0x0, symName: __ZNKSt3__16vectorINS_4__fs10filesystem4pathENS_9allocatorIS3_EEE20__throw_length_errorB8ne190107Ev, symObjAddr: 0x3840, symBinAddr: 0xEA390, symSize: 0x10 }
  - { offset: 0x53E1E5, size: 0x8, addend: 0x0, symName: _ggml_tallocr_new, symObjAddr: 0x0, symBinAddr: 0xEA3A0, symSize: 0x80 }
  - { offset: 0x53F378, size: 0x8, addend: 0x0, symName: _ggml_tallocr_new, symObjAddr: 0x0, symBinAddr: 0xEA3A0, symSize: 0x80 }
  - { offset: 0x53F433, size: 0x8, addend: 0x0, symName: _ggml_tallocr_alloc, symObjAddr: 0x80, symBinAddr: 0xEA420, symSize: 0xC0 }
  - { offset: 0x53F5D0, size: 0x8, addend: 0x0, symName: _ggml_gallocr_new_n, symObjAddr: 0x140, symBinAddr: 0xEA4E0, symSize: 0x220 }
  - { offset: 0x53F7CF, size: 0x8, addend: 0x0, symName: _ggml_gallocr_new, symObjAddr: 0x360, symBinAddr: 0xEA700, symSize: 0x20 }
  - { offset: 0x53F82D, size: 0x8, addend: 0x0, symName: _ggml_gallocr_free, symObjAddr: 0x380, symBinAddr: 0xEA720, symSize: 0xE0 }
  - { offset: 0x53FD6B, size: 0x8, addend: 0x0, symName: _ggml_gallocr_reserve_n, symObjAddr: 0x460, symBinAddr: 0xEA800, symSize: 0xFC0 }
  - { offset: 0x540CC1, size: 0x8, addend: 0x0, symName: _ggml_gallocr_hash_get, symObjAddr: 0x1420, symBinAddr: 0xEB7C0, symSize: 0xB0 }
  - { offset: 0x540CF6, size: 0x8, addend: 0x0, symName: _ggml_gallocr_allocate_node, symObjAddr: 0x2020, symBinAddr: 0xEC3C0, symSize: 0x738 }
  - { offset: 0x54135C, size: 0x8, addend: 0x0, symName: _ggml_gallocr_hash_get, symObjAddr: 0x1420, symBinAddr: 0xEB7C0, symSize: 0xB0 }
  - { offset: 0x541450, size: 0x8, addend: 0x0, symName: _ggml_gallocr_reserve, symObjAddr: 0x14D0, symBinAddr: 0xEB870, symSize: 0x10 }
  - { offset: 0x5415DB, size: 0x8, addend: 0x0, symName: _ggml_gallocr_alloc_graph, symObjAddr: 0x14E0, symBinAddr: 0xEB880, symSize: 0x6C0 }
  - { offset: 0x541ABD, size: 0x8, addend: 0x0, symName: _ggml_gallocr_get_buffer_size, symObjAddr: 0x1BA0, symBinAddr: 0xEBF40, symSize: 0x70 }
  - { offset: 0x541B3E, size: 0x8, addend: 0x0, symName: _ggml_backend_alloc_ctx_tensors_from_buft, symObjAddr: 0x1C10, symBinAddr: 0xEBFB0, symSize: 0x1B0 }
  - { offset: 0x541DCA, size: 0x8, addend: 0x0, symName: _alloc_tensor_range, symObjAddr: 0x1DC0, symBinAddr: 0xEC160, symSize: 0x230 }
  - { offset: 0x5421A1, size: 0x8, addend: 0x0, symName: _ggml_backend_alloc_ctx_tensors, symObjAddr: 0x1FF0, symBinAddr: 0xEC390, symSize: 0x30 }
  - { offset: 0x542387, size: 0x8, addend: 0x0, symName: _ggml_backend_buft_name, symObjAddr: 0x0, symBinAddr: 0xECB00, symSize: 0x10 }
  - { offset: 0x5423A8, size: 0x8, addend: 0x0, symName: _ggml_backend_cpu_buffer_type, symObjAddr: 0x5C80, symBinAddr: 0xF2780, symSize: 0x10 }
  - { offset: 0x5423D0, size: 0x8, addend: 0x0, symName: __ZZ28ggml_backend_cpu_buffer_typeE28ggml_backend_cpu_buffer_type, symObjAddr: 0x7090, symBinAddr: 0x22F598, symSize: 0x0 }
  - { offset: 0x542461, size: 0x8, addend: 0x0, symName: __ZL27ggml_backend_multi_buffer_i, symObjAddr: 0x6FB8, symBinAddr: 0x22A118, symSize: 0x0 }
  - { offset: 0x542481, size: 0x8, addend: 0x0, symName: __ZL25ggml_backend_cpu_buffer_i, symObjAddr: 0x7048, symBinAddr: 0x22A1A8, symSize: 0x0 }
  - { offset: 0x54249C, size: 0x8, addend: 0x0, symName: __ZL34ggml_backend_cpu_buffer_from_ptr_i, symObjAddr: 0x7000, symBinAddr: 0x22A160, symSize: 0x0 }
  - { offset: 0x54273B, size: 0x8, addend: 0x0, symName: _ggml_backend_buft_name, symObjAddr: 0x0, symBinAddr: 0xECB00, symSize: 0x10 }
  - { offset: 0x5427B0, size: 0x8, addend: 0x0, symName: _ggml_backend_buft_alloc_buffer, symObjAddr: 0x10, symBinAddr: 0xECB10, symSize: 0x50 }
  - { offset: 0x542816, size: 0x8, addend: 0x0, symName: _ggml_backend_buffer_init, symObjAddr: 0x60, symBinAddr: 0xECB60, symSize: 0x70 }
  - { offset: 0x542857, size: 0x8, addend: 0x0, symName: _ggml_backend_buft_get_alignment, symObjAddr: 0xD0, symBinAddr: 0xECBD0, symSize: 0x10 }
  - { offset: 0x542887, size: 0x8, addend: 0x0, symName: _ggml_backend_buft_get_max_size, symObjAddr: 0xE0, symBinAddr: 0xECBE0, symSize: 0x20 }
  - { offset: 0x5428AF, size: 0x8, addend: 0x0, symName: _ggml_backend_buft_get_alloc_size, symObjAddr: 0x100, symBinAddr: 0xECC00, symSize: 0x20 }
  - { offset: 0x542916, size: 0x8, addend: 0x0, symName: _ggml_backend_buft_is_host, symObjAddr: 0x120, symBinAddr: 0xECC20, symSize: 0x20 }
  - { offset: 0x54293E, size: 0x8, addend: 0x0, symName: _ggml_backend_buft_get_device, symObjAddr: 0x140, symBinAddr: 0xECC40, symSize: 0x10 }
  - { offset: 0x542999, size: 0x8, addend: 0x0, symName: _ggml_backend_buffer_name, symObjAddr: 0x150, symBinAddr: 0xECC50, symSize: 0x10 }
  - { offset: 0x5429FB, size: 0x8, addend: 0x0, symName: _ggml_backend_buffer_get_type, symObjAddr: 0x160, symBinAddr: 0xECC60, symSize: 0x10 }
  - { offset: 0x542A17, size: 0x8, addend: 0x0, symName: _ggml_backend_buffer_free, symObjAddr: 0x170, symBinAddr: 0xECC70, symSize: 0x30 }
  - { offset: 0x542A41, size: 0x8, addend: 0x0, symName: _ggml_backend_buffer_get_size, symObjAddr: 0x1A0, symBinAddr: 0xECCA0, symSize: 0x10 }
  - { offset: 0x542A5D, size: 0x8, addend: 0x0, symName: _ggml_backend_buffer_get_base, symObjAddr: 0x1B0, symBinAddr: 0xECCB0, symSize: 0x40 }
  - { offset: 0x542ABF, size: 0x8, addend: 0x0, symName: _ggml_backend_buffer_init_tensor, symObjAddr: 0x1F0, symBinAddr: 0xECCF0, symSize: 0x20 }
  - { offset: 0x542AEE, size: 0x8, addend: 0x0, symName: _ggml_backend_buffer_clear, symObjAddr: 0x210, symBinAddr: 0xECD10, symSize: 0x20 }
  - { offset: 0x542B38, size: 0x8, addend: 0x0, symName: _ggml_backend_buffer_get_alignment, symObjAddr: 0x230, symBinAddr: 0xECD30, symSize: 0x10 }
  - { offset: 0x542BBF, size: 0x8, addend: 0x0, symName: _ggml_backend_buffer_get_max_size, symObjAddr: 0x240, symBinAddr: 0xECD40, symSize: 0x20 }
  - { offset: 0x542C5E, size: 0x8, addend: 0x0, symName: _ggml_backend_buffer_get_alloc_size, symObjAddr: 0x260, symBinAddr: 0xECD60, symSize: 0x20 }
  - { offset: 0x542CF0, size: 0x8, addend: 0x0, symName: _ggml_backend_buffer_is_host, symObjAddr: 0x280, symBinAddr: 0xECD80, symSize: 0x20 }
  - { offset: 0x542DAA, size: 0x8, addend: 0x0, symName: _ggml_backend_buffer_set_usage, symObjAddr: 0x2A0, symBinAddr: 0xECDA0, symSize: 0x60 }
  - { offset: 0x542E57, size: 0x8, addend: 0x0, symName: _ggml_backend_buffer_is_multi_buffer, symObjAddr: 0x300, symBinAddr: 0xECE00, symSize: 0x20 }
  - { offset: 0x542E73, size: 0x8, addend: 0x0, symName: _ggml_backend_multi_buffer_set_usage, symObjAddr: 0x320, symBinAddr: 0xECE20, symSize: 0x80 }
  - { offset: 0x542F01, size: 0x8, addend: 0x0, symName: _ggml_backend_buffer_get_usage, symObjAddr: 0x3A0, symBinAddr: 0xECEA0, symSize: 0x10 }
  - { offset: 0x542F2A, size: 0x8, addend: 0x0, symName: _ggml_backend_buffer_reset, symObjAddr: 0x3B0, symBinAddr: 0xECEB0, symSize: 0x20 }
  - { offset: 0x542F5B, size: 0x8, addend: 0x0, symName: _ggml_backend_buffer_copy_tensor, symObjAddr: 0x3D0, symBinAddr: 0xECED0, symSize: 0x30 }
  - { offset: 0x542F97, size: 0x8, addend: 0x0, symName: _ggml_backend_guid, symObjAddr: 0x400, symBinAddr: 0xECF00, symSize: 0x20 }
  - { offset: 0x542FC0, size: 0x8, addend: 0x0, symName: _ggml_backend_name, symObjAddr: 0x420, symBinAddr: 0xECF20, symSize: 0x20 }
  - { offset: 0x542FE8, size: 0x8, addend: 0x0, symName: _ggml_backend_free, symObjAddr: 0x440, symBinAddr: 0xECF40, symSize: 0x10 }
  - { offset: 0x543034, size: 0x8, addend: 0x0, symName: _ggml_backend_get_default_buffer_type, symObjAddr: 0x450, symBinAddr: 0xECF50, symSize: 0x10 }
  - { offset: 0x54307A, size: 0x8, addend: 0x0, symName: _ggml_backend_dev_buffer_type, symObjAddr: 0x460, symBinAddr: 0xECF60, symSize: 0x10 }
  - { offset: 0x5430E7, size: 0x8, addend: 0x0, symName: _ggml_backend_alloc_buffer, symObjAddr: 0x470, symBinAddr: 0xECF70, symSize: 0x70 }
  - { offset: 0x5431CE, size: 0x8, addend: 0x0, symName: _ggml_backend_get_alignment, symObjAddr: 0x4E0, symBinAddr: 0xECFE0, symSize: 0x20 }
  - { offset: 0x543266, size: 0x8, addend: 0x0, symName: _ggml_backend_get_max_size, symObjAddr: 0x500, symBinAddr: 0xED000, symSize: 0x30 }
  - { offset: 0x5432FE, size: 0x8, addend: 0x0, symName: _ggml_backend_tensor_set_async, symObjAddr: 0x530, symBinAddr: 0xED030, symSize: 0xD0 }
  - { offset: 0x5433B2, size: 0x8, addend: 0x0, symName: _ggml_backend_tensor_set, symObjAddr: 0x600, symBinAddr: 0xED100, symSize: 0x120 }
  - { offset: 0x54348E, size: 0x8, addend: 0x0, symName: _ggml_backend_tensor_get_async, symObjAddr: 0x720, symBinAddr: 0xED220, symSize: 0xD0 }
  - { offset: 0x543542, size: 0x8, addend: 0x0, symName: _ggml_backend_tensor_get, symObjAddr: 0x7F0, symBinAddr: 0xED2F0, symSize: 0x120 }
  - { offset: 0x54361E, size: 0x8, addend: 0x0, symName: _ggml_backend_tensor_memset, symObjAddr: 0x910, symBinAddr: 0xED410, symSize: 0x120 }
  - { offset: 0x5436FA, size: 0x8, addend: 0x0, symName: _ggml_backend_synchronize, symObjAddr: 0xA30, symBinAddr: 0xED530, symSize: 0x20 }
  - { offset: 0x543722, size: 0x8, addend: 0x0, symName: _ggml_backend_graph_plan_create, symObjAddr: 0xA50, symBinAddr: 0xED550, symSize: 0x30 }
  - { offset: 0x54376C, size: 0x8, addend: 0x0, symName: _ggml_backend_graph_plan_free, symObjAddr: 0xA80, symBinAddr: 0xED580, symSize: 0x30 }
  - { offset: 0x54377F, size: 0x8, addend: 0x0, symName: _ggml_backend_graph_plan_free, symObjAddr: 0xA80, symBinAddr: 0xED580, symSize: 0x30 }
  - { offset: 0x5437C5, size: 0x8, addend: 0x0, symName: _ggml_backend_graph_plan_compute, symObjAddr: 0xAB0, symBinAddr: 0xED5B0, symSize: 0x30 }
  - { offset: 0x5437D8, size: 0x8, addend: 0x0, symName: _ggml_backend_graph_plan_compute, symObjAddr: 0xAB0, symBinAddr: 0xED5B0, symSize: 0x30 }
  - { offset: 0x543822, size: 0x8, addend: 0x0, symName: _ggml_backend_graph_compute, symObjAddr: 0xAE0, symBinAddr: 0xED5E0, symSize: 0x30 }
  - { offset: 0x543873, size: 0x8, addend: 0x0, symName: _ggml_backend_graph_compute, symObjAddr: 0xAE0, symBinAddr: 0xED5E0, symSize: 0x30 }
  - { offset: 0x54390D, size: 0x8, addend: 0x0, symName: _ggml_backend_graph_compute_async, symObjAddr: 0xB10, symBinAddr: 0xED610, symSize: 0x10 }
  - { offset: 0x543972, size: 0x8, addend: 0x0, symName: _ggml_backend_supports_op, symObjAddr: 0xB20, symBinAddr: 0xED620, symSize: 0x10 }
  - { offset: 0x5439CF, size: 0x8, addend: 0x0, symName: _ggml_backend_dev_supports_op, symObjAddr: 0xB30, symBinAddr: 0xED630, symSize: 0x10 }
  - { offset: 0x543A34, size: 0x8, addend: 0x0, symName: _ggml_backend_supports_buft, symObjAddr: 0xB40, symBinAddr: 0xED640, symSize: 0x10 }
  - { offset: 0x543A91, size: 0x8, addend: 0x0, symName: _ggml_backend_dev_supports_buft, symObjAddr: 0xB50, symBinAddr: 0xED650, symSize: 0x10 }
  - { offset: 0x543AF6, size: 0x8, addend: 0x0, symName: _ggml_backend_offload_op, symObjAddr: 0xB60, symBinAddr: 0xED660, symSize: 0x20 }
  - { offset: 0x543B44, size: 0x8, addend: 0x0, symName: _ggml_backend_dev_offload_op, symObjAddr: 0xB80, symBinAddr: 0xED680, symSize: 0x20 }
  - { offset: 0x543B73, size: 0x8, addend: 0x0, symName: _ggml_backend_get_device, symObjAddr: 0xBA0, symBinAddr: 0xED6A0, symSize: 0x10 }
  - { offset: 0x543C10, size: 0x8, addend: 0x0, symName: _ggml_backend_tensor_copy, symObjAddr: 0xBB0, symBinAddr: 0xED6B0, symSize: 0x1B0 }
  - { offset: 0x543EBB, size: 0x8, addend: 0x0, symName: _ggml_backend_tensor_copy_async, symObjAddr: 0xD60, symBinAddr: 0xED860, symSize: 0x100 }
  - { offset: 0x543FE6, size: 0x8, addend: 0x0, symName: _ggml_backend_event_new, symObjAddr: 0xE60, symBinAddr: 0xED960, symSize: 0x20 }
  - { offset: 0x54400E, size: 0x8, addend: 0x0, symName: _ggml_backend_event_free, symObjAddr: 0xE80, symBinAddr: 0xED980, symSize: 0x20 }
  - { offset: 0x544038, size: 0x8, addend: 0x0, symName: _ggml_backend_event_record, symObjAddr: 0xEA0, symBinAddr: 0xED9A0, symSize: 0x40 }
  - { offset: 0x544080, size: 0x8, addend: 0x0, symName: _ggml_backend_event_synchronize, symObjAddr: 0xEE0, symBinAddr: 0xED9E0, symSize: 0x40 }
  - { offset: 0x5440BF, size: 0x8, addend: 0x0, symName: _ggml_backend_event_wait, symObjAddr: 0xF20, symBinAddr: 0xEDA20, symSize: 0x30 }
  - { offset: 0x5440F4, size: 0x8, addend: 0x0, symName: _ggml_backend_dev_name, symObjAddr: 0xF50, symBinAddr: 0xEDA50, symSize: 0x10 }
  - { offset: 0x544107, size: 0x8, addend: 0x0, symName: _ggml_backend_dev_name, symObjAddr: 0xF50, symBinAddr: 0xEDA50, symSize: 0x10 }
  - { offset: 0x544146, size: 0x8, addend: 0x0, symName: _ggml_backend_dev_description, symObjAddr: 0xF60, symBinAddr: 0xEDA60, symSize: 0x10 }
  - { offset: 0x544185, size: 0x8, addend: 0x0, symName: _ggml_backend_dev_memory, symObjAddr: 0xF70, symBinAddr: 0xEDA70, symSize: 0x10 }
  - { offset: 0x5441EC, size: 0x8, addend: 0x0, symName: _ggml_backend_dev_type, symObjAddr: 0xF80, symBinAddr: 0xEDA80, symSize: 0x10 }
  - { offset: 0x54421C, size: 0x8, addend: 0x0, symName: _ggml_backend_dev_get_props, symObjAddr: 0xF90, symBinAddr: 0xEDA90, symSize: 0x20 }
  - { offset: 0x54426D, size: 0x8, addend: 0x0, symName: _ggml_backend_dev_backend_reg, symObjAddr: 0xFB0, symBinAddr: 0xEDAB0, symSize: 0x10 }
  - { offset: 0x544298, size: 0x8, addend: 0x0, symName: _ggml_backend_dev_init, symObjAddr: 0xFC0, symBinAddr: 0xEDAC0, symSize: 0x10 }
  - { offset: 0x5442ED, size: 0x8, addend: 0x0, symName: _ggml_backend_dev_host_buffer_type, symObjAddr: 0xFD0, symBinAddr: 0xEDAD0, symSize: 0x20 }
  - { offset: 0x544324, size: 0x8, addend: 0x0, symName: _ggml_backend_dev_buffer_from_host_ptr, symObjAddr: 0xFF0, symBinAddr: 0xEDAF0, symSize: 0x10 }
  - { offset: 0x5443A5, size: 0x8, addend: 0x0, symName: _ggml_backend_reg_name, symObjAddr: 0x1000, symBinAddr: 0xEDB00, symSize: 0x10 }
  - { offset: 0x5443E4, size: 0x8, addend: 0x0, symName: _ggml_backend_reg_dev_count, symObjAddr: 0x1010, symBinAddr: 0xEDB10, symSize: 0x10 }
  - { offset: 0x544423, size: 0x8, addend: 0x0, symName: _ggml_backend_reg_dev_get, symObjAddr: 0x1020, symBinAddr: 0xEDB20, symSize: 0x10 }
  - { offset: 0x544478, size: 0x8, addend: 0x0, symName: _ggml_backend_reg_get_proc_address, symObjAddr: 0x1030, symBinAddr: 0xEDB30, symSize: 0x20 }
  - { offset: 0x5444BE, size: 0x8, addend: 0x0, symName: _ggml_backend_multi_buffer_alloc_buffer, symObjAddr: 0x1050, symBinAddr: 0xEDB50, symSize: 0x160 }
  - { offset: 0x5445C0, size: 0x8, addend: 0x0, symName: __ZL37ggml_backend_multi_buffer_free_bufferP19ggml_backend_buffer, symObjAddr: 0x11B0, symBinAddr: 0xEDCB0, symSize: 0x70 }
  - { offset: 0x5446FC, size: 0x8, addend: 0x0, symName: _ggml_backend_sched_new, symObjAddr: 0x1220, symBinAddr: 0xEDD20, symSize: 0x400 }
  - { offset: 0x544B50, size: 0x8, addend: 0x0, symName: _ggml_backend_sched_reset, symObjAddr: 0x1620, symBinAddr: 0xEE120, symSize: 0x70 }
  - { offset: 0x544B9A, size: 0x8, addend: 0x0, symName: _ggml_backend_sched_free, symObjAddr: 0x1690, symBinAddr: 0xEE190, symSize: 0x130 }
  - { offset: 0x544D38, size: 0x8, addend: 0x0, symName: _ggml_backend_sched_reserve, symObjAddr: 0x17C0, symBinAddr: 0xEE2C0, symSize: 0x100 }
  - { offset: 0x544E34, size: 0x8, addend: 0x0, symName: __ZL30ggml_backend_sched_split_graphP18ggml_backend_schedP11ggml_cgraph, symObjAddr: 0x18C0, symBinAddr: 0xEE3C0, symSize: 0x2A50 }
  - { offset: 0x548572, size: 0x8, addend: 0x0, symName: __ZL38ggml_backend_sched_backend_id_from_curP18ggml_backend_schedP11ggml_tensor, symObjAddr: 0x5E50, symBinAddr: 0xF2950, symSize: 0x400 }
  - { offset: 0x548AE0, size: 0x8, addend: 0x0, symName: __ZL35ggml_backend_sched_buffer_supportedP18ggml_backend_schedP11ggml_tensori, symObjAddr: 0x6250, symBinAddr: 0xF2D50, symSize: 0x1E0 }
  - { offset: 0x548DB7, size: 0x8, addend: 0x0, symName: _ggml_backend_sched_synchronize, symObjAddr: 0x4310, symBinAddr: 0xF0E10, symSize: 0x50 }
  - { offset: 0x548DD4, size: 0x8, addend: 0x0, symName: _ggml_backend_sched_synchronize, symObjAddr: 0x4310, symBinAddr: 0xF0E10, symSize: 0x50 }
  - { offset: 0x548E5D, size: 0x8, addend: 0x0, symName: _ggml_backend_sched_alloc_graph, symObjAddr: 0x4360, symBinAddr: 0xF0E60, symSize: 0x1B0 }
  - { offset: 0x548FD0, size: 0x8, addend: 0x0, symName: _ggml_backend_sched_graph_compute, symObjAddr: 0x4510, symBinAddr: 0xF1010, symSize: 0x60 }
  - { offset: 0x549096, size: 0x8, addend: 0x0, symName: _ggml_backend_sched_graph_compute_async, symObjAddr: 0x4570, symBinAddr: 0xF1070, symSize: 0x640 }
  - { offset: 0x54976C, size: 0x8, addend: 0x0, symName: _ggml_backend_sched_set_eval_callback, symObjAddr: 0x4BB0, symBinAddr: 0xF16B0, symSize: 0x20 }
  - { offset: 0x5497B1, size: 0x8, addend: 0x0, symName: _ggml_backend_sched_get_n_splits, symObjAddr: 0x4BD0, symBinAddr: 0xF16D0, symSize: 0x10 }
  - { offset: 0x5497DC, size: 0x8, addend: 0x0, symName: _ggml_backend_sched_get_n_copies, symObjAddr: 0x4BE0, symBinAddr: 0xF16E0, symSize: 0x10 }
  - { offset: 0x549807, size: 0x8, addend: 0x0, symName: _ggml_backend_sched_get_n_backends, symObjAddr: 0x4BF0, symBinAddr: 0xF16F0, symSize: 0x10 }
  - { offset: 0x549832, size: 0x8, addend: 0x0, symName: _ggml_backend_sched_get_backend, symObjAddr: 0x4C00, symBinAddr: 0xF1700, symSize: 0x40 }
  - { offset: 0x5498BC, size: 0x8, addend: 0x0, symName: _ggml_backend_sched_get_buffer_size, symObjAddr: 0x4C40, symBinAddr: 0xF1740, symSize: 0x60 }
  - { offset: 0x549980, size: 0x8, addend: 0x0, symName: _ggml_backend_sched_set_tensor_backend, symObjAddr: 0x4CA0, symBinAddr: 0xF17A0, symSize: 0x110 }
  - { offset: 0x549AD5, size: 0x8, addend: 0x0, symName: _ggml_backend_sched_get_tensor_backend, symObjAddr: 0x4DB0, symBinAddr: 0xF18B0, symSize: 0xD0 }
  - { offset: 0x549BD2, size: 0x8, addend: 0x0, symName: _ggml_backend_view_init, symObjAddr: 0x4E80, symBinAddr: 0xF1980, symSize: 0xE0 }
  - { offset: 0x549CE3, size: 0x8, addend: 0x0, symName: _ggml_backend_tensor_alloc, symObjAddr: 0x4F60, symBinAddr: 0xF1A60, symSize: 0x1B0 }
  - { offset: 0x549F3F, size: 0x8, addend: 0x0, symName: _ggml_backend_graph_copy, symObjAddr: 0x5110, symBinAddr: 0xF1C10, symSize: 0x320 }
  - { offset: 0x54A354, size: 0x8, addend: 0x0, symName: __ZL21graph_copy_dup_tensor13ggml_hash_setPP11ggml_tensorP12ggml_contextS4_S1_, symObjAddr: 0x5430, symBinAddr: 0xF1F30, symSize: 0x460 }
  - { offset: 0x54A75F, size: 0x8, addend: 0x0, symName: __ZL22graph_copy_init_tensorP13ggml_hash_setPP11ggml_tensorPbS2_, symObjAddr: 0x5890, symBinAddr: 0xF2390, symSize: 0x220 }
  - { offset: 0x54A9FA, size: 0x8, addend: 0x0, symName: _ggml_backend_graph_copy_free, symObjAddr: 0x5AB0, symBinAddr: 0xF25B0, symSize: 0x50 }
  - { offset: 0x54AA80, size: 0x8, addend: 0x0, symName: _ggml_backend_graph_copy_free, symObjAddr: 0x5AB0, symBinAddr: 0xF25B0, symSize: 0x50 }
  - { offset: 0x54AB72, size: 0x8, addend: 0x0, symName: _ggml_backend_compare_graph_backend, symObjAddr: 0x5B00, symBinAddr: 0xF2600, symSize: 0x180 }
  - { offset: 0x54AEEB, size: 0x8, addend: 0x0, symName: __ZL37ggml_backend_cpu_buffer_type_get_nameP24ggml_backend_buffer_type, symObjAddr: 0x5C90, symBinAddr: 0xF2790, symSize: 0x10 }
  - { offset: 0x54AF17, size: 0x8, addend: 0x0, symName: __ZL41ggml_backend_cpu_buffer_type_alloc_bufferP24ggml_backend_buffer_typem, symObjAddr: 0x5CA0, symBinAddr: 0xF27A0, symSize: 0xA0 }
  - { offset: 0x54AFDC, size: 0x8, addend: 0x0, symName: __ZL42ggml_backend_cpu_buffer_type_get_alignmentP24ggml_backend_buffer_type, symObjAddr: 0x5D40, symBinAddr: 0xF2840, symSize: 0x10 }
  - { offset: 0x54B008, size: 0x8, addend: 0x0, symName: __ZL36ggml_backend_cpu_buffer_type_is_hostP24ggml_backend_buffer_type, symObjAddr: 0x5D50, symBinAddr: 0xF2850, symSize: 0x10 }
  - { offset: 0x54B034, size: 0x8, addend: 0x0, symName: _ggml_backend_cpu_buffer_from_ptr, symObjAddr: 0x5D60, symBinAddr: 0xF2860, symSize: 0xA0 }
  - { offset: 0x54B0DB, size: 0x8, addend: 0x0, symName: __ZL31ggml_backend_multi_buffer_clearP19ggml_backend_bufferh, symObjAddr: 0x5E00, symBinAddr: 0xF2900, symSize: 0x50 }
  - { offset: 0x54B207, size: 0x8, addend: 0x0, symName: __ZL35ggml_backend_cpu_buffer_free_bufferP19ggml_backend_buffer, symObjAddr: 0x6430, symBinAddr: 0xF2F30, symSize: 0x20 }
  - { offset: 0x54B254, size: 0x8, addend: 0x0, symName: __ZL32ggml_backend_cpu_buffer_get_baseP19ggml_backend_buffer, symObjAddr: 0x6450, symBinAddr: 0xF2F50, symSize: 0x20 }
  - { offset: 0x54B293, size: 0x8, addend: 0x0, symName: __ZL37ggml_backend_cpu_buffer_memset_tensorP19ggml_backend_bufferP11ggml_tensorhmm, symObjAddr: 0x6470, symBinAddr: 0xF2F70, symSize: 0x20 }
  - { offset: 0x54B2FA, size: 0x8, addend: 0x0, symName: __ZL34ggml_backend_cpu_buffer_set_tensorP19ggml_backend_bufferP11ggml_tensorPKvmm, symObjAddr: 0x6490, symBinAddr: 0xF2F90, symSize: 0x20 }
  - { offset: 0x54B361, size: 0x8, addend: 0x0, symName: __ZL34ggml_backend_cpu_buffer_get_tensorP19ggml_backend_bufferPK11ggml_tensorPvmm, symObjAddr: 0x64B0, symBinAddr: 0xF2FB0, symSize: 0x20 }
  - { offset: 0x54B3C8, size: 0x8, addend: 0x0, symName: __ZL34ggml_backend_cpu_buffer_cpy_tensorP19ggml_backend_bufferPK11ggml_tensorPS1_, symObjAddr: 0x64D0, symBinAddr: 0xF2FD0, symSize: 0x60 }
  - { offset: 0x54B48B, size: 0x8, addend: 0x0, symName: __ZL29ggml_backend_cpu_buffer_clearP19ggml_backend_bufferh, symObjAddr: 0x6530, symBinAddr: 0xF3030, symSize: 0x20 }
  - { offset: 0x54B4C6, size: 0x8, addend: 0x0, symName: __ZL46ggml_backend_cpu_buffer_from_ptr_type_get_nameP24ggml_backend_buffer_type, symObjAddr: 0x6550, symBinAddr: 0xF3050, symSize: 0xD }
  - { offset: 0x54D387, size: 0x8, addend: 0x0, symName: _ggml_opt_dataset_init, symObjAddr: 0x0, symBinAddr: 0xF3060, symSize: 0x2C0 }
  - { offset: 0x55485B, size: 0x8, addend: 0x0, symName: __ZNSt3__124uniform_int_distributionIlEclINS_23mersenne_twister_engineIjLm32ELm624ELm397ELm31ELj2567483615ELm11ELj4294967295ELm7ELj2636928640ELm15ELj4022730752ELm18ELj1812433253EEEEElRT_RKNS1_10param_typeE, symObjAddr: 0x3910, symBinAddr: 0xF65A0, symSize: 0x1F0 }
  - { offset: 0x5548FD, size: 0x8, addend: 0x0, symName: __ZNSt3__124uniform_int_distributionIlEclINS_23mersenne_twister_engineIjLm32ELm624ELm397ELm31ELj2567483615ELm11ELj4294967295ELm7ELj2636928640ELm15ELj4022730752ELm18ELj1812433253EEEEElRT_RKNS1_10param_typeE, symObjAddr: 0x3910, symBinAddr: 0xF65A0, symSize: 0x1F0 }
  - { offset: 0x554BA3, size: 0x8, addend: 0x0, symName: _ggml_opt_dataset_init, symObjAddr: 0x0, symBinAddr: 0xF3060, symSize: 0x2C0 }
  - { offset: 0x555272, size: 0x8, addend: 0x0, symName: _ggml_opt_dataset_free, symObjAddr: 0x2C0, symBinAddr: 0xF3320, symSize: 0x50 }
  - { offset: 0x55549D, size: 0x8, addend: 0x0, symName: _ggml_opt_dataset_data, symObjAddr: 0x310, symBinAddr: 0xF3370, symSize: 0x10 }
  - { offset: 0x5554B9, size: 0x8, addend: 0x0, symName: _ggml_opt_dataset_labels, symObjAddr: 0x320, symBinAddr: 0xF3380, symSize: 0x10 }
  - { offset: 0x55566C, size: 0x8, addend: 0x0, symName: _ggml_opt_dataset_shuffle, symObjAddr: 0x330, symBinAddr: 0xF3390, symSize: 0x1E0 }
  - { offset: 0x555CC5, size: 0x8, addend: 0x0, symName: _ggml_opt_dataset_get_batch, symObjAddr: 0x510, symBinAddr: 0xF3570, symSize: 0x2A0 }
  - { offset: 0x555F06, size: 0x8, addend: 0x0, symName: _ggml_opt_get_default_optimizer_params, symObjAddr: 0x7B0, symBinAddr: 0xF3810, symSize: 0x20 }
  - { offset: 0x555F3B, size: 0x8, addend: 0x0, symName: _ggml_opt_default_params, symObjAddr: 0x7D0, symBinAddr: 0xF3830, symSize: 0x40 }
  - { offset: 0x55629B, size: 0x8, addend: 0x0, symName: _ggml_opt_init, symObjAddr: 0x810, symBinAddr: 0xF3870, symSize: 0x840 }
  - { offset: 0x556BC7, size: 0x8, addend: 0x0, symName: _ggml_opt_free, symObjAddr: 0x1050, symBinAddr: 0xF40B0, symSize: 0x50 }
  - { offset: 0x556C1D, size: 0x8, addend: 0x0, symName: _ggml_opt_reset, symObjAddr: 0x10A0, symBinAddr: 0xF4100, symSize: 0x40 }
  - { offset: 0x556C60, size: 0x8, addend: 0x0, symName: _ggml_opt_inputs, symObjAddr: 0x10E0, symBinAddr: 0xF4140, symSize: 0x10 }
  - { offset: 0x556C7C, size: 0x8, addend: 0x0, symName: _ggml_opt_outputs, symObjAddr: 0x10F0, symBinAddr: 0xF4150, symSize: 0x10 }
  - { offset: 0x556CA7, size: 0x8, addend: 0x0, symName: _ggml_opt_labels, symObjAddr: 0x1100, symBinAddr: 0xF4160, symSize: 0x10 }
  - { offset: 0x556CD2, size: 0x8, addend: 0x0, symName: _ggml_opt_loss, symObjAddr: 0x1110, symBinAddr: 0xF4170, symSize: 0x10 }
  - { offset: 0x556CFD, size: 0x8, addend: 0x0, symName: _ggml_opt_pred, symObjAddr: 0x1120, symBinAddr: 0xF4180, symSize: 0x10 }
  - { offset: 0x556D28, size: 0x8, addend: 0x0, symName: _ggml_opt_ncorrect, symObjAddr: 0x1130, symBinAddr: 0xF4190, symSize: 0x10 }
  - { offset: 0x556D53, size: 0x8, addend: 0x0, symName: _ggml_opt_grad_acc, symObjAddr: 0x1140, symBinAddr: 0xF41A0, symSize: 0x20 }
  - { offset: 0x556E9F, size: 0x8, addend: 0x0, symName: _ggml_opt_result_init, symObjAddr: 0x1160, symBinAddr: 0xF41C0, symSize: 0x30 }
  - { offset: 0x55717D, size: 0x8, addend: 0x0, symName: _ggml_opt_result_free, symObjAddr: 0x1190, symBinAddr: 0xF41F0, symSize: 0x60 }
  - { offset: 0x557562, size: 0x8, addend: 0x0, symName: _ggml_opt_result_reset, symObjAddr: 0x11F0, symBinAddr: 0xF4250, symSize: 0x30 }
  - { offset: 0x557674, size: 0x8, addend: 0x0, symName: _ggml_opt_result_ndata, symObjAddr: 0x1220, symBinAddr: 0xF4280, symSize: 0x10 }
  - { offset: 0x5576CA, size: 0x8, addend: 0x0, symName: _ggml_opt_result_loss, symObjAddr: 0x1230, symBinAddr: 0xF4290, symSize: 0x100 }
  - { offset: 0x5577A2, size: 0x8, addend: 0x0, symName: _ggml_opt_result_pred, symObjAddr: 0x1330, symBinAddr: 0xF4390, symSize: 0xF0 }
  - { offset: 0x5577F8, size: 0x8, addend: 0x0, symName: _ggml_opt_result_accuracy, symObjAddr: 0x1420, symBinAddr: 0xF4480, symSize: 0x80 }
  - { offset: 0x557822, size: 0x8, addend: 0x0, symName: _ggml_opt_forward, symObjAddr: 0x14A0, symBinAddr: 0xF4500, symSize: 0x20 }
  - { offset: 0x557864, size: 0x8, addend: 0x0, symName: __ZL19ggml_opt_eval_graphP16ggml_opt_contextP11ggml_cgraphP15ggml_opt_result, symObjAddr: 0x14C0, symBinAddr: 0xF4520, symSize: 0xA80 }
  - { offset: 0x559320, size: 0x8, addend: 0x0, symName: __ZL10map_tensorRNSt3__13mapIP11ggml_tensorS2_NS_4lessIS2_EENS_9allocatorINS_4pairIKS2_S2_EEEEEEP12ggml_contextS2_, symObjAddr: 0x2EA0, symBinAddr: 0xF5F00, symSize: 0x380 }
  - { offset: 0x559B71, size: 0x8, addend: 0x0, symName: __ZNSt3__16__treeINS_12__value_typeIP11ggml_tensorS3_EENS_19__map_value_compareIS3_S4_NS_4lessIS3_EELb1EEENS_9allocatorIS4_EEE7destroyEPNS_11__tree_nodeIS4_PvEE, symObjAddr: 0x33E0, symBinAddr: 0xF6280, symSize: 0x40 }
  - { offset: 0x559D1E, size: 0x8, addend: 0x0, symName: __ZNSt3__16vectorIiNS_9allocatorIiEEE18__insert_with_sizeB8ne190107INS_11__wrap_iterIPiEES7_EES7_NS5_IPKiEET_T0_l, symObjAddr: 0x34C0, symBinAddr: 0xF62C0, symSize: 0x2E0 }
  - { offset: 0x55A735, size: 0x8, addend: 0x0, symName: __ZNSt3__16vectorIiNS_9allocatorIiEEE18__insert_with_sizeB8ne190107INS_11__wrap_iterIPiEES7_EES7_NS5_IPKiEET_T0_l, symObjAddr: 0x34C0, symBinAddr: 0xF62C0, symSize: 0x2E0 }
  - { offset: 0x55A786, size: 0x8, addend: 0x0, symName: _ggml_opt_forward_backward, symObjAddr: 0x1F40, symBinAddr: 0xF4FA0, symSize: 0x80 }
  - { offset: 0x55A8B5, size: 0x8, addend: 0x0, symName: _ggml_opt_epoch, symObjAddr: 0x1FC0, symBinAddr: 0xF5020, symSize: 0x3B0 }
  - { offset: 0x55ADB2, size: 0x8, addend: 0x0, symName: _ggml_opt_epoch_callback_progress_bar, symObjAddr: 0x2370, symBinAddr: 0xF53D0, symSize: 0x410 }
  - { offset: 0x55B319, size: 0x8, addend: 0x0, symName: _ggml_opt_fit, symObjAddr: 0x2780, symBinAddr: 0xF57E0, symSize: 0x720 }
  - { offset: 0x55D1B5, size: 0x8, addend: 0x0, symName: __ZNSt3__124uniform_int_distributionIlEclINS_23mersenne_twister_engineIjLm32ELm624ELm397ELm31ELj2567483615ELm11ELj4294967295ELm7ELj2636928640ELm15ELj4022730752ELm18ELj1812433253EEEEElRT_RKNS1_10param_typeE, symObjAddr: 0x3910, symBinAddr: 0xF65A0, symSize: 0x1F0 }
  - { offset: 0x55D256, size: 0x8, addend: 0x0, symName: __ZNSt3__125__independent_bits_engineINS_23mersenne_twister_engineIjLm32ELm624ELm397ELm31ELj2567483615ELm11ELj4294967295ELm7ELj2636928640ELm15ELj4022730752ELm18ELj1812433253EEEmE6__evalENS_17integral_constantIbLb1EEE, symObjAddr: 0x3B00, symBinAddr: 0xF6790, symSize: 0x44C }
  - { offset: 0x55F33C, size: 0x8, addend: 0x0, symName: _quantize_row_q4_0_ref, symObjAddr: 0x0, symBinAddr: 0xF6BE0, symSize: 0x3D0 }
  - { offset: 0x55F34A, size: 0x8, addend: 0x0, symName: _quantize_row_q4_0_ref, symObjAddr: 0x0, symBinAddr: 0xF6BE0, symSize: 0x3D0 }
  - { offset: 0x55F533, size: 0x8, addend: 0x0, symName: _quantize_row_q5_0_ref, symObjAddr: 0x760, symBinAddr: 0xF7340, symSize: 0x600 }
  - { offset: 0x55F781, size: 0x8, addend: 0x0, symName: _dequantize_row_q4_0, symObjAddr: 0x2090, symBinAddr: 0xF8C70, symSize: 0x1B0 }
  - { offset: 0x55F869, size: 0x8, addend: 0x0, symName: _dequantize_row_q4_1, symObjAddr: 0x2240, symBinAddr: 0xF8E20, symSize: 0x190 }
  - { offset: 0x55F962, size: 0x8, addend: 0x0, symName: _dequantize_row_q5_0, symObjAddr: 0x23D0, symBinAddr: 0xF8FB0, symSize: 0x350 }
  - { offset: 0x55FA72, size: 0x8, addend: 0x0, symName: _dequantize_row_q5_1, symObjAddr: 0x2720, symBinAddr: 0xF9300, symSize: 0x350 }
  - { offset: 0x55FB86, size: 0x8, addend: 0x0, symName: _dequantize_row_q8_0, symObjAddr: 0x2A70, symBinAddr: 0xF9650, symSize: 0x140 }
  - { offset: 0x55FC49, size: 0x8, addend: 0x0, symName: _iq2xs_init_impl, symObjAddr: 0x1D0A0, symBinAddr: 0x113C80, symSize: 0x6E0 }
  - { offset: 0x55FC6D, size: 0x8, addend: 0x0, symName: _iq2xs_init_impl.kgrid_2bit_256, symObjAddr: 0x39010, symBinAddr: 0x1F5990, symSize: 0x0 }
  - { offset: 0x55FC84, size: 0x8, addend: 0x0, symName: _iq2xs_init_impl.kgrid_2bit_512, symObjAddr: 0x39210, symBinAddr: 0x1F5B90, symSize: 0x0 }
  - { offset: 0x55FC9B, size: 0x8, addend: 0x0, symName: _iq2xs_init_impl.kgrid_1bit_2048, symObjAddr: 0x39610, symBinAddr: 0x1F5F90, symSize: 0x0 }
  - { offset: 0x55FCB2, size: 0x8, addend: 0x0, symName: _iq2xs_init_impl.kgrid_2bit_1024, symObjAddr: 0x3A610, symBinAddr: 0x1F6F90, symSize: 0x0 }
  - { offset: 0x560285, size: 0x8, addend: 0x0, symName: _iq3xs_init_impl, symObjAddr: 0x21F70, symBinAddr: 0x118B50, symSize: 0x570 }
  - { offset: 0x5602A9, size: 0x8, addend: 0x0, symName: _iq3xs_init_impl.kgrid_256, symObjAddr: 0x3AE10, symBinAddr: 0x1F7790, symSize: 0x0 }
  - { offset: 0x5602C0, size: 0x8, addend: 0x0, symName: _iq3xs_init_impl.kgrid_512, symObjAddr: 0x3B010, symBinAddr: 0x1F7990, symSize: 0x0 }
  - { offset: 0x5607F7, size: 0x8, addend: 0x0, symName: _iq2xxs_grid, symObjAddr: 0x30B80, symBinAddr: 0x1ED500, symSize: 0x0 }
  - { offset: 0x560836, size: 0x8, addend: 0x0, symName: _ksigns_iq2xs, symObjAddr: 0x31380, symBinAddr: 0x1EDD00, symSize: 0x0 }
  - { offset: 0x560874, size: 0x8, addend: 0x0, symName: _iq2xs_grid, symObjAddr: 0x31400, symBinAddr: 0x1EDD80, symSize: 0x0 }
  - { offset: 0x56089A, size: 0x8, addend: 0x0, symName: _iq2s_grid, symObjAddr: 0x32400, symBinAddr: 0x1EED80, symSize: 0x0 }
  - { offset: 0x5608C0, size: 0x8, addend: 0x0, symName: _iq3xxs_grid, symObjAddr: 0x34400, symBinAddr: 0x1F0D80, symSize: 0x0 }
  - { offset: 0x5608FF, size: 0x8, addend: 0x0, symName: _iq3s_grid, symObjAddr: 0x34800, symBinAddr: 0x1F1180, symSize: 0x0 }
  - { offset: 0x560925, size: 0x8, addend: 0x0, symName: _iq1s_grid, symObjAddr: 0x35000, symBinAddr: 0x1F1980, symSize: 0x0 }
  - { offset: 0x56094B, size: 0x8, addend: 0x0, symName: _kvalues_iq4nl, symObjAddr: 0x39000, symBinAddr: 0x1F5980, symSize: 0x0 }
  - { offset: 0x560989, size: 0x8, addend: 0x0, symName: _iq2_data, symObjAddr: 0xAAFE0, symBinAddr: 0x296640, symSize: 0x0 }
  - { offset: 0x5609FE, size: 0x8, addend: 0x0, symName: _iq3_data, symObjAddr: 0xAB040, symBinAddr: 0x2966A0, symSize: 0x0 }
  - { offset: 0x5615A5, size: 0x8, addend: 0x0, symName: _quantize_row_q4_1_ref, symObjAddr: 0x3D0, symBinAddr: 0xF6FB0, symSize: 0x390 }
  - { offset: 0x561738, size: 0x8, addend: 0x0, symName: _quantize_row_q5_1_ref, symObjAddr: 0xD60, symBinAddr: 0xF7940, symSize: 0x560 }
  - { offset: 0x5618DB, size: 0x8, addend: 0x0, symName: _quantize_row_q8_0_ref, symObjAddr: 0x12C0, symBinAddr: 0xF7EA0, symSize: 0x630 }
  - { offset: 0x561ADF, size: 0x8, addend: 0x0, symName: _quantize_row_q8_1_ref, symObjAddr: 0x18F0, symBinAddr: 0xF84D0, symSize: 0x7A0 }
  - { offset: 0x562086, size: 0x8, addend: 0x0, symName: _quantize_row_q2_K_ref, symObjAddr: 0x2BB0, symBinAddr: 0xF9790, symSize: 0xFB0 }
  - { offset: 0x5627EC, size: 0x8, addend: 0x0, symName: _dequantize_row_q2_K, symObjAddr: 0x3B60, symBinAddr: 0xFA740, symSize: 0x6C0 }
  - { offset: 0x562F97, size: 0x8, addend: 0x0, symName: _quantize_q2_K, symObjAddr: 0x4220, symBinAddr: 0xFAE00, symSize: 0x3250 }
  - { offset: 0x563AFA, size: 0x8, addend: 0x0, symName: _quantize_row_q3_K_ref, symObjAddr: 0x7470, symBinAddr: 0xFE050, symSize: 0x10B0 }
  - { offset: 0x56401F, size: 0x8, addend: 0x0, symName: _dequantize_row_q3_K, symObjAddr: 0x8520, symBinAddr: 0xFF100, symSize: 0x7C0 }
  - { offset: 0x564579, size: 0x8, addend: 0x0, symName: _quantize_q3_K, symObjAddr: 0x8CE0, symBinAddr: 0xFF8C0, symSize: 0x1700 }
  - { offset: 0x564D60, size: 0x8, addend: 0x0, symName: _quantize_row_q4_K_ref, symObjAddr: 0xA3E0, symBinAddr: 0x100FC0, symSize: 0xCD0 }
  - { offset: 0x5652EA, size: 0x8, addend: 0x0, symName: _dequantize_row_q4_K, symObjAddr: 0xB0B0, symBinAddr: 0x101C90, symSize: 0xA10 }
  - { offset: 0x565702, size: 0x8, addend: 0x0, symName: _quantize_q4_K, symObjAddr: 0xBAC0, symBinAddr: 0x1026A0, symSize: 0x2760 }
  - { offset: 0x5661B6, size: 0x8, addend: 0x0, symName: _quantize_row_q5_K_ref, symObjAddr: 0xE220, symBinAddr: 0x104E00, symSize: 0xD80 }
  - { offset: 0x566792, size: 0x8, addend: 0x0, symName: _dequantize_row_q5_K, symObjAddr: 0xEFA0, symBinAddr: 0x105B80, symSize: 0x8C0 }
  - { offset: 0x566C00, size: 0x8, addend: 0x0, symName: _quantize_q5_K, symObjAddr: 0xF860, symBinAddr: 0x106440, symSize: 0x2910 }
  - { offset: 0x5676EC, size: 0x8, addend: 0x0, symName: _quantize_row_q6_K_ref, symObjAddr: 0x12170, symBinAddr: 0x108D50, symSize: 0xE70 }
  - { offset: 0x567C34, size: 0x8, addend: 0x0, symName: _dequantize_row_q6_K, symObjAddr: 0x12FE0, symBinAddr: 0x109BC0, symSize: 0x430 }
  - { offset: 0x567F32, size: 0x8, addend: 0x0, symName: _quantize_q6_K, symObjAddr: 0x13410, symBinAddr: 0x109FF0, symSize: 0xF90 }
  - { offset: 0x568668, size: 0x8, addend: 0x0, symName: _quantize_q4_0, symObjAddr: 0x143A0, symBinAddr: 0x10AF80, symSize: 0xE80 }
  - { offset: 0x568D54, size: 0x8, addend: 0x0, symName: _quantize_q4_1, symObjAddr: 0x15220, symBinAddr: 0x10BE00, symSize: 0x870 }
  - { offset: 0x569278, size: 0x8, addend: 0x0, symName: _quantize_q5_0, symObjAddr: 0x15A90, symBinAddr: 0x10C670, symSize: 0xCB0 }
  - { offset: 0x569824, size: 0x8, addend: 0x0, symName: _quantize_q5_1, symObjAddr: 0x16740, symBinAddr: 0x10D320, symSize: 0xA60 }
  - { offset: 0x569C46, size: 0x8, addend: 0x0, symName: _quantize_q8_0, symObjAddr: 0x171A0, symBinAddr: 0x10DD80, symSize: 0x60 }
  - { offset: 0x569D02, size: 0x8, addend: 0x0, symName: _quantize_row_tq1_0_ref, symObjAddr: 0x17200, symBinAddr: 0x10DDE0, symSize: 0x530 }
  - { offset: 0x56A0BA, size: 0x8, addend: 0x0, symName: _quantize_row_tq2_0_ref, symObjAddr: 0x17730, symBinAddr: 0x10E310, symSize: 0x2A0 }
  - { offset: 0x56A33D, size: 0x8, addend: 0x0, symName: _quantize_tq1_0, symObjAddr: 0x179D0, symBinAddr: 0x10E5B0, symSize: 0x60 }
  - { offset: 0x56A3FA, size: 0x8, addend: 0x0, symName: _quantize_tq2_0, symObjAddr: 0x17A30, symBinAddr: 0x10E610, symSize: 0x60 }
  - { offset: 0x56A4B7, size: 0x8, addend: 0x0, symName: _dequantize_row_tq1_0, symObjAddr: 0x17A90, symBinAddr: 0x10E670, symSize: 0x1770 }
  - { offset: 0x56A686, size: 0x8, addend: 0x0, symName: _dequantize_row_tq2_0, symObjAddr: 0x19200, symBinAddr: 0x10FDE0, symSize: 0xCD0 }
  - { offset: 0x56A77F, size: 0x8, addend: 0x0, symName: _dequantize_row_iq2_xxs, symObjAddr: 0x19ED0, symBinAddr: 0x110AB0, symSize: 0x4D0 }
  - { offset: 0x56A8CB, size: 0x8, addend: 0x0, symName: _dequantize_row_iq2_xs, symObjAddr: 0x1A3A0, symBinAddr: 0x110F80, symSize: 0x2A0 }
  - { offset: 0x56A9E3, size: 0x8, addend: 0x0, symName: _dequantize_row_iq2_s, symObjAddr: 0x1A640, symBinAddr: 0x111220, symSize: 0x4E0 }
  - { offset: 0x56AB2B, size: 0x8, addend: 0x0, symName: _dequantize_row_iq3_xxs, symObjAddr: 0x1AB20, symBinAddr: 0x111700, symSize: 0x4D0 }
  - { offset: 0x56ACA4, size: 0x8, addend: 0x0, symName: _dequantize_row_iq3_s, symObjAddr: 0x1AFF0, symBinAddr: 0x111BD0, symSize: 0x970 }
  - { offset: 0x56AE64, size: 0x8, addend: 0x0, symName: _dequantize_row_iq1_s, symObjAddr: 0x1B960, symBinAddr: 0x112540, symSize: 0x220 }
  - { offset: 0x56AFD6, size: 0x8, addend: 0x0, symName: _dequantize_row_iq1_m, symObjAddr: 0x1BB80, symBinAddr: 0x112760, symSize: 0x320 }
  - { offset: 0x56B181, size: 0x8, addend: 0x0, symName: _dequantize_row_iq4_nl, symObjAddr: 0x1BEA0, symBinAddr: 0x112A80, symSize: 0x3D0 }
  - { offset: 0x56B238, size: 0x8, addend: 0x0, symName: _dequantize_row_iq4_xs, symObjAddr: 0x1C270, symBinAddr: 0x112E50, symSize: 0x4E0 }
  - { offset: 0x56B352, size: 0x8, addend: 0x0, symName: _quantize_row_q8_K_ref, symObjAddr: 0x1C750, symBinAddr: 0x113330, symSize: 0x790 }
  - { offset: 0x56B4DE, size: 0x8, addend: 0x0, symName: _dequantize_row_q8_K, symObjAddr: 0x1CEE0, symBinAddr: 0x113AC0, symSize: 0x1C0 }
  - { offset: 0x56B62E, size: 0x8, addend: 0x0, symName: _iq2_compare_func, symObjAddr: 0x1D780, symBinAddr: 0x114360, symSize: 0x30 }
  - { offset: 0x56B686, size: 0x8, addend: 0x0, symName: _iq2xs_free_impl, symObjAddr: 0x1D7B0, symBinAddr: 0x114390, symSize: 0xF0 }
  - { offset: 0x56BBB2, size: 0x8, addend: 0x0, symName: _quantize_iq2_xxs, symObjAddr: 0x1D8A0, symBinAddr: 0x114480, symSize: 0x20D0 }
  - { offset: 0x56C5CB, size: 0x8, addend: 0x0, symName: _iq2_find_best_neighbour, symObjAddr: 0x2D6F0, symBinAddr: 0x1242D0, symSize: 0x2B0 }
  - { offset: 0x56CCD0, size: 0x8, addend: 0x0, symName: _quantize_iq2_xs, symObjAddr: 0x1F970, symBinAddr: 0x116550, symSize: 0x2600 }
  - { offset: 0x56D63F, size: 0x8, addend: 0x0, symName: _iq3_compare_func, symObjAddr: 0x224E0, symBinAddr: 0x1190C0, symSize: 0x30 }
  - { offset: 0x56D697, size: 0x8, addend: 0x0, symName: _iq3xs_free_impl, symObjAddr: 0x22510, symBinAddr: 0x1190F0, symSize: 0x90 }
  - { offset: 0x56D722, size: 0x8, addend: 0x0, symName: _quantize_iq3_xxs, symObjAddr: 0x225A0, symBinAddr: 0x119180, symSize: 0xB0 }
  - { offset: 0x56D812, size: 0x8, addend: 0x0, symName: _quantize_row_iq3_xxs_impl, symObjAddr: 0x22650, symBinAddr: 0x119230, symSize: 0x16F0 }
  - { offset: 0x56E4B2, size: 0x8, addend: 0x0, symName: _quantize_row_iq3_xxs_ref, symObjAddr: 0x23D40, symBinAddr: 0x11A920, symSize: 0x10 }
  - { offset: 0x56EA2E, size: 0x8, addend: 0x0, symName: _quantize_iq3_s, symObjAddr: 0x23D50, symBinAddr: 0x11A930, symSize: 0x1A80 }
  - { offset: 0x56F36F, size: 0x8, addend: 0x0, symName: _quantize_row_iq3_s_ref, symObjAddr: 0x257D0, symBinAddr: 0x11C3B0, symSize: 0x20 }
  - { offset: 0x56F7CB, size: 0x8, addend: 0x0, symName: _quantize_iq1_s, symObjAddr: 0x257F0, symBinAddr: 0x11C3D0, symSize: 0x17D0 }
  - { offset: 0x56FEB5, size: 0x8, addend: 0x0, symName: _iq1_find_best_neighbour2, symObjAddr: 0x2D9D0, symBinAddr: 0x1245B0, symSize: 0x7C0 }
  - { offset: 0x5706E4, size: 0x8, addend: 0x0, symName: _quantize_iq1_m, symObjAddr: 0x26FC0, symBinAddr: 0x11DBA0, symSize: 0x1EE0 }
  - { offset: 0x570E65, size: 0x8, addend: 0x0, symName: _quantize_iq4_nl, symObjAddr: 0x28EA0, symBinAddr: 0x11FA80, symSize: 0x2A0 }
  - { offset: 0x571011, size: 0x8, addend: 0x0, symName: _quantize_row_iq4_nl_impl, symObjAddr: 0x29140, symBinAddr: 0x11FD20, symSize: 0xF10 }
  - { offset: 0x5718B1, size: 0x8, addend: 0x0, symName: _quantize_row_iq4_nl_ref, symObjAddr: 0x2A050, symBinAddr: 0x120C30, symSize: 0xE0 }
  - { offset: 0x5719D9, size: 0x8, addend: 0x0, symName: _quantize_iq4_xs, symObjAddr: 0x2A130, symBinAddr: 0x120D10, symSize: 0x2B0 }
  - { offset: 0x571BD7, size: 0x8, addend: 0x0, symName: _quantize_row_iq4_xs_ref, symObjAddr: 0x2A3E0, symBinAddr: 0x120FC0, symSize: 0xE0 }
  - { offset: 0x572169, size: 0x8, addend: 0x0, symName: _quantize_iq2_s, symObjAddr: 0x2A4C0, symBinAddr: 0x1210A0, symSize: 0x2310 }
  - { offset: 0x572A97, size: 0x8, addend: 0x0, symName: _quantize_row_iq2_s_ref, symObjAddr: 0x2C7D0, symBinAddr: 0x1233B0, symSize: 0x20 }
  - { offset: 0x572BCA, size: 0x8, addend: 0x0, symName: _ggml_validate_row_data, symObjAddr: 0x2C7F0, symBinAddr: 0x1233D0, symSize: 0xF00 }
  - { offset: 0x573E75, size: 0x8, addend: 0x0, symName: _iq1_sort_helper, symObjAddr: 0x2D9A0, symBinAddr: 0x124580, symSize: 0x30 }
  - { offset: 0x574120, size: 0x8, addend: 0x0, symName: _ggml_critical_section_mutex, symObjAddr: 0x60, symBinAddr: 0x22F618, symSize: 0x0 }
  - { offset: 0x574CBD, size: 0x8, addend: 0x0, symName: _ggml_critical_section_start, symObjAddr: 0x0, symBinAddr: 0x124D70, symSize: 0x20 }
  - { offset: 0x574CD3, size: 0x8, addend: 0x0, symName: _ggml_critical_section_end, symObjAddr: 0x20, symBinAddr: 0x124D90, symSize: 0x11 }
  - { offset: 0x576BE2, size: 0x8, addend: 0x0, symName: _ggml_abort, symObjAddr: 0x0, symBinAddr: 0x124DD0, symSize: 0xE0 }
  - { offset: 0x576C56, size: 0x8, addend: 0x0, symName: _ggml_init, symObjAddr: 0x1590, symBinAddr: 0x126360, symSize: 0x2C0 }
  - { offset: 0x576C7E, size: 0x8, addend: 0x0, symName: _ggml_init.is_first_call, symObjAddr: 0x7CE58, symBinAddr: 0x2966D0, symSize: 0x0 }
  - { offset: 0x576E80, size: 0x8, addend: 0x0, symName: _ggml_hash_size, symObjAddr: 0xD050, symBinAddr: 0x131E20, symSize: 0x60 }
  - { offset: 0x576EA1, size: 0x8, addend: 0x0, symName: _ggml_hash_size.primes, symObjAddr: 0x169D0, symBinAddr: 0x1F7F00, symSize: 0x0 }
  - { offset: 0x576F14, size: 0x8, addend: 0x0, symName: _ggml_table_f32_f16, symObjAddr: 0x7CE70, symBinAddr: 0x2D6AC0, symSize: 0x0 }
  - { offset: 0x576F51, size: 0x8, addend: 0x0, symName: _type_traits, symObjAddr: 0x15B50, symBinAddr: 0x22A1F0, symSize: 0x0 }
  - { offset: 0x577084, size: 0x8, addend: 0x0, symName: _GGML_OP_NAME, symObjAddr: 0x163E0, symBinAddr: 0x22AA80, symSize: 0x0 }
  - { offset: 0x5770A9, size: 0x8, addend: 0x0, symName: _GGML_OP_SYMBOL, symObjAddr: 0x16690, symBinAddr: 0x22AD30, symSize: 0x0 }
  - { offset: 0x5770C0, size: 0x8, addend: 0x0, symName: _GGML_UNARY_OP_NAME, symObjAddr: 0x16940, symBinAddr: 0x22AFE0, symSize: 0x0 }
  - { offset: 0x5770E4, size: 0x8, addend: 0x0, symName: _g_logger_state.0, symObjAddr: 0x16B68, symBinAddr: 0x22F658, symSize: 0x0 }
  - { offset: 0x5770EF, size: 0x8, addend: 0x0, symName: _g_logger_state.1, symObjAddr: 0x7CE60, symBinAddr: 0x2966D8, symSize: 0x0 }
  - { offset: 0x577988, size: 0x8, addend: 0x0, symName: _ggml_abort, symObjAddr: 0x0, symBinAddr: 0x124DD0, symSize: 0xE0 }
  - { offset: 0x577D72, size: 0x8, addend: 0x0, symName: _ggml_log_internal, symObjAddr: 0xE0, symBinAddr: 0x124EB0, symSize: 0x180 }
  - { offset: 0x577EA5, size: 0x8, addend: 0x0, symName: _ggml_log_callback_default, symObjAddr: 0x260, symBinAddr: 0x125030, symSize: 0x30 }
  - { offset: 0x577F24, size: 0x8, addend: 0x0, symName: _ggml_aligned_malloc, symObjAddr: 0x290, symBinAddr: 0x125060, symSize: 0xC0 }
  - { offset: 0x577FE3, size: 0x8, addend: 0x0, symName: _ggml_aligned_free, symObjAddr: 0x350, symBinAddr: 0x125120, symSize: 0x10 }
  - { offset: 0x57801E, size: 0x8, addend: 0x0, symName: _ggml_status_to_string, symObjAddr: 0x360, symBinAddr: 0x125130, symSize: 0x30 }
  - { offset: 0x578074, size: 0x8, addend: 0x0, symName: _ggml_fp16_to_fp32, symObjAddr: 0x390, symBinAddr: 0x125160, symSize: 0x20 }
  - { offset: 0x57820F, size: 0x8, addend: 0x0, symName: _ggml_fp32_to_fp16, symObjAddr: 0x3B0, symBinAddr: 0x125180, symSize: 0x80 }
  - { offset: 0x57838C, size: 0x8, addend: 0x0, symName: _ggml_bf16_to_fp32, symObjAddr: 0x430, symBinAddr: 0x125200, symSize: 0x10 }
  - { offset: 0x578433, size: 0x8, addend: 0x0, symName: _ggml_fp32_to_bf16, symObjAddr: 0x440, symBinAddr: 0x125210, symSize: 0x40 }
  - { offset: 0x578483, size: 0x8, addend: 0x0, symName: _ggml_fp16_to_fp32_row, symObjAddr: 0x480, symBinAddr: 0x125250, symSize: 0xD0 }
  - { offset: 0x5784FC, size: 0x8, addend: 0x0, symName: _ggml_fp32_to_fp16_row, symObjAddr: 0x550, symBinAddr: 0x125320, symSize: 0x200 }
  - { offset: 0x57862F, size: 0x8, addend: 0x0, symName: _ggml_bf16_to_fp32_row, symObjAddr: 0x750, symBinAddr: 0x125520, symSize: 0x100 }
  - { offset: 0x57869E, size: 0x8, addend: 0x0, symName: _ggml_fp32_to_bf16_row_ref, symObjAddr: 0x850, symBinAddr: 0x125620, symSize: 0x120 }
  - { offset: 0x5786CA, size: 0x8, addend: 0x0, symName: _ggml_fp32_to_bf16_row_ref, symObjAddr: 0x850, symBinAddr: 0x125620, symSize: 0x120 }
  - { offset: 0x5786F9, size: 0x8, addend: 0x0, symName: _ggml_fp32_to_bf16_row, symObjAddr: 0x970, symBinAddr: 0x125740, symSize: 0x120 }
  - { offset: 0x578764, size: 0x8, addend: 0x0, symName: _ggml_guid_matches, symObjAddr: 0xA90, symBinAddr: 0x125860, symSize: 0x20 }
  - { offset: 0x57879E, size: 0x8, addend: 0x0, symName: _ggml_time_init, symObjAddr: 0xAB0, symBinAddr: 0x125880, symSize: 0x10 }
  - { offset: 0x5787B5, size: 0x8, addend: 0x0, symName: _ggml_time_ms, symObjAddr: 0xAC0, symBinAddr: 0x125890, symSize: 0x50 }
  - { offset: 0x57885C, size: 0x8, addend: 0x0, symName: _ggml_time_us, symObjAddr: 0xB10, symBinAddr: 0x1258E0, symSize: 0x50 }
  - { offset: 0x5788A1, size: 0x8, addend: 0x0, symName: _ggml_cycles, symObjAddr: 0xB60, symBinAddr: 0x125930, symSize: 0x10 }
  - { offset: 0x5788DB, size: 0x8, addend: 0x0, symName: _ggml_cycles_per_ms, symObjAddr: 0xB70, symBinAddr: 0x125940, symSize: 0x10 }
  - { offset: 0x5788F6, size: 0x8, addend: 0x0, symName: _ggml_fopen, symObjAddr: 0xB80, symBinAddr: 0x125950, symSize: 0x10 }
  - { offset: 0x578955, size: 0x8, addend: 0x0, symName: _ggml_get_type_traits, symObjAddr: 0xB90, symBinAddr: 0x125960, symSize: 0x40 }
  - { offset: 0x578997, size: 0x8, addend: 0x0, symName: _ggml_print_object, symObjAddr: 0xBD0, symBinAddr: 0x1259A0, symSize: 0x30 }
  - { offset: 0x5789EE, size: 0x8, addend: 0x0, symName: _ggml_print_objects, symObjAddr: 0xC00, symBinAddr: 0x1259D0, symSize: 0x90 }
  - { offset: 0x578A8E, size: 0x8, addend: 0x0, symName: _ggml_nelements, symObjAddr: 0xC90, symBinAddr: 0x125A60, symSize: 0x20 }
  - { offset: 0x578AAB, size: 0x8, addend: 0x0, symName: _ggml_nrows, symObjAddr: 0xCB0, symBinAddr: 0x125A80, symSize: 0x20 }
  - { offset: 0x578B0E, size: 0x8, addend: 0x0, symName: _ggml_nbytes, symObjAddr: 0xCD0, symBinAddr: 0x125AA0, symSize: 0x90 }
  - { offset: 0x578B7C, size: 0x8, addend: 0x0, symName: _ggml_blck_size, symObjAddr: 0xD60, symBinAddr: 0x125B30, symSize: 0x20 }
  - { offset: 0x578B99, size: 0x8, addend: 0x0, symName: _ggml_type_size, symObjAddr: 0xD80, symBinAddr: 0x125B50, symSize: 0x20 }
  - { offset: 0x578C16, size: 0x8, addend: 0x0, symName: _ggml_nbytes_pad, symObjAddr: 0xDA0, symBinAddr: 0x125B70, symSize: 0xA0 }
  - { offset: 0x578CB1, size: 0x8, addend: 0x0, symName: _ggml_row_size, symObjAddr: 0xE40, symBinAddr: 0x125C10, symSize: 0x40 }
  - { offset: 0x578D14, size: 0x8, addend: 0x0, symName: _ggml_type_sizef, symObjAddr: 0xE80, symBinAddr: 0x125C50, symSize: 0x50 }
  - { offset: 0x578D3F, size: 0x8, addend: 0x0, symName: _ggml_type_name, symObjAddr: 0xED0, symBinAddr: 0x125CA0, symSize: 0x30 }
  - { offset: 0x578D5C, size: 0x8, addend: 0x0, symName: _ggml_is_quantized, symObjAddr: 0xF00, symBinAddr: 0x125CD0, symSize: 0x20 }
  - { offset: 0x578D79, size: 0x8, addend: 0x0, symName: _ggml_op_name, symObjAddr: 0xF20, symBinAddr: 0x125CF0, symSize: 0x20 }
  - { offset: 0x578D96, size: 0x8, addend: 0x0, symName: _ggml_op_symbol, symObjAddr: 0xF40, symBinAddr: 0x125D10, symSize: 0x20 }
  - { offset: 0x578DB3, size: 0x8, addend: 0x0, symName: _ggml_unary_op_name, symObjAddr: 0xF60, symBinAddr: 0x125D30, symSize: 0x20 }
  - { offset: 0x578E4A, size: 0x8, addend: 0x0, symName: _ggml_op_desc, symObjAddr: 0xF80, symBinAddr: 0x125D50, symSize: 0x30 }
  - { offset: 0x578F02, size: 0x8, addend: 0x0, symName: _ggml_get_unary_op, symObjAddr: 0xFB0, symBinAddr: 0x125D80, symSize: 0x30 }
  - { offset: 0x578F5C, size: 0x8, addend: 0x0, symName: _ggml_element_size, symObjAddr: 0xFE0, symBinAddr: 0x125DB0, symSize: 0x20 }
  - { offset: 0x578F8F, size: 0x8, addend: 0x0, symName: _ggml_is_scalar, symObjAddr: 0x1000, symBinAddr: 0x125DD0, symSize: 0x30 }
  - { offset: 0x578FAC, size: 0x8, addend: 0x0, symName: _ggml_is_vector, symObjAddr: 0x1030, symBinAddr: 0x125E00, symSize: 0x20 }
  - { offset: 0x578FC9, size: 0x8, addend: 0x0, symName: _ggml_is_matrix, symObjAddr: 0x1050, symBinAddr: 0x125E20, symSize: 0x20 }
  - { offset: 0x578FE6, size: 0x8, addend: 0x0, symName: _ggml_is_3d, symObjAddr: 0x1070, symBinAddr: 0x125E40, symSize: 0x10 }
  - { offset: 0x579003, size: 0x8, addend: 0x0, symName: _ggml_n_dims, symObjAddr: 0x1080, symBinAddr: 0x125E50, symSize: 0x30 }
  - { offset: 0x57904E, size: 0x8, addend: 0x0, symName: _ggml_ftype_to_ggml_type, symObjAddr: 0x10B0, symBinAddr: 0x125E80, symSize: 0x50 }
  - { offset: 0x5790A1, size: 0x8, addend: 0x0, symName: _ggml_tensor_overhead, symObjAddr: 0x1100, symBinAddr: 0x125ED0, symSize: 0x10 }
  - { offset: 0x5790BC, size: 0x8, addend: 0x0, symName: _ggml_is_transposed, symObjAddr: 0x1110, symBinAddr: 0x125EE0, symSize: 0x20 }
  - { offset: 0x57913A, size: 0x8, addend: 0x0, symName: _ggml_is_contiguous, symObjAddr: 0x1130, symBinAddr: 0x125F00, symSize: 0xB0 }
  - { offset: 0x5791DA, size: 0x8, addend: 0x0, symName: _ggml_is_contiguous_0, symObjAddr: 0x11E0, symBinAddr: 0x125FB0, symSize: 0xB0 }
  - { offset: 0x57925B, size: 0x8, addend: 0x0, symName: _ggml_is_contiguous_1, symObjAddr: 0x1290, symBinAddr: 0x126060, symSize: 0xA0 }
  - { offset: 0x5792DC, size: 0x8, addend: 0x0, symName: _ggml_is_contiguous_2, symObjAddr: 0x1330, symBinAddr: 0x126100, symSize: 0xA0 }
  - { offset: 0x57936B, size: 0x8, addend: 0x0, symName: _ggml_is_permuted, symObjAddr: 0x13D0, symBinAddr: 0x1261A0, symSize: 0x30 }
  - { offset: 0x579396, size: 0x8, addend: 0x0, symName: _ggml_is_empty, symObjAddr: 0x1400, symBinAddr: 0x1261D0, symSize: 0x30 }
  - { offset: 0x5793CC, size: 0x8, addend: 0x0, symName: _ggml_are_same_shape, symObjAddr: 0x1430, symBinAddr: 0x126200, symSize: 0x40 }
  - { offset: 0x5793F1, size: 0x8, addend: 0x0, symName: _ggml_are_same_stride, symObjAddr: 0x1470, symBinAddr: 0x126240, symSize: 0x40 }
  - { offset: 0x579456, size: 0x8, addend: 0x0, symName: _ggml_can_repeat, symObjAddr: 0x14B0, symBinAddr: 0x126280, symSize: 0xE0 }
  - { offset: 0x579637, size: 0x8, addend: 0x0, symName: _ggml_reset, symObjAddr: 0x1850, symBinAddr: 0x126620, symSize: 0x20 }
  - { offset: 0x579683, size: 0x8, addend: 0x0, symName: _ggml_free, symObjAddr: 0x1870, symBinAddr: 0x126640, symSize: 0x40 }
  - { offset: 0x5796F7, size: 0x8, addend: 0x0, symName: _ggml_used_mem, symObjAddr: 0x18B0, symBinAddr: 0x126680, symSize: 0x20 }
  - { offset: 0x579722, size: 0x8, addend: 0x0, symName: _ggml_get_no_alloc, symObjAddr: 0x18D0, symBinAddr: 0x1266A0, symSize: 0x10 }
  - { offset: 0x57974D, size: 0x8, addend: 0x0, symName: _ggml_set_no_alloc, symObjAddr: 0x18E0, symBinAddr: 0x1266B0, symSize: 0x10 }
  - { offset: 0x579783, size: 0x8, addend: 0x0, symName: _ggml_get_mem_buffer, symObjAddr: 0x18F0, symBinAddr: 0x1266C0, symSize: 0x10 }
  - { offset: 0x5797AE, size: 0x8, addend: 0x0, symName: _ggml_get_mem_size, symObjAddr: 0x1900, symBinAddr: 0x1266D0, symSize: 0x10 }
  - { offset: 0x5798D1, size: 0x8, addend: 0x0, symName: _ggml_get_max_tensor_size, symObjAddr: 0x1910, symBinAddr: 0x1266E0, symSize: 0x110 }
  - { offset: 0x579928, size: 0x8, addend: 0x0, symName: _ggml_get_max_tensor_size, symObjAddr: 0x1910, symBinAddr: 0x1266E0, symSize: 0x110 }
  - { offset: 0x5799F1, size: 0x8, addend: 0x0, symName: _ggml_get_first_tensor, symObjAddr: 0x1A20, symBinAddr: 0x1267F0, symSize: 0x40 }
  - { offset: 0x579A22, size: 0x8, addend: 0x0, symName: _ggml_get_next_tensor, symObjAddr: 0x1A60, symBinAddr: 0x126830, symSize: 0x40 }
  - { offset: 0x579A5B, size: 0x8, addend: 0x0, symName: _ggml_new_tensor, symObjAddr: 0x1AA0, symBinAddr: 0x126870, symSize: 0x10 }
  - { offset: 0x579AC5, size: 0x8, addend: 0x0, symName: _ggml_new_tensor_impl, symObjAddr: 0x1AB0, symBinAddr: 0x126880, symSize: 0x5A0 }
  - { offset: 0x579E96, size: 0x8, addend: 0x0, symName: _ggml_new_tensor_1d, symObjAddr: 0x2050, symBinAddr: 0x126E20, symSize: 0x30 }
  - { offset: 0x579F32, size: 0x8, addend: 0x0, symName: _ggml_new_tensor_2d, symObjAddr: 0x2080, symBinAddr: 0x126E50, symSize: 0x50 }
  - { offset: 0x579FE5, size: 0x8, addend: 0x0, symName: _ggml_new_tensor_3d, symObjAddr: 0x20D0, symBinAddr: 0x126EA0, symSize: 0x60 }
  - { offset: 0x57A0A2, size: 0x8, addend: 0x0, symName: _ggml_new_tensor_4d, symObjAddr: 0x2130, symBinAddr: 0x126F00, symSize: 0x60 }
  - { offset: 0x57A169, size: 0x8, addend: 0x0, symName: _ggml_new_buffer, symObjAddr: 0x2190, symBinAddr: 0x126F60, symSize: 0xC0 }
  - { offset: 0x57A23C, size: 0x8, addend: 0x0, symName: _ggml_dup_tensor, symObjAddr: 0x2250, symBinAddr: 0x127020, symSize: 0x20 }
  - { offset: 0x57A2BE, size: 0x8, addend: 0x0, symName: _ggml_unravel_index, symObjAddr: 0x2270, symBinAddr: 0x127040, symSize: 0xC0 }
  - { offset: 0x57A3A5, size: 0x8, addend: 0x0, symName: _ggml_get_data, symObjAddr: 0x2330, symBinAddr: 0x127100, symSize: 0x10 }
  - { offset: 0x57A3D0, size: 0x8, addend: 0x0, symName: _ggml_get_data_f32, symObjAddr: 0x2340, symBinAddr: 0x127110, symSize: 0x10 }
  - { offset: 0x57A3FB, size: 0x8, addend: 0x0, symName: _ggml_get_name, symObjAddr: 0x2350, symBinAddr: 0x127120, symSize: 0x10 }
  - { offset: 0x57A418, size: 0x8, addend: 0x0, symName: _ggml_set_name, symObjAddr: 0x2360, symBinAddr: 0x127130, symSize: 0x70 }
  - { offset: 0x57A465, size: 0x8, addend: 0x0, symName: _ggml_format_name, symObjAddr: 0x23D0, symBinAddr: 0x1271A0, symSize: 0xD0 }
  - { offset: 0x57A4B5, size: 0x8, addend: 0x0, symName: _ggml_view_tensor, symObjAddr: 0x24A0, symBinAddr: 0x127270, symSize: 0x70 }
  - { offset: 0x57A541, size: 0x8, addend: 0x0, symName: _ggml_get_tensor, symObjAddr: 0x2510, symBinAddr: 0x1272E0, symSize: 0x60 }
  - { offset: 0x57A656, size: 0x8, addend: 0x0, symName: _ggml_dup, symObjAddr: 0x2570, symBinAddr: 0x127340, symSize: 0x40 }
  - { offset: 0x57A79E, size: 0x8, addend: 0x0, symName: _ggml_dup_inplace, symObjAddr: 0x25B0, symBinAddr: 0x127380, symSize: 0x80 }
  - { offset: 0x57A8A6, size: 0x8, addend: 0x0, symName: _ggml_add, symObjAddr: 0x2630, symBinAddr: 0x127400, symSize: 0x10 }
  - { offset: 0x57A918, size: 0x8, addend: 0x0, symName: _ggml_add_impl, symObjAddr: 0x2640, symBinAddr: 0x127410, symSize: 0x1D0 }
  - { offset: 0x57AB36, size: 0x8, addend: 0x0, symName: _ggml_add_inplace, symObjAddr: 0x2810, symBinAddr: 0x1275E0, symSize: 0x10 }
  - { offset: 0x57AC3D, size: 0x8, addend: 0x0, symName: _ggml_add_cast, symObjAddr: 0x2820, symBinAddr: 0x1275F0, symSize: 0x170 }
  - { offset: 0x57AE38, size: 0x8, addend: 0x0, symName: _ggml_add1, symObjAddr: 0x2990, symBinAddr: 0x127760, symSize: 0x10 }
  - { offset: 0x57AEAA, size: 0x8, addend: 0x0, symName: _ggml_add1_impl, symObjAddr: 0x29A0, symBinAddr: 0x127770, symSize: 0x150 }
  - { offset: 0x57B0B6, size: 0x8, addend: 0x0, symName: _ggml_add1_inplace, symObjAddr: 0x2AF0, symBinAddr: 0x1278C0, symSize: 0x10 }
  - { offset: 0x57B128, size: 0x8, addend: 0x0, symName: _ggml_acc, symObjAddr: 0x2B00, symBinAddr: 0x1278D0, symSize: 0x20 }
  - { offset: 0x57B1F2, size: 0x8, addend: 0x0, symName: _ggml_acc_impl, symObjAddr: 0x2B20, symBinAddr: 0x1278F0, symSize: 0x260 }
  - { offset: 0x57B572, size: 0x8, addend: 0x0, symName: _ggml_acc_inplace, symObjAddr: 0x2D80, symBinAddr: 0x127B50, symSize: 0x20 }
  - { offset: 0x57B63C, size: 0x8, addend: 0x0, symName: _ggml_sub, symObjAddr: 0x2DA0, symBinAddr: 0x127B70, symSize: 0x10 }
  - { offset: 0x57B6AE, size: 0x8, addend: 0x0, symName: _ggml_sub_impl, symObjAddr: 0x2DB0, symBinAddr: 0x127B80, symSize: 0x1D0 }
  - { offset: 0x57B8A3, size: 0x8, addend: 0x0, symName: _ggml_sub_inplace, symObjAddr: 0x2F80, symBinAddr: 0x127D50, symSize: 0x10 }
  - { offset: 0x57B915, size: 0x8, addend: 0x0, symName: _ggml_mul, symObjAddr: 0x2F90, symBinAddr: 0x127D60, symSize: 0x10 }
  - { offset: 0x57B96B, size: 0x8, addend: 0x0, symName: _ggml_mul_impl, symObjAddr: 0x2FA0, symBinAddr: 0x127D70, symSize: 0x1D0 }
  - { offset: 0x57BB60, size: 0x8, addend: 0x0, symName: _ggml_mul_inplace, symObjAddr: 0x3170, symBinAddr: 0x127F40, symSize: 0x10 }
  - { offset: 0x57BBD2, size: 0x8, addend: 0x0, symName: _ggml_div, symObjAddr: 0x3180, symBinAddr: 0x127F50, symSize: 0x10 }
  - { offset: 0x57BC28, size: 0x8, addend: 0x0, symName: _ggml_div_impl, symObjAddr: 0x3190, symBinAddr: 0x127F60, symSize: 0x1D0 }
  - { offset: 0x57BE1D, size: 0x8, addend: 0x0, symName: _ggml_div_inplace, symObjAddr: 0x3360, symBinAddr: 0x128130, symSize: 0x10 }
  - { offset: 0x57BED2, size: 0x8, addend: 0x0, symName: _ggml_sqr, symObjAddr: 0x3370, symBinAddr: 0x128140, symSize: 0x40 }
  - { offset: 0x57BFD5, size: 0x8, addend: 0x0, symName: _ggml_sqr_inplace, symObjAddr: 0x33B0, symBinAddr: 0x128180, symSize: 0x80 }
  - { offset: 0x57C120, size: 0x8, addend: 0x0, symName: _ggml_sqrt, symObjAddr: 0x3430, symBinAddr: 0x128200, symSize: 0x40 }
  - { offset: 0x57C223, size: 0x8, addend: 0x0, symName: _ggml_sqrt_inplace, symObjAddr: 0x3470, symBinAddr: 0x128240, symSize: 0x80 }
  - { offset: 0x57C36E, size: 0x8, addend: 0x0, symName: _ggml_log, symObjAddr: 0x34F0, symBinAddr: 0x1282C0, symSize: 0x40 }
  - { offset: 0x57C471, size: 0x8, addend: 0x0, symName: _ggml_log_inplace, symObjAddr: 0x3530, symBinAddr: 0x128300, symSize: 0x80 }
  - { offset: 0x57C5BC, size: 0x8, addend: 0x0, symName: _ggml_sin, symObjAddr: 0x35B0, symBinAddr: 0x128380, symSize: 0x40 }
  - { offset: 0x57C6AA, size: 0x8, addend: 0x0, symName: _ggml_sin_inplace, symObjAddr: 0x35F0, symBinAddr: 0x1283C0, symSize: 0x80 }
  - { offset: 0x57C7F5, size: 0x8, addend: 0x0, symName: _ggml_cos, symObjAddr: 0x3670, symBinAddr: 0x128440, symSize: 0x40 }
  - { offset: 0x57C8E3, size: 0x8, addend: 0x0, symName: _ggml_cos_inplace, symObjAddr: 0x36B0, symBinAddr: 0x128480, symSize: 0x80 }
  - { offset: 0x57CA21, size: 0x8, addend: 0x0, symName: _ggml_sum, symObjAddr: 0x3730, symBinAddr: 0x128500, symSize: 0x40 }
  - { offset: 0x57CB02, size: 0x8, addend: 0x0, symName: _ggml_sum_rows, symObjAddr: 0x3770, symBinAddr: 0x128540, symSize: 0x80 }
  - { offset: 0x57CBE3, size: 0x8, addend: 0x0, symName: _ggml_mean, symObjAddr: 0x37F0, symBinAddr: 0x1285C0, symSize: 0x80 }
  - { offset: 0x57CCA1, size: 0x8, addend: 0x0, symName: _ggml_argmax, symObjAddr: 0x3870, symBinAddr: 0x128640, symSize: 0xA0 }
  - { offset: 0x57CDF0, size: 0x8, addend: 0x0, symName: _ggml_count_equal, symObjAddr: 0x3910, symBinAddr: 0x1286E0, symSize: 0xA0 }
  - { offset: 0x57CF1E, size: 0x8, addend: 0x0, symName: _ggml_repeat, symObjAddr: 0x39B0, symBinAddr: 0x128780, symSize: 0x150 }
  - { offset: 0x57D07B, size: 0x8, addend: 0x0, symName: _ggml_repeat_back, symObjAddr: 0x3B00, symBinAddr: 0x1288D0, symSize: 0x150 }
  - { offset: 0x57D204, size: 0x8, addend: 0x0, symName: _ggml_concat, symObjAddr: 0x3C50, symBinAddr: 0x128A20, symSize: 0x180 }
  - { offset: 0x57D406, size: 0x8, addend: 0x0, symName: _ggml_abs, symObjAddr: 0x3DD0, symBinAddr: 0x128BA0, symSize: 0xF0 }
  - { offset: 0x57D5D9, size: 0x8, addend: 0x0, symName: _ggml_unary, symObjAddr: 0x3EC0, symBinAddr: 0x128C90, symSize: 0xF0 }
  - { offset: 0x57D7A8, size: 0x8, addend: 0x0, symName: _ggml_abs_inplace, symObjAddr: 0x3FB0, symBinAddr: 0x128D80, symSize: 0x10 }
  - { offset: 0x57D804, size: 0x8, addend: 0x0, symName: _ggml_unary_inplace, symObjAddr: 0x3FC0, symBinAddr: 0x128D90, symSize: 0x140 }
  - { offset: 0x57D9F4, size: 0x8, addend: 0x0, symName: _ggml_sgn, symObjAddr: 0x4100, symBinAddr: 0x128ED0, symSize: 0xF0 }
  - { offset: 0x57DBCF, size: 0x8, addend: 0x0, symName: _ggml_sgn_inplace, symObjAddr: 0x41F0, symBinAddr: 0x128FC0, symSize: 0x10 }
  - { offset: 0x57DC2B, size: 0x8, addend: 0x0, symName: _ggml_neg, symObjAddr: 0x4200, symBinAddr: 0x128FD0, symSize: 0xF0 }
  - { offset: 0x57DDF1, size: 0x8, addend: 0x0, symName: _ggml_neg_inplace, symObjAddr: 0x42F0, symBinAddr: 0x1290C0, symSize: 0x10 }
  - { offset: 0x57DE4D, size: 0x8, addend: 0x0, symName: _ggml_step, symObjAddr: 0x4300, symBinAddr: 0x1290D0, symSize: 0xF0 }
  - { offset: 0x57E028, size: 0x8, addend: 0x0, symName: _ggml_step_inplace, symObjAddr: 0x43F0, symBinAddr: 0x1291C0, symSize: 0x10 }
  - { offset: 0x57E084, size: 0x8, addend: 0x0, symName: _ggml_tanh, symObjAddr: 0x4400, symBinAddr: 0x1291D0, symSize: 0xF0 }
  - { offset: 0x57E25F, size: 0x8, addend: 0x0, symName: _ggml_tanh_inplace, symObjAddr: 0x44F0, symBinAddr: 0x1292C0, symSize: 0x10 }
  - { offset: 0x57E2BB, size: 0x8, addend: 0x0, symName: _ggml_elu, symObjAddr: 0x4500, symBinAddr: 0x1292D0, symSize: 0xF0 }
  - { offset: 0x57E496, size: 0x8, addend: 0x0, symName: _ggml_elu_inplace, symObjAddr: 0x45F0, symBinAddr: 0x1293C0, symSize: 0x10 }
  - { offset: 0x57E4F2, size: 0x8, addend: 0x0, symName: _ggml_relu, symObjAddr: 0x4600, symBinAddr: 0x1293D0, symSize: 0xF0 }
  - { offset: 0x57E6CD, size: 0x8, addend: 0x0, symName: _ggml_relu_inplace, symObjAddr: 0x46F0, symBinAddr: 0x1294C0, symSize: 0x10 }
  - { offset: 0x57E729, size: 0x8, addend: 0x0, symName: _ggml_leaky_relu, symObjAddr: 0x4700, symBinAddr: 0x1294D0, symSize: 0xD0 }
  - { offset: 0x57E8CA, size: 0x8, addend: 0x0, symName: _ggml_sigmoid, symObjAddr: 0x47D0, symBinAddr: 0x1295A0, symSize: 0xF0 }
  - { offset: 0x57EAA5, size: 0x8, addend: 0x0, symName: _ggml_sigmoid_inplace, symObjAddr: 0x48C0, symBinAddr: 0x129690, symSize: 0x10 }
  - { offset: 0x57EB01, size: 0x8, addend: 0x0, symName: _ggml_gelu, symObjAddr: 0x48D0, symBinAddr: 0x1296A0, symSize: 0xF0 }
  - { offset: 0x57ECDC, size: 0x8, addend: 0x0, symName: _ggml_gelu_inplace, symObjAddr: 0x49C0, symBinAddr: 0x129790, symSize: 0x10 }
  - { offset: 0x57ED38, size: 0x8, addend: 0x0, symName: _ggml_gelu_quick, symObjAddr: 0x49D0, symBinAddr: 0x1297A0, symSize: 0xF0 }
  - { offset: 0x57EF13, size: 0x8, addend: 0x0, symName: _ggml_gelu_quick_inplace, symObjAddr: 0x4AC0, symBinAddr: 0x129890, symSize: 0x10 }
  - { offset: 0x57EF6F, size: 0x8, addend: 0x0, symName: _ggml_silu, symObjAddr: 0x4AD0, symBinAddr: 0x1298A0, symSize: 0xF0 }
  - { offset: 0x57F14A, size: 0x8, addend: 0x0, symName: _ggml_silu_inplace, symObjAddr: 0x4BC0, symBinAddr: 0x129990, symSize: 0x10 }
  - { offset: 0x57F1A6, size: 0x8, addend: 0x0, symName: _ggml_silu_back, symObjAddr: 0x4BD0, symBinAddr: 0x1299A0, symSize: 0x40 }
  - { offset: 0x57F26C, size: 0x8, addend: 0x0, symName: _ggml_hardswish, symObjAddr: 0x4C10, symBinAddr: 0x1299E0, symSize: 0xF0 }
  - { offset: 0x57F447, size: 0x8, addend: 0x0, symName: _ggml_hardsigmoid, symObjAddr: 0x4D00, symBinAddr: 0x129AD0, symSize: 0xF0 }
  - { offset: 0x57F622, size: 0x8, addend: 0x0, symName: _ggml_exp, symObjAddr: 0x4DF0, symBinAddr: 0x129BC0, symSize: 0xF0 }
  - { offset: 0x57F7FD, size: 0x8, addend: 0x0, symName: _ggml_exp_inplace, symObjAddr: 0x4EE0, symBinAddr: 0x129CB0, symSize: 0x10 }
  - { offset: 0x57F8A9, size: 0x8, addend: 0x0, symName: _ggml_norm, symObjAddr: 0x4EF0, symBinAddr: 0x129CC0, symSize: 0x70 }
  - { offset: 0x57F9F5, size: 0x8, addend: 0x0, symName: _ggml_norm_inplace, symObjAddr: 0x4F60, symBinAddr: 0x129D30, symSize: 0x90 }
  - { offset: 0x57FB90, size: 0x8, addend: 0x0, symName: _ggml_rms_norm, symObjAddr: 0x4FF0, symBinAddr: 0x129DC0, symSize: 0x70 }
  - { offset: 0x57FCDC, size: 0x8, addend: 0x0, symName: _ggml_rms_norm_inplace, symObjAddr: 0x5060, symBinAddr: 0x129E30, symSize: 0x90 }
  - { offset: 0x57FE27, size: 0x8, addend: 0x0, symName: _ggml_rms_norm_back, symObjAddr: 0x50F0, symBinAddr: 0x129EC0, symSize: 0x80 }
  - { offset: 0x57FFB6, size: 0x8, addend: 0x0, symName: _ggml_group_norm, symObjAddr: 0x5170, symBinAddr: 0x129F40, symSize: 0x50 }
  - { offset: 0x580151, size: 0x8, addend: 0x0, symName: _ggml_group_norm_inplace, symObjAddr: 0x51C0, symBinAddr: 0x129F90, symSize: 0xA0 }
  - { offset: 0x580341, size: 0x8, addend: 0x0, symName: _ggml_l2_norm, symObjAddr: 0x5260, symBinAddr: 0x12A030, symSize: 0x50 }
  - { offset: 0x58049B, size: 0x8, addend: 0x0, symName: _ggml_l2_norm_inplace, symObjAddr: 0x52B0, symBinAddr: 0x12A080, symSize: 0x90 }
  - { offset: 0x580637, size: 0x8, addend: 0x0, symName: _ggml_mul_mat, symObjAddr: 0x5340, symBinAddr: 0x12A110, symSize: 0x140 }
  - { offset: 0x580772, size: 0x8, addend: 0x0, symName: _ggml_mul_mat_set_prec, symObjAddr: 0x5480, symBinAddr: 0x12A250, symSize: 0x30 }
  - { offset: 0x580800, size: 0x8, addend: 0x0, symName: _ggml_mul_mat_id, symObjAddr: 0x54B0, symBinAddr: 0x12A280, symSize: 0x230 }
  - { offset: 0x5809D0, size: 0x8, addend: 0x0, symName: _ggml_out_prod, symObjAddr: 0x56E0, symBinAddr: 0x12A4B0, symSize: 0x140 }
  - { offset: 0x580B0B, size: 0x8, addend: 0x0, symName: _ggml_scale, symObjAddr: 0x5820, symBinAddr: 0x12A5F0, symSize: 0x10 }
  - { offset: 0x580B61, size: 0x8, addend: 0x0, symName: _ggml_scale_impl, symObjAddr: 0x5830, symBinAddr: 0x12A600, symSize: 0x130 }
  - { offset: 0x580D45, size: 0x8, addend: 0x0, symName: _ggml_scale_inplace, symObjAddr: 0x5960, symBinAddr: 0x12A730, symSize: 0x10 }
  - { offset: 0x580DB7, size: 0x8, addend: 0x0, symName: _ggml_set, symObjAddr: 0x5970, symBinAddr: 0x12A740, symSize: 0x20 }
  - { offset: 0x580E81, size: 0x8, addend: 0x0, symName: _ggml_set_impl, symObjAddr: 0x5990, symBinAddr: 0x12A760, symSize: 0x180 }
  - { offset: 0x5810BD, size: 0x8, addend: 0x0, symName: _ggml_set_inplace, symObjAddr: 0x5B10, symBinAddr: 0x12A8E0, symSize: 0x20 }
