---
triple:          'arm64-apple-darwin'
binary-path:     '/Users/vfrancesi/Development/nova/device_builds/llama.cpp/build-visionos/framework/llama.framework/llama'
relocations:
  - { offset: 0x19097, size: 0x8, addend: 0x0, symName: __ZNSt3__127__tree_balance_after_insertB8ne190107IPNS_16__tree_node_baseIPvEEEEvT_S5_, symObjAddr: 0x2864, symBinAddr: 0x6864, symSize: 0x1B4 }
  - { offset: 0x1A808, size: 0x8, addend: 0x0, symName: __ZNSt3__120__throw_length_errorB8ne190107EPKc, symObjAddr: 0x2A2C, symBinAddr: 0x6A2C, symSize: 0x50 }
  - { offset: 0x1B951, size: 0x8, addend: 0x0, symName: __ZSt28__throw_bad_array_new_lengthB8ne190107v, symObjAddr: 0x283C, symBinAddr: 0x683C, symSize: 0x28 }
  - { offset: 0x2052E, size: 0x8, addend: 0x0, symName: __ZNK18llama_adapter_cvec10tensor_forEi, symObjAddr: 0x0, symBinAddr: 0x4000, symSize: 0x40 }
  - { offset: 0x20598, size: 0x8, addend: 0x0, symName: __ZNK18llama_adapter_cvec8apply_toEP12ggml_contextP11ggml_tensori, symObjAddr: 0x40, symBinAddr: 0x4040, symSize: 0x48 }
  - { offset: 0x205FF, size: 0x8, addend: 0x0, symName: __ZNK18llama_adapter_cvec8apply_toEP12ggml_contextP11ggml_tensori, symObjAddr: 0x40, symBinAddr: 0x4040, symSize: 0x48 }
  - { offset: 0x20CC5, size: 0x8, addend: 0x0, symName: __ZN18llama_adapter_cvec4initERK11llama_model, symObjAddr: 0x88, symBinAddr: 0x4088, symSize: 0x7A8 }
  - { offset: 0x23E81, size: 0x8, addend: 0x0, symName: __ZNSt3__16__treeINS_12__value_typeIP24ggml_backend_buffer_typeP12ggml_contextEENS_19__map_value_compareIS3_S6_NS_4lessIS3_EELb1EEENS_9allocatorIS6_EEE7destroyEPNS_11__tree_nodeIS6_PvEE, symObjAddr: 0x3C1C, symBinAddr: 0x7C1C, symSize: 0x48 }
  - { offset: 0x23FBB, size: 0x8, addend: 0x0, symName: __ZNKSt3__16vectorINS_10unique_ptrI19ggml_backend_buffer27ggml_backend_buffer_deleterEENS_9allocatorIS4_EEE20__throw_length_errorB8ne190107Ev, symObjAddr: 0x3A68, symBinAddr: 0x7A68, symSize: 0x14 }
  - { offset: 0x23FE5, size: 0x8, addend: 0x0, symName: __ZNKSt3__16vectorIhNS_9allocatorIhEEE20__throw_length_errorB8ne190107Ev, symObjAddr: 0x3A7C, symBinAddr: 0x7A7C, symSize: 0x14 }
  - { offset: 0x23FF0, size: 0x8, addend: 0x0, symName: __ZNKSt3__16vectorIP11ggml_tensorNS_9allocatorIS2_EEE20__throw_length_errorB8ne190107Ev, symObjAddr: 0x3C64, symBinAddr: 0x7C64, symSize: 0x14 }
  - { offset: 0x2401A, size: 0x8, addend: 0x0, symName: __ZNSt3__112__hash_tableINS_17__hash_value_typeINS_12basic_stringIcNS_11char_traitsIcEENS_9allocatorIcEEEE25llama_adapter_lora_weightEENS_22__unordered_map_hasherIS7_S9_NS_4hashIS7_EENS_8equal_toIS7_EELb1EEENS_21__unordered_map_equalIS7_S9_SE_SC_Lb1EEENS5_IS9_EEE4findIS7_EENS_15__hash_iteratorIPNS_11__hash_nodeIS9_PvEEEERKT_, symObjAddr: 0x3C78, symBinAddr: 0x7C78, symSize: 0x1B4 }
  - { offset: 0x24025, size: 0x8, addend: 0x0, symName: __ZNKSt3__16vectorINS_10unique_ptrI12ggml_context20ggml_context_deleterEENS_9allocatorIS4_EEE20__throw_length_errorB8ne190107Ev, symObjAddr: 0x2A18, symBinAddr: 0x6A18, symSize: 0x14 }
  - { offset: 0x2404F, size: 0x8, addend: 0x0, symName: __ZNSt3__120__throw_length_errorB8ne190107EPKc, symObjAddr: 0x2A2C, symBinAddr: 0x6A2C, symSize: 0x50 }
  - { offset: 0x24099, size: 0x8, addend: 0x0, symName: __ZN18llama_adapter_cvec5applyERK11llama_modelPKfmiii, symObjAddr: 0x830, symBinAddr: 0x4830, symSize: 0x12C }
  - { offset: 0x245EE, size: 0x8, addend: 0x0, symName: __ZN18llama_adapter_lora10get_weightEP11ggml_tensor, symObjAddr: 0x95C, symBinAddr: 0x495C, symSize: 0x10C }
  - { offset: 0x24B5C, size: 0x8, addend: 0x0, symName: __ZNSt3__112__hash_tableINS_17__hash_value_typeINS_12basic_stringIcNS_11char_traitsIcEENS_9allocatorIcEEEE25llama_adapter_lora_weightEENS_22__unordered_map_hasherIS7_S9_NS_4hashIS7_EENS_8equal_toIS7_EELb1EEENS_21__unordered_map_equalIS7_S9_SE_SC_Lb1EEENS5_IS9_EEE4findIS7_EENS_15__hash_iteratorIPNS_11__hash_nodeIS9_PvEEEERKT_, symObjAddr: 0x3C78, symBinAddr: 0x7C78, symSize: 0x1B4 }
  - { offset: 0x24E82, size: 0x8, addend: 0x0, symName: __ZNKSt3__112basic_stringIcNS_11char_traitsIcEENS_9allocatorIcEEE20__throw_length_errorB8ne190107Ev, symObjAddr: 0x2F74, symBinAddr: 0x6F74, symSize: 0x14 }
  - { offset: 0x24EAC, size: 0x8, addend: 0x0, symName: __ZNKSt3__16vectorIP24ggml_backend_buffer_typeNS_9allocatorIS2_EEE20__throw_length_errorB8ne190107Ev, symObjAddr: 0x2F88, symBinAddr: 0x6F88, symSize: 0x14 }
  - { offset: 0x24EB7, size: 0x8, addend: 0x0, symName: __ZNSt3__112basic_stringIcNS_11char_traitsIcEENS_9allocatorIcEEEC1B8ne190107ILi0EEEPKc, symObjAddr: 0xA68, symBinAddr: 0x4A68, symSize: 0xA8 }
  - { offset: 0x25118, size: 0x8, addend: 0x0, symName: _llama_adapter_lora_init, symObjAddr: 0xB10, symBinAddr: 0x4B10, symSize: 0x1CFC }
  - { offset: 0x26C0E, size: 0x8, addend: 0x0, symName: _llama_adapter_lora_init, symObjAddr: 0xB10, symBinAddr: 0x4B10, symSize: 0x1CFC }
  - { offset: 0x2E848, size: 0x8, addend: 0x0, symName: __ZNSt3__16__treeINS_12__value_typeINS_12basic_stringIcNS_11char_traitsIcEENS_9allocatorIcEEEE25llama_adapter_lora_weightEENS_19__map_value_compareIS7_S9_NS_4lessIS7_EELb1EEENS5_IS9_EEE25__emplace_unique_key_argsIS7_JRKNS_21piecewise_construct_tENS_5tupleIJRKS7_EEENSK_IJEEEEEENS_4pairINS_15__tree_iteratorIS9_PNS_11__tree_nodeIS9_PvEElEEbEERKT_DpOT0_, symObjAddr: 0x2CC8, symBinAddr: 0x6CC8, symSize: 0x1B4 }
  - { offset: 0x2EFDF, size: 0x8, addend: 0x0, symName: __ZNSt3__112__hash_tableINS_17__hash_value_typeINS_12basic_stringIcNS_11char_traitsIcEENS_9allocatorIcEEEE25llama_adapter_lora_weightEENS_22__unordered_map_hasherIS7_S9_NS_4hashIS7_EENS_8equal_toIS7_EELb1EEENS_21__unordered_map_equalIS7_S9_SE_SC_Lb1EEENS5_IS9_EEE25__emplace_unique_key_argsIS7_JRKNS_21piecewise_construct_tENS_5tupleIJRKS7_EEENSO_IJEEEEEENS_4pairINS_15__hash_iteratorIPNS_11__hash_nodeIS9_PvEEEEbEERKT_DpOT0_, symObjAddr: 0x2F9C, symBinAddr: 0x6F9C, symSize: 0x438 }
  - { offset: 0x2FA07, size: 0x8, addend: 0x0, symName: '__ZZL28llama_adapter_lora_init_implR11llama_modelPKcR18llama_adapter_loraENK3$_4clEP11ggml_tensorS7_', symObjAddr: 0x2B08, symBinAddr: 0x6B08, symSize: 0x18C }
  - { offset: 0x30030, size: 0x8, addend: 0x0, symName: __ZNSt3__110unique_ptrI12gguf_context20gguf_context_deleterED1B8ne190107Ev, symObjAddr: 0x2C94, symBinAddr: 0x6C94, symSize: 0x34 }
  - { offset: 0x30042, size: 0x8, addend: 0x0, symName: __ZNSt3__16__treeINS_12__value_typeINS_12basic_stringIcNS_11char_traitsIcEENS_9allocatorIcEEEE25llama_adapter_lora_weightEENS_19__map_value_compareIS7_S9_NS_4lessIS7_EELb1EEENS5_IS9_EEE7destroyEPNS_11__tree_nodeIS9_PvEE, symObjAddr: 0x3A90, symBinAddr: 0x7A90, symSize: 0x70 }
  - { offset: 0x302FD, size: 0x8, addend: 0x0, symName: __ZNKSt3__16vectorIP24ggml_backend_buffer_typeNS_9allocatorIS2_EEE20__throw_length_errorB8ne190107Ev, symObjAddr: 0x2F88, symBinAddr: 0x6F88, symSize: 0x14 }
  - { offset: 0x30327, size: 0x8, addend: 0x0, symName: __ZNSt3__112__hash_tableINS_17__hash_value_typeINS_12basic_stringIcNS_11char_traitsIcEENS_9allocatorIcEEEE25llama_adapter_lora_weightEENS_22__unordered_map_hasherIS7_S9_NS_4hashIS7_EENS_8equal_toIS7_EELb1EEENS_21__unordered_map_equalIS7_S9_SE_SC_Lb1EEENS5_IS9_EEE25__emplace_unique_key_argsIS7_JRKNS_21piecewise_construct_tENS_5tupleIJRKS7_EEENSO_IJEEEEEENS_4pairINS_15__hash_iteratorIPNS_11__hash_nodeIS9_PvEEEEbEERKT_DpOT0_, symObjAddr: 0x2F9C, symBinAddr: 0x6F9C, symSize: 0x438 }
  - { offset: 0x30332, size: 0x8, addend: 0x0, symName: __ZNSt3__110unique_ptrI19ggml_backend_buffer27ggml_backend_buffer_deleterED1B8ne190107Ev, symObjAddr: 0x2AD4, symBinAddr: 0x6AD4, symSize: 0x34 }
  - { offset: 0x303C6, size: 0x8, addend: 0x0, symName: __ZNSt3__110unique_ptrI12ggml_context20ggml_context_deleterED1B8ne190107Ev, symObjAddr: 0x2AA0, symBinAddr: 0x6AA0, symSize: 0x34 }
  - { offset: 0x3045A, size: 0x8, addend: 0x0, symName: __ZNSt3__110unique_ptrI12gguf_context20gguf_context_deleterED1B8ne190107Ev, symObjAddr: 0x2C94, symBinAddr: 0x6C94, symSize: 0x34 }
  - { offset: 0x304EE, size: 0x8, addend: 0x0, symName: __ZN18llama_adapter_loraD2Ev, symObjAddr: 0x3B00, symBinAddr: 0x7B00, symSize: 0x11C }
  - { offset: 0x30E25, size: 0x8, addend: 0x0, symName: _llama_adapter_lora_free, symObjAddr: 0x281C, symBinAddr: 0x681C, symSize: 0x20 }
  - { offset: 0x30EB3, size: 0x8, addend: 0x0, symName: __ZNSt12length_errorC1B8ne190107EPKc, symObjAddr: 0x2A7C, symBinAddr: 0x6A7C, symSize: 0x24 }
  - { offset: 0x31414, size: 0x8, addend: 0x0, symName: __ZNKSt3__16vectorIhNS_9allocatorIhEEE20__throw_length_errorB8ne190107Ev, symObjAddr: 0x3A7C, symBinAddr: 0x7A7C, symSize: 0x14 }
  - { offset: 0x3143E, size: 0x8, addend: 0x0, symName: __ZNSt3__16__treeINS_12__value_typeINS_12basic_stringIcNS_11char_traitsIcEENS_9allocatorIcEEEE25llama_adapter_lora_weightEENS_19__map_value_compareIS7_S9_NS_4lessIS7_EELb1EEENS5_IS9_EEE7destroyEPNS_11__tree_nodeIS9_PvEE, symObjAddr: 0x3A90, symBinAddr: 0x7A90, symSize: 0x70 }
  - { offset: 0x31992, size: 0x8, addend: 0x0, symName: __ZNSt3__112basic_stringIcNS_11char_traitsIcEENS_9allocatorIcEEE25__init_copy_ctor_externalEPKcm, symObjAddr: 0x2EE8, symBinAddr: 0x6EE8, symSize: 0x8C }
  - { offset: 0x31B4B, size: 0x8, addend: 0x0, symName: __ZNKSt3__112basic_stringIcNS_11char_traitsIcEENS_9allocatorIcEEE20__throw_length_errorB8ne190107Ev, symObjAddr: 0x2F74, symBinAddr: 0x6F74, symSize: 0x14 }
  - { offset: 0x31B5D, size: 0x8, addend: 0x0, symName: __ZNSt3__110unique_ptrINS_11__tree_nodeINS_12__value_typeINS_12basic_stringIcNS_11char_traitsIcEENS_9allocatorIcEEEE25llama_adapter_lora_weightEEPvEENS_22__tree_node_destructorINS6_ISC_EEEEED1B8ne190107Ev, symObjAddr: 0x2E7C, symBinAddr: 0x6E7C, symSize: 0x6C }
  - { offset: 0x3251A, size: 0x8, addend: 0x0, symName: __ZNKSt3__121__murmur2_or_cityhashImLm64EEclB8ne190107EPKvm, symObjAddr: 0x3440, symBinAddr: 0x7440, symSize: 0x44C }
  - { offset: 0x32F18, size: 0x8, addend: 0x0, symName: __ZNSt3__112__hash_tableINS_17__hash_value_typeINS_12basic_stringIcNS_11char_traitsIcEENS_9allocatorIcEEEE25llama_adapter_lora_weightEENS_22__unordered_map_hasherIS7_S9_NS_4hashIS7_EENS_8equal_toIS7_EELb1EEENS_21__unordered_map_equalIS7_S9_SE_SC_Lb1EEENS5_IS9_EEE11__do_rehashILb1EEEvm, symObjAddr: 0x388C, symBinAddr: 0x788C, symSize: 0x1DC }
  - { offset: 0x333BE, size: 0x8, addend: 0x0, symName: __ZNKSt3__16vectorINS_10unique_ptrI19ggml_backend_buffer27ggml_backend_buffer_deleterEENS_9allocatorIS4_EEE20__throw_length_errorB8ne190107Ev, symObjAddr: 0x3A68, symBinAddr: 0x7A68, symSize: 0x14 }
  - { offset: 0x333D3, size: 0x8, addend: 0x0, symName: __ZNSt3__110unique_ptrINS_11__hash_nodeINS_17__hash_value_typeINS_12basic_stringIcNS_11char_traitsIcEENS_9allocatorIcEEEE25llama_adapter_lora_weightEEPvEENS_22__hash_node_destructorINS6_ISC_EEEEED1B8ne190107Ev, symObjAddr: 0x33D4, symBinAddr: 0x73D4, symSize: 0x6C }
  - { offset: 0x36256, size: 0x8, addend: 0x0, symName: __MergedGlobals, symObjAddr: 0xB2020, symBinAddr: 0x25F2F8, symSize: 0x0 }
  - { offset: 0x460ED, size: 0x8, addend: 0x0, symName: __ZNSt3__120__throw_out_of_rangeB8ne190107EPKc, symObjAddr: 0x1748, symBinAddr: 0x93B0, symSize: 0x50 }
  - { offset: 0x47DBA, size: 0x8, addend: 0x0, symName: __MergedGlobals, symObjAddr: 0xB2020, symBinAddr: 0x25F2F8, symSize: 0x0 }
  - { offset: 0x48213, size: 0x8, addend: 0x0, symName: __ZL16LLM_TENSOR_NAMES, symObjAddr: 0xB2008, symBinAddr: 0x25F2E0, symSize: 0x0 }
  - { offset: 0x48DE2, size: 0x8, addend: 0x0, symName: __MergedGlobals, symObjAddr: 0xB2020, symBinAddr: 0x25F2F8, symSize: 0x0 }
  - { offset: 0x493D2, size: 0x8, addend: 0x0, symName: __ZNSt3__13mapI8llm_archPKcNS_4lessIS1_EENS_9allocatorINS_4pairIKS1_S3_EEEEED1B8ne190107Ev, symObjAddr: 0x0, symBinAddr: 0x7E2C, symSize: 0x28 }
  - { offset: 0x49486, size: 0x8, addend: 0x0, symName: __ZNSt3__16__treeINS_12__value_typeI8llm_archPKcEENS_19__map_value_compareIS2_S5_NS_4lessIS2_EELb1EEENS_9allocatorIS5_EEE7destroyEPNS_11__tree_nodeIS5_PvEE, symObjAddr: 0xCDC, symBinAddr: 0x8944, symSize: 0x48 }
  - { offset: 0x49632, size: 0x8, addend: 0x0, symName: __ZNSt3__13mapI6llm_kvPKcNS_4lessIS1_EENS_9allocatorINS_4pairIKS1_S3_EEEEED1B8ne190107Ev, symObjAddr: 0x28, symBinAddr: 0x7E54, symSize: 0x28 }
  - { offset: 0x496E6, size: 0x8, addend: 0x0, symName: __ZNSt3__16__treeINS_12__value_typeI6llm_kvPKcEENS_19__map_value_compareIS2_S5_NS_4lessIS2_EELb1EEENS_9allocatorIS5_EEE7destroyEPNS_11__tree_nodeIS5_PvEE, symObjAddr: 0xFC4, symBinAddr: 0x8C2C, symSize: 0x48 }
  - { offset: 0x49B83, size: 0x8, addend: 0x0, symName: __ZNSt3__13mapI10llm_tensorPKcNS_4lessIS1_EENS_9allocatorINS_4pairIKS1_S3_EEEEEC2B8ne190107ESt16initializer_listIS9_ERKS5_, symObjAddr: 0x100C, symBinAddr: 0x8C74, symSize: 0xF0 }
  - { offset: 0x49F5A, size: 0x8, addend: 0x0, symName: __ZNSt3__13mapI10llm_tensorPKcNS_4lessIS1_EENS_9allocatorINS_4pairIKS1_S3_EEEEE6insertB8ne190107INS_20__map_const_iteratorINS_21__tree_const_iteratorINS_12__value_typeIS1_S3_EEPNS_11__tree_nodeISG_PvEElEEEEEEvT_SN_, symObjAddr: 0x584, symBinAddr: 0x83B0, symSize: 0xFC }
  - { offset: 0x49FA0, size: 0x8, addend: 0x0, symName: __ZNSt3__13mapI10llm_tensorPKcNS_4lessIS1_EENS_9allocatorINS_4pairIKS1_S3_EEEEE6insertB8ne190107INS_20__map_const_iteratorINS_21__tree_const_iteratorINS_12__value_typeIS1_S3_EEPNS_11__tree_nodeISG_PvEElEEEEEEvT_SN_, symObjAddr: 0x584, symBinAddr: 0x83B0, symSize: 0xFC }
  - { offset: 0x4A2AA, size: 0x8, addend: 0x0, symName: __ZNSt3__16__treeINS_12__value_typeI8llm_archNS_3mapI10llm_tensorPKcNS_4lessIS4_EENS_9allocatorINS_4pairIKS4_S6_EEEEEEEENS_19__map_value_compareIS2_SF_NS7_IS2_EELb1EEENS9_ISF_EEE30__emplace_hint_unique_key_argsIS2_JRKNSA_IKS2_SE_EEEEENSA_INS_15__tree_iteratorISF_PNS_11__tree_nodeISF_PvEElEEbEENS_21__tree_const_iteratorISF_SU_lEERKT_DpOT0_, symObjAddr: 0x10FC, symBinAddr: 0x8D64, symSize: 0x104 }
  - { offset: 0x4A81E, size: 0x8, addend: 0x0, symName: __ZNSt3__16__treeINS_12__value_typeI10llm_tensorPKcEENS_19__map_value_compareIS2_S5_NS_4lessIS2_EELb1EEENS_9allocatorIS5_EEE7destroyEPNS_11__tree_nodeIS5_PvEE, symObjAddr: 0x9F4, symBinAddr: 0x865C, symSize: 0x48 }
  - { offset: 0x4A958, size: 0x8, addend: 0x0, symName: __ZNSt3__16__treeINS_12__value_typeI8llm_archNS_3mapI10llm_tensorPKcNS_4lessIS4_EENS_9allocatorINS_4pairIKS4_S6_EEEEEEEENS_19__map_value_compareIS2_SF_NS7_IS2_EELb1EEENS9_ISF_EEE7destroyEPNS_11__tree_nodeISF_PvEE, symObjAddr: 0x1400, symBinAddr: 0x9068, symSize: 0x54 }
  - { offset: 0x4AB86, size: 0x8, addend: 0x0, symName: __ZNSt3__13mapI8llm_archNS0_I10llm_tensorPKcNS_4lessIS2_EENS_9allocatorINS_4pairIKS2_S4_EEEEEENS5_IS1_EENS7_INS8_IKS1_SC_EEEEED1B8ne190107Ev, symObjAddr: 0x50, symBinAddr: 0x7E7C, symSize: 0x28 }
  - { offset: 0x4ACAC, size: 0x8, addend: 0x0, symName: __ZNSt3__13mapI10llm_tensor15llm_tensor_infoNS_4lessIS1_EENS_9allocatorINS_4pairIKS1_S2_EEEEED1B8ne190107Ev, symObjAddr: 0x78, symBinAddr: 0x7EA4, symSize: 0x28 }
  - { offset: 0x4AD60, size: 0x8, addend: 0x0, symName: __ZNSt3__16__treeINS_12__value_typeI10llm_tensor15llm_tensor_infoEENS_19__map_value_compareIS2_S4_NS_4lessIS2_EELb1EEENS_9allocatorIS4_EEE7destroyEPNS_11__tree_nodeIS4_PvEE, symObjAddr: 0x1700, symBinAddr: 0x9368, symSize: 0x48 }
  - { offset: 0x4AE9F, size: 0x8, addend: 0x0, symName: __ZN6LLM_KVC2E8llm_archPKc, symObjAddr: 0xA0, symBinAddr: 0x7ECC, symSize: 0xC }
  - { offset: 0x4AF07, size: 0x8, addend: 0x0, symName: __ZN6LLM_KVC1E8llm_archPKc, symObjAddr: 0xAC, symBinAddr: 0x7ED8, symSize: 0xC }
  - { offset: 0x4AF51, size: 0x8, addend: 0x0, symName: __ZN6LLM_KVC1E8llm_archPKc, symObjAddr: 0xAC, symBinAddr: 0x7ED8, symSize: 0xC }
  - { offset: 0x4B1D4, size: 0x8, addend: 0x0, symName: __ZNK6LLM_KVclE6llm_kv, symObjAddr: 0xB8, symBinAddr: 0x7EE4, symSize: 0x134 }
  - { offset: 0x4BAA4, size: 0x8, addend: 0x0, symName: __ZNK11LLM_TN_IMPL3strEv, symObjAddr: 0x1EC, symBinAddr: 0x8018, symSize: 0x1DC }
  - { offset: 0x4C32C, size: 0x8, addend: 0x0, symName: __Z13llm_arch_name8llm_arch, symObjAddr: 0x3C8, symBinAddr: 0x81F4, symSize: 0x70 }
  - { offset: 0x4C36E, size: 0x8, addend: 0x0, symName: __Z13llm_arch_name8llm_arch, symObjAddr: 0x3C8, symBinAddr: 0x81F4, symSize: 0x70 }
  - { offset: 0x4C383, size: 0x8, addend: 0x0, symName: __Z13llm_arch_name8llm_arch, symObjAddr: 0x3C8, symBinAddr: 0x81F4, symSize: 0x70 }
  - { offset: 0x4C3A1, size: 0x8, addend: 0x0, symName: __Z13llm_arch_name8llm_arch, symObjAddr: 0x3C8, symBinAddr: 0x81F4, symSize: 0x70 }
  - { offset: 0x4C562, size: 0x8, addend: 0x0, symName: __Z20llm_arch_from_stringRKNSt3__112basic_stringIcNS_11char_traitsIcEENS_9allocatorIcEEEE, symObjAddr: 0x438, symBinAddr: 0x8264, symSize: 0xFC }
  - { offset: 0x4C7E0, size: 0x8, addend: 0x0, symName: __ZNKSt3__112basic_stringIcNS_11char_traitsIcEENS_9allocatorIcEEE20__throw_out_of_rangeB8ne190107Ev, symObjAddr: 0x17BC, symBinAddr: 0x9424, symSize: 0x14 }
  - { offset: 0x4C90F, size: 0x8, addend: 0x0, symName: __Z19llm_tensor_info_for10llm_tensor, symObjAddr: 0x534, symBinAddr: 0x8360, symSize: 0x50 }
  - { offset: 0x4CCB7, size: 0x8, addend: 0x0, symName: __ZNSt3__16__treeINS_12__value_typeI10llm_tensorPKcEENS_19__map_value_compareIS2_S5_NS_4lessIS2_EELb1EEENS_9allocatorIS5_EEE12__find_equalIS2_EERPNS_16__tree_node_baseIPvEENS_21__tree_const_iteratorIS5_PNS_11__tree_nodeIS5_SF_EElEERPNS_15__tree_end_nodeISH_EESI_RKT_, symObjAddr: 0x680, symBinAddr: 0x84AC, symSize: 0x1B0 }
  - { offset: 0x4CD1A, size: 0x8, addend: 0x0, symName: __ZNSt3__16__treeINS_12__value_typeI10llm_tensorPKcEENS_19__map_value_compareIS2_S5_NS_4lessIS2_EELb1EEENS_9allocatorIS5_EEE12__find_equalIS2_EERPNS_16__tree_node_baseIPvEENS_21__tree_const_iteratorIS5_PNS_11__tree_nodeIS5_SF_EElEERPNS_15__tree_end_nodeISH_EESI_RKT_, symObjAddr: 0x680, symBinAddr: 0x84AC, symSize: 0x1B0 }
  - { offset: 0x4CD36, size: 0x8, addend: 0x0, symName: __ZNSt3__16__treeINS_12__value_typeI10llm_tensorPKcEENS_19__map_value_compareIS2_S5_NS_4lessIS2_EELb1EEENS_9allocatorIS5_EEE12__find_equalIS2_EERPNS_16__tree_node_baseIPvEENS_21__tree_const_iteratorIS5_PNS_11__tree_nodeIS5_SF_EElEERPNS_15__tree_end_nodeISH_EESI_RKT_, symObjAddr: 0x680, symBinAddr: 0x84AC, symSize: 0x1B0 }
  - { offset: 0x4D4BA, size: 0x8, addend: 0x0, symName: __ZNSt3__13mapI8llm_archPKcNS_4lessIS1_EENS_9allocatorINS_4pairIKS1_S3_EEEEEC2B8ne190107ESt16initializer_listIS9_ERKS5_, symObjAddr: 0xA3C, symBinAddr: 0x86A4, symSize: 0xF0 }
  - { offset: 0x4D891, size: 0x8, addend: 0x0, symName: __ZNSt3__16__treeINS_12__value_typeI8llm_archPKcEENS_19__map_value_compareIS2_S5_NS_4lessIS2_EELb1EEENS_9allocatorIS5_EEE12__find_equalIS2_EERPNS_16__tree_node_baseIPvEENS_21__tree_const_iteratorIS5_PNS_11__tree_nodeIS5_SF_EElEERPNS_15__tree_end_nodeISH_EESI_RKT_, symObjAddr: 0xB2C, symBinAddr: 0x8794, symSize: 0x1B0 }
  - { offset: 0x4D8F4, size: 0x8, addend: 0x0, symName: __ZNSt3__16__treeINS_12__value_typeI8llm_archPKcEENS_19__map_value_compareIS2_S5_NS_4lessIS2_EELb1EEENS_9allocatorIS5_EEE12__find_equalIS2_EERPNS_16__tree_node_baseIPvEENS_21__tree_const_iteratorIS5_PNS_11__tree_nodeIS5_SF_EElEERPNS_15__tree_end_nodeISH_EESI_RKT_, symObjAddr: 0xB2C, symBinAddr: 0x8794, symSize: 0x1B0 }
  - { offset: 0x4D910, size: 0x8, addend: 0x0, symName: __ZNSt3__16__treeINS_12__value_typeI8llm_archPKcEENS_19__map_value_compareIS2_S5_NS_4lessIS2_EELb1EEENS_9allocatorIS5_EEE12__find_equalIS2_EERPNS_16__tree_node_baseIPvEENS_21__tree_const_iteratorIS5_PNS_11__tree_nodeIS5_SF_EElEERPNS_15__tree_end_nodeISH_EESI_RKT_, symObjAddr: 0xB2C, symBinAddr: 0x8794, symSize: 0x1B0 }
  - { offset: 0x4E057, size: 0x8, addend: 0x0, symName: __ZNSt3__13mapI6llm_kvPKcNS_4lessIS1_EENS_9allocatorINS_4pairIKS1_S3_EEEEEC2B8ne190107ESt16initializer_listIS9_ERKS5_, symObjAddr: 0xD24, symBinAddr: 0x898C, symSize: 0xF0 }
  - { offset: 0x4E42E, size: 0x8, addend: 0x0, symName: __ZNSt3__16__treeINS_12__value_typeI6llm_kvPKcEENS_19__map_value_compareIS2_S5_NS_4lessIS2_EELb1EEENS_9allocatorIS5_EEE12__find_equalIS2_EERPNS_16__tree_node_baseIPvEENS_21__tree_const_iteratorIS5_PNS_11__tree_nodeIS5_SF_EElEERPNS_15__tree_end_nodeISH_EESI_RKT_, symObjAddr: 0xE14, symBinAddr: 0x8A7C, symSize: 0x1B0 }
  - { offset: 0x4E491, size: 0x8, addend: 0x0, symName: __ZNSt3__16__treeINS_12__value_typeI6llm_kvPKcEENS_19__map_value_compareIS2_S5_NS_4lessIS2_EELb1EEENS_9allocatorIS5_EEE12__find_equalIS2_EERPNS_16__tree_node_baseIPvEENS_21__tree_const_iteratorIS5_PNS_11__tree_nodeIS5_SF_EElEERPNS_15__tree_end_nodeISH_EESI_RKT_, symObjAddr: 0xE14, symBinAddr: 0x8A7C, symSize: 0x1B0 }
  - { offset: 0x4E4AD, size: 0x8, addend: 0x0, symName: __ZNSt3__16__treeINS_12__value_typeI6llm_kvPKcEENS_19__map_value_compareIS2_S5_NS_4lessIS2_EELb1EEENS_9allocatorIS5_EEE12__find_equalIS2_EERPNS_16__tree_node_baseIPvEENS_21__tree_const_iteratorIS5_PNS_11__tree_nodeIS5_SF_EElEERPNS_15__tree_end_nodeISH_EESI_RKT_, symObjAddr: 0xE14, symBinAddr: 0x8A7C, symSize: 0x1B0 }
  - { offset: 0x4ED0F, size: 0x8, addend: 0x0, symName: __ZNSt3__16__treeINS_12__value_typeI8llm_archNS_3mapI10llm_tensorPKcNS_4lessIS4_EENS_9allocatorINS_4pairIKS4_S6_EEEEEEEENS_19__map_value_compareIS2_SF_NS7_IS2_EELb1EEENS9_ISF_EEE12__find_equalIS2_EERPNS_16__tree_node_baseIPvEENS_21__tree_const_iteratorISF_PNS_11__tree_nodeISF_SN_EElEERPNS_15__tree_end_nodeISP_EESQ_RKT_, symObjAddr: 0x1200, symBinAddr: 0x8E68, symSize: 0x1B0 }
  - { offset: 0x4ED72, size: 0x8, addend: 0x0, symName: __ZNSt3__16__treeINS_12__value_typeI8llm_archNS_3mapI10llm_tensorPKcNS_4lessIS4_EENS_9allocatorINS_4pairIKS4_S6_EEEEEEEENS_19__map_value_compareIS2_SF_NS7_IS2_EELb1EEENS9_ISF_EEE12__find_equalIS2_EERPNS_16__tree_node_baseIPvEENS_21__tree_const_iteratorISF_PNS_11__tree_nodeISF_SN_EElEERPNS_15__tree_end_nodeISP_EESQ_RKT_, symObjAddr: 0x1200, symBinAddr: 0x8E68, symSize: 0x1B0 }
  - { offset: 0x4ED8E, size: 0x8, addend: 0x0, symName: __ZNSt3__16__treeINS_12__value_typeI8llm_archNS_3mapI10llm_tensorPKcNS_4lessIS4_EENS_9allocatorINS_4pairIKS4_S6_EEEEEEEENS_19__map_value_compareIS2_SF_NS7_IS2_EELb1EEENS9_ISF_EEE12__find_equalIS2_EERPNS_16__tree_node_baseIPvEENS_21__tree_const_iteratorISF_PNS_11__tree_nodeISF_SN_EElEERPNS_15__tree_end_nodeISP_EESQ_RKT_, symObjAddr: 0x1200, symBinAddr: 0x8E68, symSize: 0x1B0 }
  - { offset: 0x4F0CB, size: 0x8, addend: 0x0, symName: __ZNSt3__110unique_ptrINS_11__tree_nodeINS_12__value_typeI8llm_archNS_3mapI10llm_tensorPKcNS_4lessIS5_EENS_9allocatorINS_4pairIKS5_S7_EEEEEEEEPvEENS_22__tree_node_destructorINSA_ISI_EEEEED1B8ne190107Ev, symObjAddr: 0x13B0, symBinAddr: 0x9018, symSize: 0x50 }
  - { offset: 0x4F7ED, size: 0x8, addend: 0x0, symName: __ZNSt3__13mapI10llm_tensor15llm_tensor_infoNS_4lessIS1_EENS_9allocatorINS_4pairIKS1_S2_EEEEEC2B8ne190107ESt16initializer_listIS8_ERKS4_, symObjAddr: 0x1454, symBinAddr: 0x90BC, symSize: 0xFC }
  - { offset: 0x4FBC4, size: 0x8, addend: 0x0, symName: __ZNSt3__16__treeINS_12__value_typeI10llm_tensor15llm_tensor_infoEENS_19__map_value_compareIS2_S4_NS_4lessIS2_EELb1EEENS_9allocatorIS4_EEE12__find_equalIS2_EERPNS_16__tree_node_baseIPvEENS_21__tree_const_iteratorIS4_PNS_11__tree_nodeIS4_SE_EElEERPNS_15__tree_end_nodeISG_EESH_RKT_, symObjAddr: 0x1550, symBinAddr: 0x91B8, symSize: 0x1B0 }
  - { offset: 0x4FC27, size: 0x8, addend: 0x0, symName: __ZNSt3__16__treeINS_12__value_typeI10llm_tensor15llm_tensor_infoEENS_19__map_value_compareIS2_S4_NS_4lessIS2_EELb1EEENS_9allocatorIS4_EEE12__find_equalIS2_EERPNS_16__tree_node_baseIPvEENS_21__tree_const_iteratorIS4_PNS_11__tree_nodeIS4_SE_EElEERPNS_15__tree_end_nodeISG_EESH_RKT_, symObjAddr: 0x1550, symBinAddr: 0x91B8, symSize: 0x1B0 }
  - { offset: 0x4FC43, size: 0x8, addend: 0x0, symName: __ZNSt3__16__treeINS_12__value_typeI10llm_tensor15llm_tensor_infoEENS_19__map_value_compareIS2_S4_NS_4lessIS2_EELb1EEENS_9allocatorIS4_EEE12__find_equalIS2_EERPNS_16__tree_node_baseIPvEENS_21__tree_const_iteratorIS4_PNS_11__tree_nodeIS4_SE_EElEERPNS_15__tree_end_nodeISG_EESH_RKT_, symObjAddr: 0x1550, symBinAddr: 0x91B8, symSize: 0x1B0 }
  - { offset: 0x50079, size: 0x8, addend: 0x0, symName: __ZNSt12out_of_rangeC1B8ne190107EPKc, symObjAddr: 0x1798, symBinAddr: 0x9400, symSize: 0x24 }
  - { offset: 0x51FF9, size: 0x8, addend: 0x0, symName: __ZN12llama_sbatch14reserve_ubatchEmb, symObjAddr: 0x0, symBinAddr: 0xD04C, symSize: 0x2B0 }
  - { offset: 0x5A225, size: 0x8, addend: 0x0, symName: '__ZNSt3__111__introsortINS_17_ClassicAlgPolicyERZN12llama_sbatch10from_batchERK11llama_batchmbbE3$_0PxLb0EEEvT1_S9_T0_NS_15iterator_traitsIS9_E15difference_typeEb', symObjAddr: 0x1C44, symBinAddr: 0xEBF4, symSize: 0x13EC }
  - { offset: 0x5B204, size: 0x8, addend: 0x0, symName: '__ZNSt3__127__insertion_sort_incompleteB8ne190107INS_17_ClassicAlgPolicyERZN12llama_sbatch10from_batchERK11llama_batchmbbE3$_0PxEEbT1_S9_T0_', symObjAddr: 0x363C, symBinAddr: 0x105EC, symSize: 0x334 }
  - { offset: 0x5B540, size: 0x8, addend: 0x0, symName: '__ZNSt3__111__introsortINS_17_ClassicAlgPolicyERZN12llama_sbatch10from_batchERK11llama_batchmbbE3$_1P16llama_sbatch_seqLb0EEEvT1_SA_T0_NS_15iterator_traitsISA_E15difference_typeEb', symObjAddr: 0x3BB4, symBinAddr: 0x10B64, symSize: 0x10F4 }
  - { offset: 0x5D05A, size: 0x8, addend: 0x0, symName: '__ZNSt3__127__insertion_sort_incompleteB8ne190107INS_17_ClassicAlgPolicyERZN12llama_sbatch10from_batchERK11llama_batchmbbE3$_1P16llama_sbatch_seqEEbT1_SA_T0_', symObjAddr: 0x4CA8, symBinAddr: 0x11C58, symSize: 0x4E4 }
  - { offset: 0x5F08B, size: 0x8, addend: 0x0, symName: '__ZNSt3__17__sort3B8ne190107INS_17_ClassicAlgPolicyERZN12llama_sbatch10from_batchERK11llama_batchmbbE3$_0PxEEjT1_S9_S9_T0_', symObjAddr: 0x3318, symBinAddr: 0x102C8, symSize: 0x324 }
  - { offset: 0x5F50A, size: 0x8, addend: 0x0, symName: '__ZNSt3__124__sort5_maybe_branchlessB8ne190107INS_17_ClassicAlgPolicyERZN12llama_sbatch10from_batchERK11llama_batchmbbE3$_0PxTnNS_9enable_ifIXntsr21__use_branchless_sortIT0_T1_EE5valueEiE4typeELi0EEEvSB_SB_SB_SB_SB_SA_', symObjAddr: 0x3030, symBinAddr: 0xFFE0, symSize: 0x2E8 }
  - { offset: 0x5F907, size: 0x8, addend: 0x0, symName: '__ZNSt3__17__sort4B8ne190107INS_17_ClassicAlgPolicyERZN12llama_sbatch10from_batchERK11llama_batchmbbE3$_0PxEEvT1_S9_S9_S9_T0_', symObjAddr: 0x3970, symBinAddr: 0x10920, symSize: 0x244 }
  - { offset: 0x605A9, size: 0x8, addend: 0x0, symName: '__ZNSt3__17__sort4B8ne190107INS_17_ClassicAlgPolicyERZN12llama_sbatch10from_batchERK11llama_batchmbbE3$_1P16llama_sbatch_seqEEvT1_SA_SA_SA_T0_', symObjAddr: 0x518C, symBinAddr: 0x1213C, symSize: 0x1C0 }
  - { offset: 0x62902, size: 0x8, addend: 0x0, symName: __ZN12llama_sbatch14reserve_ubatchEmb, symObjAddr: 0x0, symBinAddr: 0xD04C, symSize: 0x2B0 }
  - { offset: 0x63247, size: 0x8, addend: 0x0, symName: __ZN12llama_sbatch17add_seq_to_ubatchER12llama_ubatchR16llama_sbatch_seqm, symObjAddr: 0x2B0, symBinAddr: 0xD2FC, symSize: 0x7B0 }
  - { offset: 0x63259, size: 0x8, addend: 0x0, symName: __ZNSt3__16vectorIiNS_9allocatorIiEEE8__appendEm, symObjAddr: 0x1568, symBinAddr: 0xE5B4, symSize: 0x128 }
  - { offset: 0x6367F, size: 0x8, addend: 0x0, symName: __ZNKSt3__16vectorIiNS_9allocatorIiEEE20__throw_length_errorB8ne190107Ev, symObjAddr: 0x1690, symBinAddr: 0xE6DC, symSize: 0x14 }
  - { offset: 0x6368A, size: 0x8, addend: 0x0, symName: __ZNSt3__16vectorIfNS_9allocatorIfEEE8__appendEm, symObjAddr: 0x1740, symBinAddr: 0xE6F0, symSize: 0x128 }
  - { offset: 0x63AB0, size: 0x8, addend: 0x0, symName: __ZNKSt3__16vectorIfNS_9allocatorIfEEE20__throw_length_errorB8ne190107Ev, symObjAddr: 0x1868, symBinAddr: 0xE818, symSize: 0x14 }
  - { offset: 0x63ABB, size: 0x8, addend: 0x0, symName: __ZNSt3__16vectorIPiNS_9allocatorIS1_EEE8__appendEm, symObjAddr: 0x187C, symBinAddr: 0xE82C, symSize: 0x128 }
  - { offset: 0x63EE1, size: 0x8, addend: 0x0, symName: __ZNKSt3__16vectorIPiNS_9allocatorIS1_EEE20__throw_length_errorB8ne190107Ev, symObjAddr: 0x19A4, symBinAddr: 0xE954, symSize: 0x14 }
  - { offset: 0x63EEC, size: 0x8, addend: 0x0, symName: __ZNKSt3__16vectorIaNS_9allocatorIaEEE20__throw_length_errorB8ne190107Ev, symObjAddr: 0x19B8, symBinAddr: 0xE968, symSize: 0x14 }
  - { offset: 0x63F16, size: 0x8, addend: 0x0, symName: __ZNKSt3__16vectorIxNS_9allocatorIxEEE20__throw_length_errorB8ne190107Ev, symObjAddr: 0x19CC, symBinAddr: 0xE97C, symSize: 0x14 }
  - { offset: 0x643B1, size: 0x8, addend: 0x0, symName: __ZN12llama_sbatch17add_seq_to_ubatchER12llama_ubatchR16llama_sbatch_seqm, symObjAddr: 0x2B0, symBinAddr: 0xD2FC, symSize: 0x7B0 }
  - { offset: 0x6557B, size: 0x8, addend: 0x0, symName: __ZN12llama_sbatch12split_simpleEm, symObjAddr: 0xA60, symBinAddr: 0xDAAC, symSize: 0xC8 }
  - { offset: 0x6558D, size: 0x8, addend: 0x0, symName: __ZNKSt3__16vectorIxNS_9allocatorIxEEE20__throw_length_errorB8ne190107Ev, symObjAddr: 0x19CC, symBinAddr: 0xE97C, symSize: 0x14 }
  - { offset: 0x655B7, size: 0x8, addend: 0x0, symName: __ZNSt3__16vectorIxNS_9allocatorIxEEE8__appendEm, symObjAddr: 0x19E0, symBinAddr: 0xE990, symSize: 0x128 }
  - { offset: 0x655F3, size: 0x8, addend: 0x0, symName: __ZN12llama_sbatch12split_simpleEm, symObjAddr: 0xA60, symBinAddr: 0xDAAC, symSize: 0xC8 }
  - { offset: 0x656D0, size: 0x8, addend: 0x0, symName: __ZN12llama_sbatch11split_equalEm, symObjAddr: 0xB28, symBinAddr: 0xDB74, symSize: 0x138 }
  - { offset: 0x65707, size: 0x8, addend: 0x0, symName: __ZN12llama_sbatch11split_equalEm, symObjAddr: 0xB28, symBinAddr: 0xDB74, symSize: 0x138 }
  - { offset: 0x65860, size: 0x8, addend: 0x0, symName: __ZN12llama_sbatch9split_seqEm, symObjAddr: 0xC60, symBinAddr: 0xDCAC, symSize: 0xC0 }
  - { offset: 0x65873, size: 0x8, addend: 0x0, symName: __ZN12llama_sbatch9split_seqEm, symObjAddr: 0xC60, symBinAddr: 0xDCAC, symSize: 0xC0 }
  - { offset: 0x65931, size: 0x8, addend: 0x0, symName: __ZN12llama_sbatch10from_batchERK11llama_batchmbb, symObjAddr: 0xD20, symBinAddr: 0xDD6C, symSize: 0x35C }
  - { offset: 0x65A50, size: 0x8, addend: 0x0, symName: __ZN12llama_sbatch10from_batchERK11llama_batchmbb, symObjAddr: 0xD20, symBinAddr: 0xDD6C, symSize: 0x35C }
  - { offset: 0x66309, size: 0x8, addend: 0x0, symName: __ZN18llama_batch_allocrC2E11llama_batchi, symObjAddr: 0x107C, symBinAddr: 0xE0C8, symSize: 0x36C }
  - { offset: 0x66661, size: 0x8, addend: 0x0, symName: __ZNSt3__16vectorIxNS_9allocatorIxEEE8__appendEm, symObjAddr: 0x19E0, symBinAddr: 0xE990, symSize: 0x128 }
  - { offset: 0x66A87, size: 0x8, addend: 0x0, symName: __ZNSt3__16vectorI16llama_sbatch_seqNS_9allocatorIS1_EEE8__appendEm, symObjAddr: 0x1B08, symBinAddr: 0xEAB8, symSize: 0x128 }
  - { offset: 0x66A92, size: 0x8, addend: 0x0, symName: __ZNSt3__16vectorI16llama_sbatch_seqNS_9allocatorIS1_EEE8__appendEm, symObjAddr: 0x1B08, symBinAddr: 0xEAB8, symSize: 0x128 }
  - { offset: 0x66EB8, size: 0x8, addend: 0x0, symName: __ZNKSt3__16vectorI16llama_sbatch_seqNS_9allocatorIS1_EEE20__throw_length_errorB8ne190107Ev, symObjAddr: 0x1C30, symBinAddr: 0xEBE0, symSize: 0x14 }
  - { offset: 0x66EC3, size: 0x8, addend: 0x0, symName: __ZNKSt3__16vectorI16llama_sbatch_seqNS_9allocatorIS1_EEE20__throw_length_errorB8ne190107Ev, symObjAddr: 0x1C30, symBinAddr: 0xEBE0, symSize: 0x14 }
  - { offset: 0x66EED, size: 0x8, addend: 0x0, symName: '__ZNSt3__111__introsortINS_17_ClassicAlgPolicyERZN12llama_sbatch10from_batchERK11llama_batchmbbE3$_0PxLb0EEEvT1_S9_T0_NS_15iterator_traitsIS9_E15difference_typeEb', symObjAddr: 0x1C44, symBinAddr: 0xEBF4, symSize: 0x13EC }
  - { offset: 0x67220, size: 0x8, addend: 0x0, symName: __ZN18llama_batch_allocrC2E11llama_batchi, symObjAddr: 0x107C, symBinAddr: 0xE0C8, symSize: 0x36C }
  - { offset: 0x67E70, size: 0x8, addend: 0x0, symName: __ZN18llama_batch_allocrC1E11llama_batchi, symObjAddr: 0x13E8, symBinAddr: 0xE434, symSize: 0x4 }
  - { offset: 0x67EBC, size: 0x8, addend: 0x0, symName: __ZN18llama_batch_allocrC1E11llama_batchi, symObjAddr: 0x13E8, symBinAddr: 0xE434, symSize: 0x4 }
  - { offset: 0x67EDD, size: 0x8, addend: 0x0, symName: _llama_batch_get_one, symObjAddr: 0x13EC, symBinAddr: 0xE438, symSize: 0x1C }
  - { offset: 0x67F15, size: 0x8, addend: 0x0, symName: _llama_batch_init, symObjAddr: 0x1408, symBinAddr: 0xE454, symSize: 0xD0 }
  - { offset: 0x6800E, size: 0x8, addend: 0x0, symName: _llama_batch_free, symObjAddr: 0x14D8, symBinAddr: 0xE524, symSize: 0x90 }
  - { offset: 0x68353, size: 0x8, addend: 0x0, symName: __ZNKSt3__16vectorIiNS_9allocatorIiEEE20__throw_length_errorB8ne190107Ev, symObjAddr: 0x1690, symBinAddr: 0xE6DC, symSize: 0x14 }
  - { offset: 0x686EE, size: 0x8, addend: 0x0, symName: __ZNKSt3__16vectorIfNS_9allocatorIfEEE20__throw_length_errorB8ne190107Ev, symObjAddr: 0x1868, symBinAddr: 0xE818, symSize: 0x14 }
  - { offset: 0x68718, size: 0x8, addend: 0x0, symName: __ZNSt3__16vectorIPiNS_9allocatorIS1_EEE8__appendEm, symObjAddr: 0x187C, symBinAddr: 0xE82C, symSize: 0x128 }
  - { offset: 0x689B2, size: 0x8, addend: 0x0, symName: __ZNKSt3__16vectorIPiNS_9allocatorIS1_EEE20__throw_length_errorB8ne190107Ev, symObjAddr: 0x19A4, symBinAddr: 0xE954, symSize: 0x14 }
  - { offset: 0x689DC, size: 0x8, addend: 0x0, symName: __ZNKSt3__16vectorIaNS_9allocatorIaEEE20__throw_length_errorB8ne190107Ev, symObjAddr: 0x19B8, symBinAddr: 0xE968, symSize: 0x14 }
  - { offset: 0x6ACCB, size: 0x8, addend: 0x0, symName: __ZL18LLM_CHAT_TEMPLATES, symObjAddr: 0x77A70, symBinAddr: 0x25F340, symSize: 0x0 }
  - { offset: 0x71891, size: 0x8, addend: 0x0, symName: __ZNSt3__124__put_character_sequenceB8ne190107IcNS_11char_traitsIcEEEERNS_13basic_ostreamIT_T0_EES7_PKS4_m, symObjAddr: 0x4DA4, symBinAddr: 0x16C98, symSize: 0x16C }
  - { offset: 0x73875, size: 0x8, addend: 0x0, symName: __ZNSt3__1eqB8ne190107IcNS_11char_traitsIcEENS_9allocatorIcEEEEbRKNS_12basic_stringIT_T0_T1_EEPKS6_, symObjAddr: 0x4118, symBinAddr: 0x1636C, symSize: 0x8C }
  - { offset: 0x74391, size: 0x8, addend: 0x0, symName: __ZNSt3__116__pad_and_outputB8ne190107IcNS_11char_traitsIcEEEENS_19ostreambuf_iteratorIT_T0_EES6_PKS4_S8_S8_RNS_8ios_baseES4_, symObjAddr: 0x4F10, symBinAddr: 0x16E04, symSize: 0x1B0 }
  - { offset: 0x7617E, size: 0x8, addend: 0x0, symName: __ZNSt3__13mapINS_12basic_stringIcNS_11char_traitsIcEENS_9allocatorIcEEEE17llm_chat_templateNS_4lessIS6_EENS4_INS_4pairIKS6_S7_EEEEED1B8ne190107Ev, symObjAddr: 0x0, symBinAddr: 0x122FC, symSize: 0x28 }
  - { offset: 0x76232, size: 0x8, addend: 0x0, symName: __ZNSt3__16__treeINS_12__value_typeINS_12basic_stringIcNS_11char_traitsIcEENS_9allocatorIcEEEE17llm_chat_templateEENS_19__map_value_compareIS7_S9_NS_4lessIS7_EELb1EEENS5_IS9_EEE7destroyEPNS_11__tree_nodeIS9_PvEE, symObjAddr: 0x4CA8, symBinAddr: 0x16C28, symSize: 0x70 }
  - { offset: 0x76750, size: 0x8, addend: 0x0, symName: __Z26llm_chat_template_from_strRKNSt3__112basic_stringIcNS_11char_traitsIcEENS_9allocatorIcEEEE, symObjAddr: 0x28, symBinAddr: 0x12324, symSize: 0xF0 }
  - { offset: 0x76ABA, size: 0x8, addend: 0x0, symName: __Z24llm_chat_detect_templateRKNSt3__112basic_stringIcNS_11char_traitsIcEENS_9allocatorIcEEEE, symObjAddr: 0x118, symBinAddr: 0x12414, symSize: 0x5F0 }
  - { offset: 0x76F45, size: 0x8, addend: 0x0, symName: '__ZZ24llm_chat_detect_templateRKNSt3__112basic_stringIcNS_11char_traitsIcEENS_9allocatorIcEEEEENK3$_0clEPKc', symObjAddr: 0x708, symBinAddr: 0x12A04, symSize: 0xD4 }
  - { offset: 0x77185, size: 0x8, addend: 0x0, symName: __ZNKSt3__112basic_stringIcNS_11char_traitsIcEENS_9allocatorIcEEE4findB8ne190107EPKcm, symObjAddr: 0x7DC, symBinAddr: 0x12AD8, symSize: 0xE4 }
  - { offset: 0x77ADE, size: 0x8, addend: 0x0, symName: __Z23llm_chat_apply_template17llm_chat_templateRKNSt3__16vectorIPK18llama_chat_messageNS0_9allocatorIS4_EEEERNS0_12basic_stringIcNS0_11char_traitsIcEENS5_IcEEEEb, symObjAddr: 0x8C0, symBinAddr: 0x12BBC, symSize: 0x3680 }
  - { offset: 0x85319, size: 0x8, addend: 0x0, symName: __ZNSt3__118basic_stringstreamIcNS_11char_traitsIcEENS_9allocatorIcEEEC1B8ne190107Ev, symObjAddr: 0x3F40, symBinAddr: 0x1623C, symSize: 0x130 }
  - { offset: 0x8544D, size: 0x8, addend: 0x0, symName: __ZL4trimRKNSt3__112basic_stringIcNS_11char_traitsIcEENS_9allocatorIcEEEE, symObjAddr: 0x41A4, symBinAddr: 0x163F8, symSize: 0x1A8 }
  - { offset: 0x8591C, size: 0x8, addend: 0x0, symName: __ZNSt3__118basic_stringstreamIcNS_11char_traitsIcEENS_9allocatorIcEEED1Ev, symObjAddr: 0x434C, symBinAddr: 0x165A0, symSize: 0x90 }
  - { offset: 0x85A4B, size: 0x8, addend: 0x0, symName: __ZNSt3__124__put_character_sequenceB8ne190107IcNS_11char_traitsIcEEEERNS_13basic_ostreamIT_T0_EES7_PKS4_m, symObjAddr: 0x4DA4, symBinAddr: 0x16C98, symSize: 0x16C }
  - { offset: 0x85BDB, size: 0x8, addend: 0x0, symName: __ZNSt3__1eqB8ne190107IcNS_11char_traitsIcEENS_9allocatorIcEEEEbRKNS_12basic_stringIT_T0_T1_EEPKS6_, symObjAddr: 0x4118, symBinAddr: 0x1636C, symSize: 0x8C }
  - { offset: 0x85C2C, size: 0x8, addend: 0x0, symName: __ZNSt3__118basic_stringstreamIcNS_11char_traitsIcEENS_9allocatorIcEEED1Ev, symObjAddr: 0x434C, symBinAddr: 0x165A0, symSize: 0x90 }
  - { offset: 0x8612A, size: 0x8, addend: 0x0, symName: _llama_chat_builtin_templates, symObjAddr: 0x43DC, symBinAddr: 0x16630, symSize: 0x84 }
  - { offset: 0x866C6, size: 0x8, addend: 0x0, symName: __ZNSt3__16__treeINS_12__value_typeINS_12basic_stringIcNS_11char_traitsIcEENS_9allocatorIcEEEE17llm_chat_templateEENS_19__map_value_compareIS7_S9_NS_4lessIS7_EELb1EEENS5_IS9_EEE30__emplace_hint_unique_key_argsIS7_JRKNS_4pairIKS7_S8_EEEEENSH_INS_15__tree_iteratorIS9_PNS_11__tree_nodeIS9_PvEElEEbEENS_21__tree_const_iteratorIS9_SQ_lEERKT_DpOT0_, symObjAddr: 0x4580, symBinAddr: 0x166B4, symSize: 0x110 }
  - { offset: 0x86A72, size: 0x8, addend: 0x0, symName: __ZNSt3__16__treeINS_12__value_typeINS_12basic_stringIcNS_11char_traitsIcEENS_9allocatorIcEEEE17llm_chat_templateEENS_19__map_value_compareIS7_S9_NS_4lessIS7_EELb1EEENS5_IS9_EEE12__find_equalIS7_EERPNS_16__tree_node_baseIPvEENS_21__tree_const_iteratorIS9_PNS_11__tree_nodeIS9_SI_EElEERPNS_15__tree_end_nodeISK_EESL_RKT_, symObjAddr: 0x4690, symBinAddr: 0x167C4, symSize: 0x3F8 }
  - { offset: 0x878F3, size: 0x8, addend: 0x0, symName: __ZNSt3__110unique_ptrINS_11__tree_nodeINS_12__value_typeINS_12basic_stringIcNS_11char_traitsIcEENS_9allocatorIcEEEE17llm_chat_templateEEPvEENS_22__tree_node_destructorINS6_ISC_EEEEED1B8ne190107Ev, symObjAddr: 0x4A88, symBinAddr: 0x16BBC, symSize: 0x6C }
  - { offset: 0xAF32A, size: 0x8, addend: 0x0, symName: __ZNSt3__125__throw_bad_function_callB8ne190107Ev, symObjAddr: 0x9A04, symBinAddr: 0x21184, symSize: 0x34 }
  - { offset: 0xB76BC, size: 0x8, addend: 0x0, symName: __ZNK13llama_context12graph_get_cbEv, symObjAddr: 0x67C4, symBinAddr: 0x1E008, symSize: 0x14 }
  - { offset: 0xB7717, size: 0x8, addend: 0x0, symName: __ZNK13llama_context12graph_get_cbEv, symObjAddr: 0x67C4, symBinAddr: 0x1E008, symSize: 0x14 }
  - { offset: 0xB773A, size: 0x8, addend: 0x0, symName: __ZNK13llama_context12graph_get_cbEv, symObjAddr: 0x67C4, symBinAddr: 0x1E008, symSize: 0x14 }
  - { offset: 0xB775D, size: 0x8, addend: 0x0, symName: __ZNK13llama_context12graph_get_cbEv, symObjAddr: 0x67C4, symBinAddr: 0x1E008, symSize: 0x14 }
  - { offset: 0xB7779, size: 0x8, addend: 0x0, symName: __ZNK13llama_context12graph_get_cbEv, symObjAddr: 0x67C4, symBinAddr: 0x1E008, symSize: 0x14 }
  - { offset: 0xB7795, size: 0x8, addend: 0x0, symName: __ZNK13llama_context12graph_get_cbEv, symObjAddr: 0x67C4, symBinAddr: 0x1E008, symSize: 0x14 }
  - { offset: 0xB77B1, size: 0x8, addend: 0x0, symName: __ZNK13llama_context12graph_get_cbEv, symObjAddr: 0x67C4, symBinAddr: 0x1E008, symSize: 0x14 }
  - { offset: 0xB77CD, size: 0x8, addend: 0x0, symName: __ZNK13llama_context12graph_get_cbEv, symObjAddr: 0x67C4, symBinAddr: 0x1E008, symSize: 0x14 }
  - { offset: 0xB9CBF, size: 0x8, addend: 0x0, symName: __ZN13llama_contextC2ERK11llama_model20llama_context_params, symObjAddr: 0x0, symBinAddr: 0x178BC, symSize: 0x1B60 }
  - { offset: 0xBEC9B, size: 0x8, addend: 0x0, symName: __ZN13llama_context14output_reserveEi, symObjAddr: 0x1C10, symBinAddr: 0x194CC, symSize: 0x200 }
  - { offset: 0xBF339, size: 0x8, addend: 0x0, symName: __ZNKSt3__16vectorINS_10unique_ptrI12ggml_backend20ggml_backend_deleterEENS_9allocatorIS4_EEE20__throw_length_errorB8ne190107Ev, symObjAddr: 0x9820, symBinAddr: 0x20FC8, symSize: 0x14 }
  - { offset: 0xBF363, size: 0x8, addend: 0x0, symName: __ZNKSt3__16vectorINS_4pairIP12ggml_backendPFvS3_iEEENS_9allocatorIS6_EEE20__throw_length_errorB8ne190107Ev, symObjAddr: 0x9834, symBinAddr: 0x20FDC, symSize: 0x14 }
  - { offset: 0xBF386, size: 0x8, addend: 0x0, symName: __ZNKSt3__16vectorIP12ggml_backendNS_9allocatorIS2_EEE20__throw_length_errorB8ne190107Ev, symObjAddr: 0x985C, symBinAddr: 0x20FF0, symSize: 0x14 }
  - { offset: 0xBF391, size: 0x8, addend: 0x0, symName: __ZNKSt3__16vectorIP12ggml_backendNS_9allocatorIS2_EEE20__throw_length_errorB8ne190107Ev, symObjAddr: 0x985C, symBinAddr: 0x20FF0, symSize: 0x14 }
  - { offset: 0xBF3C6, size: 0x8, addend: 0x0, symName: __ZNKSt3__16vectorINS_4pairIP12ggml_backendPFvS3_iEEENS_9allocatorIS6_EEE20__throw_length_errorB8ne190107Ev, symObjAddr: 0x9834, symBinAddr: 0x20FDC, symSize: 0x14 }
  - { offset: 0xBF42E, size: 0x8, addend: 0x0, symName: __ZN16llm_graph_resultD1Ev, symObjAddr: 0x9884, symBinAddr: 0x21004, symSize: 0x8C }
  - { offset: 0xBF501, size: 0x8, addend: 0x0, symName: __ZNSt3__16vectorINS_10unique_ptrI12ggml_backend20ggml_backend_deleterEENS_9allocatorIS4_EEED1B8ne190107Ev, symObjAddr: 0x2044, symBinAddr: 0x19898, symSize: 0x78 }
  - { offset: 0xBF743, size: 0x8, addend: 0x0, symName: __ZNSt3__110unique_ptrI18ggml_backend_sched26ggml_backend_sched_deleterED1B8ne190107Ev, symObjAddr: 0x20BC, symBinAddr: 0x19910, symSize: 0x34 }
  - { offset: 0xBF7D7, size: 0x8, addend: 0x0, symName: __ZNSt3__16__treeINS_12__value_typeIiNS_6vectorIfNS_9allocatorIfEEEEEENS_19__map_value_compareIiS6_NS_4lessIiEELb1EEENS3_IS6_EEE7destroyEPNS_11__tree_nodeIS6_PvEE, symObjAddr: 0x97C4, symBinAddr: 0x20F6C, symSize: 0x5C }
  - { offset: 0xBFB1A, size: 0x8, addend: 0x0, symName: __ZN11llama_crossD1Ev, symObjAddr: 0x20F0, symBinAddr: 0x19944, symSize: 0x88 }
  - { offset: 0xBFF73, size: 0x8, addend: 0x0, symName: __ZN12llama_sbatchD2Ev, symObjAddr: 0x8E74, symBinAddr: 0x206B8, symSize: 0xF8 }
  - { offset: 0xC0DD0, size: 0x8, addend: 0x0, symName: __ZNSt3__113unordered_mapIP18llama_adapter_lorafNS_4hashIS2_EENS_8equal_toIS2_EENS_9allocatorINS_4pairIKS2_fEEEEED1B8ne190107Ev, symObjAddr: 0x2178, symBinAddr: 0x199CC, symSize: 0x54 }
  - { offset: 0xC10C8, size: 0x8, addend: 0x0, symName: __ZN18llama_adapter_cvecD2Ev, symObjAddr: 0x8F6C, symBinAddr: 0x207B0, symSize: 0xE0 }
  - { offset: 0xC16FC, size: 0x8, addend: 0x0, symName: _llama_set_abort_callback, symObjAddr: 0x1B60, symBinAddr: 0x1941C, symSize: 0xB0 }
  - { offset: 0xC1CA1, size: 0x8, addend: 0x0, symName: __ZNK13llama_context15graph_max_nodesEv, symObjAddr: 0x1E10, symBinAddr: 0x196CC, symSize: 0x28 }
  - { offset: 0xC1CC3, size: 0x8, addend: 0x0, symName: __ZN13llama_context10graph_initEv, symObjAddr: 0x1E38, symBinAddr: 0x196F4, symSize: 0x84 }
  - { offset: 0xC1DCB, size: 0x8, addend: 0x0, symName: __ZN13llama_context11graph_buildEP12ggml_contextP11ggml_cgraphRK12llama_ubatch14llm_graph_type, symObjAddr: 0x1EBC, symBinAddr: 0x19778, symSize: 0x120 }
  - { offset: 0xC249E, size: 0x8, addend: 0x0, symName: __ZNSt3__16__treeIiNS_4lessIiEENS_9allocatorIiEEE7destroyEPNS_11__tree_nodeIiPvEE, symObjAddr: 0x8E2C, symBinAddr: 0x20670, symSize: 0x48 }
  - { offset: 0xC27B9, size: 0x8, addend: 0x0, symName: __ZN13llama_contextC1ERK11llama_model20llama_context_params, symObjAddr: 0x21CC, symBinAddr: 0x19A20, symSize: 0x4 }
  - { offset: 0xC27EB, size: 0x8, addend: 0x0, symName: __ZN13llama_contextC1ERK11llama_model20llama_context_params, symObjAddr: 0x21CC, symBinAddr: 0x19A20, symSize: 0x4 }
  - { offset: 0xC28AA, size: 0x8, addend: 0x0, symName: __ZN13llama_contextD2Ev, symObjAddr: 0x21D0, symBinAddr: 0x19A24, symSize: 0x1F4 }
  - { offset: 0xC3D79, size: 0x8, addend: 0x0, symName: __ZN13llama_contextD1Ev, symObjAddr: 0x23C4, symBinAddr: 0x19C18, symSize: 0x4 }
  - { offset: 0xC3D9C, size: 0x8, addend: 0x0, symName: __ZN13llama_contextD1Ev, symObjAddr: 0x23C4, symBinAddr: 0x19C18, symSize: 0x4 }
  - { offset: 0xC3DAF, size: 0x8, addend: 0x0, symName: __ZN13llama_context11synchronizeEv, symObjAddr: 0x23C8, symBinAddr: 0x19C1C, symSize: 0xF4 }
  - { offset: 0xC3E4C, size: 0x8, addend: 0x0, symName: __ZNK13llama_context9get_modelEv, symObjAddr: 0x24BC, symBinAddr: 0x19D10, symSize: 0x8 }
  - { offset: 0xC3E6E, size: 0x8, addend: 0x0, symName: __ZNK13llama_context5n_ctxEv, symObjAddr: 0x24C4, symBinAddr: 0x19D18, symSize: 0x8 }
  - { offset: 0xC3E90, size: 0x8, addend: 0x0, symName: __ZNK13llama_context13n_ctx_per_seqEv, symObjAddr: 0x24CC, symBinAddr: 0x19D20, symSize: 0x10 }
  - { offset: 0xC3EB2, size: 0x8, addend: 0x0, symName: __ZNK13llama_context7n_batchEv, symObjAddr: 0x24DC, symBinAddr: 0x19D30, symSize: 0x8 }
  - { offset: 0xC3ED4, size: 0x8, addend: 0x0, symName: __ZNK13llama_context8n_ubatchEv, symObjAddr: 0x24E4, symBinAddr: 0x19D38, symSize: 0x8 }
  - { offset: 0xC3EF6, size: 0x8, addend: 0x0, symName: __ZNK13llama_context9n_seq_maxEv, symObjAddr: 0x24EC, symBinAddr: 0x19D40, symSize: 0x8 }
  - { offset: 0xC3F18, size: 0x8, addend: 0x0, symName: __ZNK13llama_context9n_threadsEv, symObjAddr: 0x24F4, symBinAddr: 0x19D48, symSize: 0x8 }
  - { offset: 0xC3F3A, size: 0x8, addend: 0x0, symName: __ZNK13llama_context15n_threads_batchEv, symObjAddr: 0x24FC, symBinAddr: 0x19D50, symSize: 0x8 }
  - { offset: 0xC3F5C, size: 0x8, addend: 0x0, symName: __ZN13llama_context11get_kv_selfEv, symObjAddr: 0x2504, symBinAddr: 0x19D58, symSize: 0x8 }
  - { offset: 0xC3F80, size: 0x8, addend: 0x0, symName: __ZN13llama_context11get_kv_selfEv, symObjAddr: 0x2504, symBinAddr: 0x19D58, symSize: 0x8 }
  - { offset: 0xC3F9E, size: 0x8, addend: 0x0, symName: __ZNK13llama_context11get_kv_selfEv, symObjAddr: 0x250C, symBinAddr: 0x19D60, symSize: 0x8 }
  - { offset: 0xC3FC2, size: 0x8, addend: 0x0, symName: __ZNK13llama_context11get_kv_selfEv, symObjAddr: 0x250C, symBinAddr: 0x19D60, symSize: 0x8 }
  - { offset: 0xC402B, size: 0x8, addend: 0x0, symName: __ZNK13llama_context16build_rope_shiftEP12ggml_contextP11ggml_tensorS3_S3_ffP19ggml_backend_buffer, symObjAddr: 0x2514, symBinAddr: 0x19D68, symSize: 0x168 }
  - { offset: 0xC43D6, size: 0x8, addend: 0x0, symName: __ZN23llm_graph_input_k_shift9set_inputEPK12llama_ubatch, symObjAddr: 0x267C, symBinAddr: 0x19ED0, symSize: 0x40 }
  - { offset: 0xC4986, size: 0x8, addend: 0x0, symName: __ZNK13llama_context19build_kv_self_shiftEP12ggml_contextP11ggml_cgraph, symObjAddr: 0x26BC, symBinAddr: 0x19F10, symSize: 0x2F4 }
  - { offset: 0xC51D5, size: 0x8, addend: 0x0, symName: __ZN16llm_graph_result9add_inputENSt3__110unique_ptrI17llm_graph_input_iNS0_14default_deleteIS2_EEEE, symObjAddr: 0x29B0, symBinAddr: 0x1A204, symSize: 0x100 }
  - { offset: 0xC5764, size: 0x8, addend: 0x0, symName: __ZNK13llama_context20build_kv_self_defragEP12ggml_contextP11ggml_cgraph, symObjAddr: 0x2AB0, symBinAddr: 0x1A304, symSize: 0x3D8 }
  - { offset: 0xC5C0E, size: 0x8, addend: 0x0, symName: __ZNKSt3__16vectorINS_10unique_ptrI17llm_graph_input_iNS_14default_deleteIS2_EEEENS_9allocatorIS5_EEE20__throw_length_errorB8ne190107Ev, symObjAddr: 0x904C, symBinAddr: 0x20890, symSize: 0x14 }
  - { offset: 0xC5C5E, size: 0x8, addend: 0x0, symName: __ZNK13llama_context20build_kv_self_defragEP12ggml_contextP11ggml_cgraph, symObjAddr: 0x2AB0, symBinAddr: 0x1A304, symSize: 0x3D8 }
  - { offset: 0xC64AD, size: 0x8, addend: 0x0, symName: __ZN13llama_context14kv_self_updateEv, symObjAddr: 0x2E88, symBinAddr: 0x1A6DC, symSize: 0x53C }
  - { offset: 0xC7179, size: 0x8, addend: 0x0, symName: __ZN13llama_context13graph_computeEP11ggml_cgraphb, symObjAddr: 0x33C4, symBinAddr: 0x1AC18, symSize: 0xE4 }
  - { offset: 0xC739A, size: 0x8, addend: 0x0, symName: __ZNK13llama_context12pooling_typeEv, symObjAddr: 0x34A8, symBinAddr: 0x1ACFC, symSize: 0x8 }
  - { offset: 0xC73BC, size: 0x8, addend: 0x0, symName: __ZN13llama_context10get_logitsEv, symObjAddr: 0x34B0, symBinAddr: 0x1AD04, symSize: 0x24 }
  - { offset: 0xC73F3, size: 0x8, addend: 0x0, symName: __ZN13llama_context14output_reorderEv, symObjAddr: 0x34D4, symBinAddr: 0x1AD28, symSize: 0x56C }
  - { offset: 0xC76B3, size: 0x8, addend: 0x0, symName: __ZN13llama_context14get_logits_ithEi, symObjAddr: 0x3A40, symBinAddr: 0x1B294, symSize: 0x330 }
  - { offset: 0xC7778, size: 0x8, addend: 0x0, symName: __ZN13llama_context14get_logits_ithEi, symObjAddr: 0x3A40, symBinAddr: 0x1B294, symSize: 0x330 }
  - { offset: 0xC7AB6, size: 0x8, addend: 0x0, symName: __ZN13llama_context14get_embeddingsEv, symObjAddr: 0x3D80, symBinAddr: 0x1B5C4, symSize: 0x24 }
  - { offset: 0xC7AED, size: 0x8, addend: 0x0, symName: __ZN13llama_context18get_embeddings_ithEi, symObjAddr: 0x3DA4, symBinAddr: 0x1B5E8, symSize: 0x334 }
  - { offset: 0xC7F71, size: 0x8, addend: 0x0, symName: __ZN13llama_context18get_embeddings_seqEi, symObjAddr: 0x40D8, symBinAddr: 0x1B91C, symSize: 0x4C }
  - { offset: 0xC7FA5, size: 0x8, addend: 0x0, symName: __ZN13llama_context18get_embeddings_seqEi, symObjAddr: 0x40D8, symBinAddr: 0x1B91C, symSize: 0x4C }
  - { offset: 0xC7FC4, size: 0x8, addend: 0x0, symName: __ZN13llama_context18get_embeddings_seqEi, symObjAddr: 0x40D8, symBinAddr: 0x1B91C, symSize: 0x4C }
  - { offset: 0xC7FEC, size: 0x8, addend: 0x0, symName: __ZN13llama_context18get_embeddings_seqEi, symObjAddr: 0x40D8, symBinAddr: 0x1B91C, symSize: 0x4C }
  - { offset: 0xC80D7, size: 0x8, addend: 0x0, symName: __ZN13llama_context17attach_threadpoolEP15ggml_threadpoolS1_, symObjAddr: 0x4124, symBinAddr: 0x1B968, symSize: 0x60 }
  - { offset: 0xC811E, size: 0x8, addend: 0x0, symName: __ZN13llama_context17detach_threadpoolEv, symObjAddr: 0x4184, symBinAddr: 0x1B9C8, symSize: 0x4C }
  - { offset: 0xC8153, size: 0x8, addend: 0x0, symName: __ZN13llama_context13set_n_threadsEii, symObjAddr: 0x41D0, symBinAddr: 0x1BA14, symSize: 0x58 }
  - { offset: 0xC819A, size: 0x8, addend: 0x0, symName: __ZN13llama_context18set_abort_callbackEPFbPvES0_, symObjAddr: 0x4228, symBinAddr: 0x1BA6C, symSize: 0xB0 }
  - { offset: 0xC830E, size: 0x8, addend: 0x0, symName: __ZN13llama_context14set_embeddingsEb, symObjAddr: 0x42D8, symBinAddr: 0x1BB1C, symSize: 0x48 }
  - { offset: 0xC8349, size: 0x8, addend: 0x0, symName: __ZN13llama_context15set_causal_attnEb, symObjAddr: 0x4320, symBinAddr: 0x1BB64, symSize: 0x48 }
  - { offset: 0xC8384, size: 0x8, addend: 0x0, symName: __ZN13llama_context10set_warmupEb, symObjAddr: 0x4368, symBinAddr: 0x1BBAC, symSize: 0x48 }
  - { offset: 0xC83E3, size: 0x8, addend: 0x0, symName: __ZN13llama_context16set_adapter_loraEP18llama_adapter_loraf, symObjAddr: 0x43B0, symBinAddr: 0x1BBF4, symSize: 0x80 }
  - { offset: 0xC8477, size: 0x8, addend: 0x0, symName: __ZNSt3__112__hash_tableINS_17__hash_value_typeIP18llama_adapter_lorafEENS_22__unordered_map_hasherIS3_S4_NS_4hashIS3_EENS_8equal_toIS3_EELb1EEENS_21__unordered_map_equalIS3_S4_S9_S7_Lb1EEENS_9allocatorIS4_EEE25__emplace_unique_key_argsIS3_JRKNS_21piecewise_construct_tENS_5tupleIJRKS3_EEENSK_IJEEEEEENS_4pairINS_15__hash_iteratorIPNS_11__hash_nodeIS4_PvEEEEbEERKT_DpOT0_, symObjAddr: 0x9A38, symBinAddr: 0x211B8, symSize: 0x364 }
  - { offset: 0xC8DD8, size: 0x8, addend: 0x0, symName: __ZN13llama_context15rm_adapter_loraEP18llama_adapter_lora, symObjAddr: 0x4430, symBinAddr: 0x1BC74, symSize: 0x84 }
  - { offset: 0xC903B, size: 0x8, addend: 0x0, symName: __ZNSt3__112__hash_tableINS_17__hash_value_typeIP18llama_adapter_lorafEENS_22__unordered_map_hasherIS3_S4_NS_4hashIS3_EENS_8equal_toIS3_EELb1EEENS_21__unordered_map_equalIS3_S4_S9_S7_Lb1EEENS_9allocatorIS4_EEE4findIS3_EENS_15__hash_iteratorIPNS_11__hash_nodeIS4_PvEEEERKT_, symObjAddr: 0x9F78, symBinAddr: 0x216F8, symSize: 0x110 }
  - { offset: 0xC9092, size: 0x8, addend: 0x0, symName: __ZNSt3__112__hash_tableINS_17__hash_value_typeIP18llama_adapter_lorafEENS_22__unordered_map_hasherIS3_S4_NS_4hashIS3_EENS_8equal_toIS3_EELb1EEENS_21__unordered_map_equalIS3_S4_S9_S7_Lb1EEENS_9allocatorIS4_EEE4findIS3_EENS_15__hash_iteratorIPNS_11__hash_nodeIS4_PvEEEERKT_, symObjAddr: 0x9F78, symBinAddr: 0x216F8, symSize: 0x110 }
  - { offset: 0xC90AE, size: 0x8, addend: 0x0, symName: __ZNSt3__112__hash_tableINS_17__hash_value_typeIP18llama_adapter_lorafEENS_22__unordered_map_hasherIS3_S4_NS_4hashIS3_EENS_8equal_toIS3_EELb1EEENS_21__unordered_map_equalIS3_S4_S9_S7_Lb1EEENS_9allocatorIS4_EEE4findIS3_EENS_15__hash_iteratorIPNS_11__hash_nodeIS4_PvEEEERKT_, symObjAddr: 0x9F78, symBinAddr: 0x216F8, symSize: 0x110 }
  - { offset: 0xC91A8, size: 0x8, addend: 0x0, symName: __ZNSt3__112__hash_tableINS_17__hash_value_typeIP18llama_adapter_lorafEENS_22__unordered_map_hasherIS3_S4_NS_4hashIS3_EENS_8equal_toIS3_EELb1EEENS_21__unordered_map_equalIS3_S4_S9_S7_Lb1EEENS_9allocatorIS4_EEE6removeENS_21__hash_const_iteratorIPNS_11__hash_nodeIS4_PvEEEE, symObjAddr: 0xA088, symBinAddr: 0x21808, symSize: 0x134 }
  - { offset: 0xC921E, size: 0x8, addend: 0x0, symName: __ZNSt3__112__hash_tableINS_17__hash_value_typeIP18llama_adapter_lorafEENS_22__unordered_map_hasherIS3_S4_NS_4hashIS3_EENS_8equal_toIS3_EELb1EEENS_21__unordered_map_equalIS3_S4_S9_S7_Lb1EEENS_9allocatorIS4_EEE6removeENS_21__hash_const_iteratorIPNS_11__hash_nodeIS4_PvEEEE, symObjAddr: 0xA088, symBinAddr: 0x21808, symSize: 0x134 }
  - { offset: 0xC923A, size: 0x8, addend: 0x0, symName: __ZNSt3__112__hash_tableINS_17__hash_value_typeIP18llama_adapter_lorafEENS_22__unordered_map_hasherIS3_S4_NS_4hashIS3_EENS_8equal_toIS3_EELb1EEENS_21__unordered_map_equalIS3_S4_S9_S7_Lb1EEENS_9allocatorIS4_EEE6removeENS_21__hash_const_iteratorIPNS_11__hash_nodeIS4_PvEEEE, symObjAddr: 0xA088, symBinAddr: 0x21808, symSize: 0x134 }
  - { offset: 0xC952D, size: 0x8, addend: 0x0, symName: __ZN13llama_context18clear_adapter_loraEv, symObjAddr: 0x44B4, symBinAddr: 0x1BCF8, symSize: 0x8C }
  - { offset: 0xC9765, size: 0x8, addend: 0x0, symName: __ZN13llama_context18apply_adapter_cvecEPKfmiii, symObjAddr: 0x4540, symBinAddr: 0x1BD84, symSize: 0x84 }
  - { offset: 0xCA2BF, size: 0x8, addend: 0x0, symName: __ZN13llama_context6encodeER11llama_batch, symObjAddr: 0x45C4, symBinAddr: 0x1BE08, symSize: 0xB34 }
  - { offset: 0xCC27A, size: 0x8, addend: 0x0, symName: __ZNSt3__16vectorINS_3setIiNS_4lessIiEENS_9allocatorIiEEEENS4_IS6_EEE8__appendEm, symObjAddr: 0xA4AC, symBinAddr: 0x2193C, symSize: 0x22C }
  - { offset: 0xCCA3F, size: 0x8, addend: 0x0, symName: __ZNKSt3__16vectorINS_3setIiNS_4lessIiEENS_9allocatorIiEEEENS4_IS6_EEE20__throw_length_errorB8ne190107Ev, symObjAddr: 0xA6D8, symBinAddr: 0x21B68, symSize: 0x14 }
  - { offset: 0xCCA4A, size: 0x8, addend: 0x0, symName: __ZN18llama_batch_allocrD1Ev, symObjAddr: 0x50F8, symBinAddr: 0x1C93C, symSize: 0x80 }
  - { offset: 0xCD0EE, size: 0x8, addend: 0x0, symName: __ZN13llama_context6decodeER11llama_batch, symObjAddr: 0x5178, symBinAddr: 0x1C9BC, symSize: 0x1588 }
  - { offset: 0xCFE26, size: 0x8, addend: 0x0, symName: __ZN22llama_kv_slot_restorer4saveERK24llama_kv_cache_slot_info, symObjAddr: 0x90FC, symBinAddr: 0x208A4, symSize: 0x114 }
  - { offset: 0xD0227, size: 0x8, addend: 0x0, symName: __ZNKSt3__16vectorINS_4pairIjjEENS_9allocatorIS2_EEE20__throw_length_errorB8ne190107Ev, symObjAddr: 0x9210, symBinAddr: 0x209B8, symSize: 0x14 }
  - { offset: 0xD0232, size: 0x8, addend: 0x0, symName: __ZZN13llama_context6decodeER11llama_batchEN11batch_guardD1Ev, symObjAddr: 0x6700, symBinAddr: 0x1DF44, symSize: 0xC4 }
  - { offset: 0xD05D0, size: 0x8, addend: 0x0, symName: __ZN13llama_context14state_get_sizeEv, symObjAddr: 0x67D8, symBinAddr: 0x1E01C, symSize: 0xA0 }
  - { offset: 0xD0692, size: 0x8, addend: 0x0, symName: __ZN13llama_context16state_write_dataER16llama_io_write_i, symObjAddr: 0x6878, symBinAddr: 0x1E0BC, symSize: 0x398 }
  - { offset: 0xD1363, size: 0x8, addend: 0x0, symName: __ZN20llama_io_write_dummyD1Ev, symObjAddr: 0x6C10, symBinAddr: 0x1E454, symSize: 0x4 }
  - { offset: 0xD14DA, size: 0x8, addend: 0x0, symName: __ZN13llama_context14state_get_dataEPhm, symObjAddr: 0x6C14, symBinAddr: 0x1E458, symSize: 0xA4 }
  - { offset: 0xD15D8, size: 0x8, addend: 0x0, symName: __ZN21llama_io_write_bufferD1Ev, symObjAddr: 0x6CB8, symBinAddr: 0x1E4FC, symSize: 0x4 }
  - { offset: 0xD1749, size: 0x8, addend: 0x0, symName: __ZN13llama_context14state_set_dataEPKhm, symObjAddr: 0x6CBC, symBinAddr: 0x1E500, symSize: 0xA4 }
  - { offset: 0xD1847, size: 0x8, addend: 0x0, symName: __ZN13llama_context15state_read_dataER15llama_io_read_i, symObjAddr: 0x6D60, symBinAddr: 0x1E5A4, symSize: 0x58C }
  - { offset: 0xD2CE6, size: 0x8, addend: 0x0, symName: __ZN20llama_io_read_bufferD1Ev, symObjAddr: 0x72EC, symBinAddr: 0x1EB30, symSize: 0x4 }
  - { offset: 0xD2D43, size: 0x8, addend: 0x0, symName: __ZN13llama_context18state_seq_get_sizeEi, symObjAddr: 0x72F0, symBinAddr: 0x1EB34, symSize: 0xB8 }
  - { offset: 0xD2E5E, size: 0x8, addend: 0x0, symName: __ZN13llama_context20state_seq_write_dataER16llama_io_write_ii, symObjAddr: 0x73A8, symBinAddr: 0x1EBEC, symSize: 0x30 }
  - { offset: 0xD2EBE, size: 0x8, addend: 0x0, symName: __ZN13llama_context18state_seq_get_dataEiPhm, symObjAddr: 0x73D8, symBinAddr: 0x1EC1C, symSize: 0xC0 }
  - { offset: 0xD3046, size: 0x8, addend: 0x0, symName: __ZN13llama_context18state_seq_set_dataEiPKhm, symObjAddr: 0x7498, symBinAddr: 0x1ECDC, symSize: 0xC0 }
  - { offset: 0xD319D, size: 0x8, addend: 0x0, symName: __ZN13llama_context19state_seq_read_dataER15llama_io_read_ii, symObjAddr: 0x7558, symBinAddr: 0x1ED9C, symSize: 0x30 }
  - { offset: 0xD34A2, size: 0x8, addend: 0x0, symName: __ZN13llama_context15state_load_fileEPKcPimPm, symObjAddr: 0x7588, symBinAddr: 0x1EDCC, symSize: 0x1DC }
  - { offset: 0xD3A0C, size: 0x8, addend: 0x0, symName: __ZN18llama_io_read_fileD1Ev, symObjAddr: 0x7764, symBinAddr: 0x1EFA8, symSize: 0x4C }
  - { offset: 0xD3A30, size: 0x8, addend: 0x0, symName: __ZN18llama_io_read_fileD1Ev, symObjAddr: 0x7764, symBinAddr: 0x1EFA8, symSize: 0x4C }
  - { offset: 0xD3D4D, size: 0x8, addend: 0x0, symName: __ZN13llama_context15state_save_fileEPKcPKim, symObjAddr: 0x77B0, symBinAddr: 0x1EFF4, symSize: 0x110 }
  - { offset: 0xD41EF, size: 0x8, addend: 0x0, symName: __ZN19llama_io_write_fileD1Ev, symObjAddr: 0x78C0, symBinAddr: 0x1F104, symSize: 0x4C }
  - { offset: 0xD4213, size: 0x8, addend: 0x0, symName: __ZN19llama_io_write_fileD1Ev, symObjAddr: 0x78C0, symBinAddr: 0x1F104, symSize: 0x4C }
  - { offset: 0xD43C8, size: 0x8, addend: 0x0, symName: __ZN13llama_context19state_seq_load_fileEiPKcPimPm, symObjAddr: 0x790C, symBinAddr: 0x1F150, symSize: 0x270 }
  - { offset: 0xD4992, size: 0x8, addend: 0x0, symName: __ZN13llama_context19state_seq_save_fileEiPKcPKim, symObjAddr: 0x7B7C, symBinAddr: 0x1F3C0, symSize: 0x194 }
  - { offset: 0xD4ECE, size: 0x8, addend: 0x0, symName: __ZN19llama_io_write_file7n_bytesEv, symObjAddr: 0x7D10, symBinAddr: 0x1F554, symSize: 0x8 }
  - { offset: 0xD4F2E, size: 0x8, addend: 0x0, symName: __ZNK13llama_context13perf_get_dataEv, symObjAddr: 0x7D18, symBinAddr: 0x1F55C, symSize: 0x44 }
  - { offset: 0xD4FB4, size: 0x8, addend: 0x0, symName: __ZN13llama_context10perf_resetEv, symObjAddr: 0x7D5C, symBinAddr: 0x1F5A0, symSize: 0x34 }
  - { offset: 0xD4FE4, size: 0x8, addend: 0x0, symName: _llama_context_default_params, symObjAddr: 0x7D90, symBinAddr: 0x1F5D4, symSize: 0x34 }
  - { offset: 0xD5042, size: 0x8, addend: 0x0, symName: _llama_init_from_model, symObjAddr: 0x7DC4, symBinAddr: 0x1F608, symSize: 0x1E8 }
  - { offset: 0xD513B, size: 0x8, addend: 0x0, symName: _llama_new_context_with_model, symObjAddr: 0x7FAC, symBinAddr: 0x1F7F0, symSize: 0x48 }
  - { offset: 0xD51AF, size: 0x8, addend: 0x0, symName: _llama_free, symObjAddr: 0x7FF4, symBinAddr: 0x1F838, symSize: 0x20 }
  - { offset: 0xD5219, size: 0x8, addend: 0x0, symName: _llama_n_ctx, symObjAddr: 0x8014, symBinAddr: 0x1F858, symSize: 0x8 }
  - { offset: 0xD5247, size: 0x8, addend: 0x0, symName: _llama_n_ctx, symObjAddr: 0x8014, symBinAddr: 0x1F858, symSize: 0x8 }
  - { offset: 0xD5262, size: 0x8, addend: 0x0, symName: _llama_n_batch, symObjAddr: 0x801C, symBinAddr: 0x1F860, symSize: 0x8 }
  - { offset: 0xD5290, size: 0x8, addend: 0x0, symName: _llama_n_batch, symObjAddr: 0x801C, symBinAddr: 0x1F860, symSize: 0x8 }
  - { offset: 0xD52C4, size: 0x8, addend: 0x0, symName: _llama_n_ubatch, symObjAddr: 0x8024, symBinAddr: 0x1F868, symSize: 0x8 }
  - { offset: 0xD52F2, size: 0x8, addend: 0x0, symName: _llama_n_ubatch, symObjAddr: 0x8024, symBinAddr: 0x1F868, symSize: 0x8 }
  - { offset: 0xD530D, size: 0x8, addend: 0x0, symName: _llama_n_seq_max, symObjAddr: 0x802C, symBinAddr: 0x1F870, symSize: 0x8 }
  - { offset: 0xD533B, size: 0x8, addend: 0x0, symName: _llama_n_seq_max, symObjAddr: 0x802C, symBinAddr: 0x1F870, symSize: 0x8 }
  - { offset: 0xD536F, size: 0x8, addend: 0x0, symName: _llama_get_model, symObjAddr: 0x8034, symBinAddr: 0x1F878, symSize: 0x8 }
  - { offset: 0xD539D, size: 0x8, addend: 0x0, symName: _llama_get_model, symObjAddr: 0x8034, symBinAddr: 0x1F878, symSize: 0x8 }
  - { offset: 0xD53D1, size: 0x8, addend: 0x0, symName: _llama_get_kv_self, symObjAddr: 0x803C, symBinAddr: 0x1F880, symSize: 0x8 }
  - { offset: 0xD53FF, size: 0x8, addend: 0x0, symName: _llama_get_kv_self, symObjAddr: 0x803C, symBinAddr: 0x1F880, symSize: 0x8 }
  - { offset: 0xD541B, size: 0x8, addend: 0x0, symName: _llama_get_kv_self, symObjAddr: 0x803C, symBinAddr: 0x1F880, symSize: 0x8 }
  - { offset: 0xD543A, size: 0x8, addend: 0x0, symName: _llama_kv_self_update, symObjAddr: 0x8044, symBinAddr: 0x1F888, symSize: 0x4 }
  - { offset: 0xD5459, size: 0x8, addend: 0x0, symName: _llama_kv_self_update, symObjAddr: 0x8044, symBinAddr: 0x1F888, symSize: 0x4 }
  - { offset: 0xD5485, size: 0x8, addend: 0x0, symName: _llama_pooling_type, symObjAddr: 0x8048, symBinAddr: 0x1F88C, symSize: 0x8 }
  - { offset: 0xD54B3, size: 0x8, addend: 0x0, symName: _llama_pooling_type, symObjAddr: 0x8048, symBinAddr: 0x1F88C, symSize: 0x8 }
  - { offset: 0xD54FF, size: 0x8, addend: 0x0, symName: _llama_attach_threadpool, symObjAddr: 0x8050, symBinAddr: 0x1F894, symSize: 0x60 }
  - { offset: 0xD559E, size: 0x8, addend: 0x0, symName: _llama_detach_threadpool, symObjAddr: 0x80B0, symBinAddr: 0x1F8F4, symSize: 0x4C }
  - { offset: 0xD5627, size: 0x8, addend: 0x0, symName: _llama_set_n_threads, symObjAddr: 0x80FC, symBinAddr: 0x1F940, symSize: 0x58 }
  - { offset: 0xD56C6, size: 0x8, addend: 0x0, symName: _llama_n_threads, symObjAddr: 0x8154, symBinAddr: 0x1F998, symSize: 0x8 }
  - { offset: 0xD56F4, size: 0x8, addend: 0x0, symName: _llama_n_threads, symObjAddr: 0x8154, symBinAddr: 0x1F998, symSize: 0x8 }
  - { offset: 0xD5728, size: 0x8, addend: 0x0, symName: _llama_n_threads_batch, symObjAddr: 0x815C, symBinAddr: 0x1F9A0, symSize: 0x8 }
  - { offset: 0xD5756, size: 0x8, addend: 0x0, symName: _llama_n_threads_batch, symObjAddr: 0x815C, symBinAddr: 0x1F9A0, symSize: 0x8 }
  - { offset: 0xD5796, size: 0x8, addend: 0x0, symName: _llama_set_embeddings, symObjAddr: 0x8164, symBinAddr: 0x1F9A8, symSize: 0x48 }
  - { offset: 0xD5823, size: 0x8, addend: 0x0, symName: _llama_set_causal_attn, symObjAddr: 0x81AC, symBinAddr: 0x1F9F0, symSize: 0x48 }
  - { offset: 0xD58B0, size: 0x8, addend: 0x0, symName: _llama_set_warmup, symObjAddr: 0x81F4, symBinAddr: 0x1FA38, symSize: 0x48 }
  - { offset: 0xD5918, size: 0x8, addend: 0x0, symName: _llama_synchronize, symObjAddr: 0x823C, symBinAddr: 0x1FA80, symSize: 0x4 }
  - { offset: 0xD5941, size: 0x8, addend: 0x0, symName: _llama_synchronize, symObjAddr: 0x823C, symBinAddr: 0x1FA80, symSize: 0x4 }
  - { offset: 0xD596D, size: 0x8, addend: 0x0, symName: _llama_get_logits, symObjAddr: 0x8240, symBinAddr: 0x1FA84, symSize: 0x2C }
  - { offset: 0xD59DF, size: 0x8, addend: 0x0, symName: _llama_get_logits_ith, symObjAddr: 0x826C, symBinAddr: 0x1FAB0, symSize: 0x2C }
  - { offset: 0xD5A57, size: 0x8, addend: 0x0, symName: _llama_get_embeddings, symObjAddr: 0x8298, symBinAddr: 0x1FADC, symSize: 0x2C }
  - { offset: 0xD5AC9, size: 0x8, addend: 0x0, symName: _llama_get_embeddings_ith, symObjAddr: 0x82C4, symBinAddr: 0x1FB08, symSize: 0x2C }
  - { offset: 0xD5B59, size: 0x8, addend: 0x0, symName: _llama_get_embeddings_seq, symObjAddr: 0x82F0, symBinAddr: 0x1FB34, symSize: 0x74 }
  - { offset: 0xD5D2F, size: 0x8, addend: 0x0, symName: _llama_set_adapter_lora, symObjAddr: 0x8364, symBinAddr: 0x1FBA8, symSize: 0x84 }
  - { offset: 0xD5E2B, size: 0x8, addend: 0x0, symName: _llama_rm_adapter_lora, symObjAddr: 0x83E8, symBinAddr: 0x1FC2C, symSize: 0x84 }
  - { offset: 0xD60AD, size: 0x8, addend: 0x0, symName: _llama_clear_adapter_lora, symObjAddr: 0x846C, symBinAddr: 0x1FCB0, symSize: 0x8C }
  - { offset: 0xD635D, size: 0x8, addend: 0x0, symName: _llama_apply_adapter_cvec, symObjAddr: 0x84F8, symBinAddr: 0x1FD3C, symSize: 0x8C }
  - { offset: 0xD645D, size: 0x8, addend: 0x0, symName: _llama_kv_cache_view_init, symObjAddr: 0x8584, symBinAddr: 0x1FDC8, symSize: 0x58 }
  - { offset: 0xD64AB, size: 0x8, addend: 0x0, symName: _llama_kv_cache_view_init, symObjAddr: 0x8584, symBinAddr: 0x1FDC8, symSize: 0x58 }
  - { offset: 0xD64C7, size: 0x8, addend: 0x0, symName: _llama_kv_cache_view_init, symObjAddr: 0x8584, symBinAddr: 0x1FDC8, symSize: 0x58 }
  - { offset: 0xD65B7, size: 0x8, addend: 0x0, symName: _llama_kv_cache_view_update, symObjAddr: 0x85DC, symBinAddr: 0x1FE20, symSize: 0x48 }
  - { offset: 0xD6601, size: 0x8, addend: 0x0, symName: _llama_kv_cache_view_update, symObjAddr: 0x85DC, symBinAddr: 0x1FE20, symSize: 0x48 }
  - { offset: 0xD661D, size: 0x8, addend: 0x0, symName: _llama_kv_cache_view_update, symObjAddr: 0x85DC, symBinAddr: 0x1FE20, symSize: 0x48 }
  - { offset: 0xD6694, size: 0x8, addend: 0x0, symName: _llama_get_kv_cache_token_count, symObjAddr: 0x8624, symBinAddr: 0x1FE68, symSize: 0x8 }
  - { offset: 0xD66C2, size: 0x8, addend: 0x0, symName: _llama_get_kv_cache_token_count, symObjAddr: 0x8624, symBinAddr: 0x1FE68, symSize: 0x8 }
  - { offset: 0xD66E0, size: 0x8, addend: 0x0, symName: _llama_get_kv_cache_token_count, symObjAddr: 0x8624, symBinAddr: 0x1FE68, symSize: 0x8 }
  - { offset: 0xD66FC, size: 0x8, addend: 0x0, symName: _llama_get_kv_cache_token_count, symObjAddr: 0x8624, symBinAddr: 0x1FE68, symSize: 0x8 }
  - { offset: 0xD673F, size: 0x8, addend: 0x0, symName: _llama_kv_self_n_tokens, symObjAddr: 0x862C, symBinAddr: 0x1FE70, symSize: 0x8 }
  - { offset: 0xD675F, size: 0x8, addend: 0x0, symName: _llama_kv_self_n_tokens, symObjAddr: 0x862C, symBinAddr: 0x1FE70, symSize: 0x8 }
  - { offset: 0xD677B, size: 0x8, addend: 0x0, symName: _llama_kv_self_n_tokens, symObjAddr: 0x862C, symBinAddr: 0x1FE70, symSize: 0x8 }
  - { offset: 0xD67C3, size: 0x8, addend: 0x0, symName: _llama_get_kv_cache_used_cells, symObjAddr: 0x8634, symBinAddr: 0x1FE78, symSize: 0x8 }
  - { offset: 0xD67F1, size: 0x8, addend: 0x0, symName: _llama_get_kv_cache_used_cells, symObjAddr: 0x8634, symBinAddr: 0x1FE78, symSize: 0x8 }
  - { offset: 0xD680F, size: 0x8, addend: 0x0, symName: _llama_get_kv_cache_used_cells, symObjAddr: 0x8634, symBinAddr: 0x1FE78, symSize: 0x8 }
  - { offset: 0xD682B, size: 0x8, addend: 0x0, symName: _llama_get_kv_cache_used_cells, symObjAddr: 0x8634, symBinAddr: 0x1FE78, symSize: 0x8 }
  - { offset: 0xD686E, size: 0x8, addend: 0x0, symName: _llama_kv_self_used_cells, symObjAddr: 0x863C, symBinAddr: 0x1FE80, symSize: 0x8 }
  - { offset: 0xD688E, size: 0x8, addend: 0x0, symName: _llama_kv_self_used_cells, symObjAddr: 0x863C, symBinAddr: 0x1FE80, symSize: 0x8 }
  - { offset: 0xD68AA, size: 0x8, addend: 0x0, symName: _llama_kv_self_used_cells, symObjAddr: 0x863C, symBinAddr: 0x1FE80, symSize: 0x8 }
  - { offset: 0xD68EE, size: 0x8, addend: 0x0, symName: _llama_kv_cache_clear, symObjAddr: 0x8644, symBinAddr: 0x1FE88, symSize: 0x8 }
  - { offset: 0xD6918, size: 0x8, addend: 0x0, symName: _llama_kv_cache_clear, symObjAddr: 0x8644, symBinAddr: 0x1FE88, symSize: 0x8 }
  - { offset: 0xD6936, size: 0x8, addend: 0x0, symName: _llama_kv_cache_clear, symObjAddr: 0x8644, symBinAddr: 0x1FE88, symSize: 0x8 }
  - { offset: 0xD6952, size: 0x8, addend: 0x0, symName: _llama_kv_cache_clear, symObjAddr: 0x8644, symBinAddr: 0x1FE88, symSize: 0x8 }
  - { offset: 0xD6991, size: 0x8, addend: 0x0, symName: _llama_kv_self_clear, symObjAddr: 0x864C, symBinAddr: 0x1FE90, symSize: 0x8 }
  - { offset: 0xD69B1, size: 0x8, addend: 0x0, symName: _llama_kv_self_clear, symObjAddr: 0x864C, symBinAddr: 0x1FE90, symSize: 0x8 }
  - { offset: 0xD69CD, size: 0x8, addend: 0x0, symName: _llama_kv_self_clear, symObjAddr: 0x864C, symBinAddr: 0x1FE90, symSize: 0x8 }
  - { offset: 0xD6A39, size: 0x8, addend: 0x0, symName: _llama_kv_cache_seq_rm, symObjAddr: 0x8654, symBinAddr: 0x1FE98, symSize: 0x8 }
  - { offset: 0xD6A91, size: 0x8, addend: 0x0, symName: _llama_kv_cache_seq_rm, symObjAddr: 0x8654, symBinAddr: 0x1FE98, symSize: 0x8 }
  - { offset: 0xD6AC4, size: 0x8, addend: 0x0, symName: _llama_kv_cache_seq_rm, symObjAddr: 0x8654, symBinAddr: 0x1FE98, symSize: 0x8 }
  - { offset: 0xD6AE0, size: 0x8, addend: 0x0, symName: _llama_kv_cache_seq_rm, symObjAddr: 0x8654, symBinAddr: 0x1FE98, symSize: 0x8 }
  - { offset: 0xD6B48, size: 0x8, addend: 0x0, symName: _llama_kv_self_seq_rm, symObjAddr: 0x865C, symBinAddr: 0x1FEA0, symSize: 0x8 }
  - { offset: 0xD6B7D, size: 0x8, addend: 0x0, symName: _llama_kv_self_seq_rm, symObjAddr: 0x865C, symBinAddr: 0x1FEA0, symSize: 0x8 }
  - { offset: 0xD6B99, size: 0x8, addend: 0x0, symName: _llama_kv_self_seq_rm, symObjAddr: 0x865C, symBinAddr: 0x1FEA0, symSize: 0x8 }
  - { offset: 0xD6C23, size: 0x8, addend: 0x0, symName: _llama_kv_cache_seq_cp, symObjAddr: 0x8664, symBinAddr: 0x1FEA8, symSize: 0x8 }
  - { offset: 0xD6C85, size: 0x8, addend: 0x0, symName: _llama_kv_cache_seq_cp, symObjAddr: 0x8664, symBinAddr: 0x1FEA8, symSize: 0x8 }
  - { offset: 0xD6CBF, size: 0x8, addend: 0x0, symName: _llama_kv_cache_seq_cp, symObjAddr: 0x8664, symBinAddr: 0x1FEA8, symSize: 0x8 }
  - { offset: 0xD6CDB, size: 0x8, addend: 0x0, symName: _llama_kv_cache_seq_cp, symObjAddr: 0x8664, symBinAddr: 0x1FEA8, symSize: 0x8 }
  - { offset: 0xD6D4B, size: 0x8, addend: 0x0, symName: _llama_kv_self_seq_cp, symObjAddr: 0x866C, symBinAddr: 0x1FEB0, symSize: 0x8 }
  - { offset: 0xD6D87, size: 0x8, addend: 0x0, symName: _llama_kv_self_seq_cp, symObjAddr: 0x866C, symBinAddr: 0x1FEB0, symSize: 0x8 }
  - { offset: 0xD6DA3, size: 0x8, addend: 0x0, symName: _llama_kv_self_seq_cp, symObjAddr: 0x866C, symBinAddr: 0x1FEB0, symSize: 0x8 }
  - { offset: 0xD6E10, size: 0x8, addend: 0x0, symName: _llama_kv_cache_seq_keep, symObjAddr: 0x8674, symBinAddr: 0x1FEB8, symSize: 0x8 }
  - { offset: 0xD6E48, size: 0x8, addend: 0x0, symName: _llama_kv_cache_seq_keep, symObjAddr: 0x8674, symBinAddr: 0x1FEB8, symSize: 0x8 }
  - { offset: 0xD6E6D, size: 0x8, addend: 0x0, symName: _llama_kv_cache_seq_keep, symObjAddr: 0x8674, symBinAddr: 0x1FEB8, symSize: 0x8 }
  - { offset: 0xD6E89, size: 0x8, addend: 0x0, symName: _llama_kv_cache_seq_keep, symObjAddr: 0x8674, symBinAddr: 0x1FEB8, symSize: 0x8 }
  - { offset: 0xD6ED6, size: 0x8, addend: 0x0, symName: _llama_kv_self_seq_keep, symObjAddr: 0x867C, symBinAddr: 0x1FEC0, symSize: 0x8 }
  - { offset: 0xD6EFD, size: 0x8, addend: 0x0, symName: _llama_kv_self_seq_keep, symObjAddr: 0x867C, symBinAddr: 0x1FEC0, symSize: 0x8 }
  - { offset: 0xD6F19, size: 0x8, addend: 0x0, symName: _llama_kv_self_seq_keep, symObjAddr: 0x867C, symBinAddr: 0x1FEC0, symSize: 0x8 }
  - { offset: 0xD6F95, size: 0x8, addend: 0x0, symName: _llama_kv_cache_seq_add, symObjAddr: 0x8684, symBinAddr: 0x1FEC8, symSize: 0x8 }
  - { offset: 0xD6FF7, size: 0x8, addend: 0x0, symName: _llama_kv_cache_seq_add, symObjAddr: 0x8684, symBinAddr: 0x1FEC8, symSize: 0x8 }
  - { offset: 0xD7031, size: 0x8, addend: 0x0, symName: _llama_kv_cache_seq_add, symObjAddr: 0x8684, symBinAddr: 0x1FEC8, symSize: 0x8 }
  - { offset: 0xD704D, size: 0x8, addend: 0x0, symName: _llama_kv_cache_seq_add, symObjAddr: 0x8684, symBinAddr: 0x1FEC8, symSize: 0x8 }
  - { offset: 0xD70BE, size: 0x8, addend: 0x0, symName: _llama_kv_self_seq_add, symObjAddr: 0x868C, symBinAddr: 0x1FED0, symSize: 0x8 }
  - { offset: 0xD70FA, size: 0x8, addend: 0x0, symName: _llama_kv_self_seq_add, symObjAddr: 0x868C, symBinAddr: 0x1FED0, symSize: 0x8 }
  - { offset: 0xD7116, size: 0x8, addend: 0x0, symName: _llama_kv_self_seq_add, symObjAddr: 0x868C, symBinAddr: 0x1FED0, symSize: 0x8 }
  - { offset: 0xD71A7, size: 0x8, addend: 0x0, symName: _llama_kv_cache_seq_div, symObjAddr: 0x8694, symBinAddr: 0x1FED8, symSize: 0x8 }
  - { offset: 0xD7209, size: 0x8, addend: 0x0, symName: _llama_kv_cache_seq_div, symObjAddr: 0x8694, symBinAddr: 0x1FED8, symSize: 0x8 }
  - { offset: 0xD7243, size: 0x8, addend: 0x0, symName: _llama_kv_cache_seq_div, symObjAddr: 0x8694, symBinAddr: 0x1FED8, symSize: 0x8 }
  - { offset: 0xD725F, size: 0x8, addend: 0x0, symName: _llama_kv_cache_seq_div, symObjAddr: 0x8694, symBinAddr: 0x1FED8, symSize: 0x8 }
  - { offset: 0xD72D0, size: 0x8, addend: 0x0, symName: _llama_kv_self_seq_div, symObjAddr: 0x869C, symBinAddr: 0x1FEE0, symSize: 0x8 }
  - { offset: 0xD730C, size: 0x8, addend: 0x0, symName: _llama_kv_self_seq_div, symObjAddr: 0x869C, symBinAddr: 0x1FEE0, symSize: 0x8 }
  - { offset: 0xD7328, size: 0x8, addend: 0x0, symName: _llama_kv_self_seq_div, symObjAddr: 0x869C, symBinAddr: 0x1FEE0, symSize: 0x8 }
  - { offset: 0xD7399, size: 0x8, addend: 0x0, symName: _llama_kv_cache_seq_pos_max, symObjAddr: 0x86A4, symBinAddr: 0x1FEE8, symSize: 0x8 }
  - { offset: 0xD73D5, size: 0x8, addend: 0x0, symName: _llama_kv_cache_seq_pos_max, symObjAddr: 0x86A4, symBinAddr: 0x1FEE8, symSize: 0x8 }
  - { offset: 0xD73FA, size: 0x8, addend: 0x0, symName: _llama_kv_cache_seq_pos_max, symObjAddr: 0x86A4, symBinAddr: 0x1FEE8, symSize: 0x8 }
  - { offset: 0xD7416, size: 0x8, addend: 0x0, symName: _llama_kv_cache_seq_pos_max, symObjAddr: 0x86A4, symBinAddr: 0x1FEE8, symSize: 0x8 }
  - { offset: 0xD7467, size: 0x8, addend: 0x0, symName: _llama_kv_self_seq_pos_max, symObjAddr: 0x86AC, symBinAddr: 0x1FEF0, symSize: 0x8 }
  - { offset: 0xD748E, size: 0x8, addend: 0x0, symName: _llama_kv_self_seq_pos_max, symObjAddr: 0x86AC, symBinAddr: 0x1FEF0, symSize: 0x8 }
  - { offset: 0xD74AA, size: 0x8, addend: 0x0, symName: _llama_kv_self_seq_pos_max, symObjAddr: 0x86AC, symBinAddr: 0x1FEF0, symSize: 0x8 }
  - { offset: 0xD74F6, size: 0x8, addend: 0x0, symName: _llama_kv_cache_defrag, symObjAddr: 0x86B4, symBinAddr: 0x1FEF8, symSize: 0x8 }
  - { offset: 0xD7520, size: 0x8, addend: 0x0, symName: _llama_kv_cache_defrag, symObjAddr: 0x86B4, symBinAddr: 0x1FEF8, symSize: 0x8 }
  - { offset: 0xD753E, size: 0x8, addend: 0x0, symName: _llama_kv_cache_defrag, symObjAddr: 0x86B4, symBinAddr: 0x1FEF8, symSize: 0x8 }
  - { offset: 0xD755A, size: 0x8, addend: 0x0, symName: _llama_kv_cache_defrag, symObjAddr: 0x86B4, symBinAddr: 0x1FEF8, symSize: 0x8 }
  - { offset: 0xD759A, size: 0x8, addend: 0x0, symName: _llama_kv_self_defrag, symObjAddr: 0x86BC, symBinAddr: 0x1FF00, symSize: 0x8 }
  - { offset: 0xD75BA, size: 0x8, addend: 0x0, symName: _llama_kv_self_defrag, symObjAddr: 0x86BC, symBinAddr: 0x1FF00, symSize: 0x8 }
  - { offset: 0xD75D6, size: 0x8, addend: 0x0, symName: _llama_kv_self_defrag, symObjAddr: 0x86BC, symBinAddr: 0x1FF00, symSize: 0x8 }
  - { offset: 0xD761E, size: 0x8, addend: 0x0, symName: _llama_kv_cache_can_shift, symObjAddr: 0x86C4, symBinAddr: 0x1FF08, symSize: 0x8 }
  - { offset: 0xD764C, size: 0x8, addend: 0x0, symName: _llama_kv_cache_can_shift, symObjAddr: 0x86C4, symBinAddr: 0x1FF08, symSize: 0x8 }
  - { offset: 0xD766A, size: 0x8, addend: 0x0, symName: _llama_kv_cache_can_shift, symObjAddr: 0x86C4, symBinAddr: 0x1FF08, symSize: 0x8 }
  - { offset: 0xD7686, size: 0x8, addend: 0x0, symName: _llama_kv_cache_can_shift, symObjAddr: 0x86C4, symBinAddr: 0x1FF08, symSize: 0x8 }
  - { offset: 0xD76CA, size: 0x8, addend: 0x0, symName: _llama_kv_self_can_shift, symObjAddr: 0x86CC, symBinAddr: 0x1FF10, symSize: 0x8 }
  - { offset: 0xD76EA, size: 0x8, addend: 0x0, symName: _llama_kv_self_can_shift, symObjAddr: 0x86CC, symBinAddr: 0x1FF10, symSize: 0x8 }
  - { offset: 0xD7706, size: 0x8, addend: 0x0, symName: _llama_kv_self_can_shift, symObjAddr: 0x86CC, symBinAddr: 0x1FF10, symSize: 0x8 }
  - { offset: 0xD774A, size: 0x8, addend: 0x0, symName: _llama_kv_cache_update, symObjAddr: 0x86D4, symBinAddr: 0x1FF18, symSize: 0x4 }
  - { offset: 0xD7772, size: 0x8, addend: 0x0, symName: _llama_kv_cache_update, symObjAddr: 0x86D4, symBinAddr: 0x1FF18, symSize: 0x4 }
  - { offset: 0xD7790, size: 0x8, addend: 0x0, symName: _llama_kv_cache_update, symObjAddr: 0x86D4, symBinAddr: 0x1FF18, symSize: 0x4 }
  - { offset: 0xD77BE, size: 0x8, addend: 0x0, symName: _llama_get_state_size, symObjAddr: 0x86D8, symBinAddr: 0x1FF1C, symSize: 0x4 }
  - { offset: 0xD77EA, size: 0x8, addend: 0x0, symName: _llama_get_state_size, symObjAddr: 0x86D8, symBinAddr: 0x1FF1C, symSize: 0x4 }
  - { offset: 0xD7808, size: 0x8, addend: 0x0, symName: _llama_get_state_size, symObjAddr: 0x86D8, symBinAddr: 0x1FF1C, symSize: 0x4 }
  - { offset: 0xD781B, size: 0x8, addend: 0x0, symName: _llama_state_get_size, symObjAddr: 0x86DC, symBinAddr: 0x1FF20, symSize: 0x4 }
  - { offset: 0xD783A, size: 0x8, addend: 0x0, symName: _llama_state_get_size, symObjAddr: 0x86DC, symBinAddr: 0x1FF20, symSize: 0x4 }
  - { offset: 0xD7880, size: 0x8, addend: 0x0, symName: _llama_copy_state_data, symObjAddr: 0x86E0, symBinAddr: 0x1FF24, symSize: 0x30 }
  - { offset: 0xD7917, size: 0x8, addend: 0x0, symName: _llama_state_get_data, symObjAddr: 0x8710, symBinAddr: 0x1FF54, symSize: 0x3C }
  - { offset: 0xD799D, size: 0x8, addend: 0x0, symName: _llama_set_state_data, symObjAddr: 0x874C, symBinAddr: 0x1FF90, symSize: 0x30 }
  - { offset: 0xD7A34, size: 0x8, addend: 0x0, symName: _llama_state_set_data, symObjAddr: 0x877C, symBinAddr: 0x1FFC0, symSize: 0x3C }
  - { offset: 0xD7A87, size: 0x8, addend: 0x0, symName: _llama_load_session_file, symObjAddr: 0x87B8, symBinAddr: 0x1FFFC, symSize: 0x4 }
  - { offset: 0xD7AEC, size: 0x8, addend: 0x0, symName: _llama_load_session_file, symObjAddr: 0x87B8, symBinAddr: 0x1FFFC, symSize: 0x4 }
  - { offset: 0xD7B1B, size: 0x8, addend: 0x0, symName: _llama_state_load_file, symObjAddr: 0x87BC, symBinAddr: 0x20000, symSize: 0xD0 }
  - { offset: 0xD7BF7, size: 0x8, addend: 0x0, symName: _llama_save_session_file, symObjAddr: 0x888C, symBinAddr: 0x200D0, symSize: 0x4 }
  - { offset: 0xD7C4E, size: 0x8, addend: 0x0, symName: _llama_save_session_file, symObjAddr: 0x888C, symBinAddr: 0x200D0, symSize: 0x4 }
  - { offset: 0xD7C76, size: 0x8, addend: 0x0, symName: _llama_state_save_file, symObjAddr: 0x8890, symBinAddr: 0x200D4, symSize: 0xC0 }
  - { offset: 0xD7D3C, size: 0x8, addend: 0x0, symName: _llama_state_seq_get_size, symObjAddr: 0x8950, symBinAddr: 0x20194, symSize: 0x4 }
  - { offset: 0xD7D77, size: 0x8, addend: 0x0, symName: _llama_state_seq_get_size, symObjAddr: 0x8950, symBinAddr: 0x20194, symSize: 0x4 }
  - { offset: 0xD7D91, size: 0x8, addend: 0x0, symName: _llama_state_seq_get_data, symObjAddr: 0x8954, symBinAddr: 0x20198, symSize: 0x44 }
  - { offset: 0xD7E10, size: 0x8, addend: 0x0, symName: _llama_state_seq_set_data, symObjAddr: 0x8998, symBinAddr: 0x201DC, symSize: 0x44 }
  - { offset: 0xD7E8F, size: 0x8, addend: 0x0, symName: _llama_state_seq_save_file, symObjAddr: 0x89DC, symBinAddr: 0x20220, symSize: 0xD0 }
  - { offset: 0xD7F6B, size: 0x8, addend: 0x0, symName: _llama_state_seq_load_file, symObjAddr: 0x8AAC, symBinAddr: 0x202F0, symSize: 0xD8 }
  - { offset: 0xD805D, size: 0x8, addend: 0x0, symName: _llama_encode, symObjAddr: 0x8B84, symBinAddr: 0x203C8, symSize: 0x4C }
  - { offset: 0xD80D8, size: 0x8, addend: 0x0, symName: _llama_decode, symObjAddr: 0x8BD0, symBinAddr: 0x20414, symSize: 0x4C }
  - { offset: 0xD8178, size: 0x8, addend: 0x0, symName: _llama_perf_context, symObjAddr: 0x8C1C, symBinAddr: 0x20460, symSize: 0x54 }
  - { offset: 0xD8236, size: 0x8, addend: 0x0, symName: _llama_perf_context_print, symObjAddr: 0x8C70, symBinAddr: 0x204B4, symSize: 0x17C }
  - { offset: 0xD8392, size: 0x8, addend: 0x0, symName: _llama_perf_context_reset, symObjAddr: 0x8DEC, symBinAddr: 0x20630, symSize: 0x34 }
  - { offset: 0xD83E5, size: 0x8, addend: 0x0, symName: __ZN23llm_graph_input_k_shiftD1Ev, symObjAddr: 0x8E20, symBinAddr: 0x20664, symSize: 0x4 }
  - { offset: 0xD840E, size: 0x8, addend: 0x0, symName: __ZN23llm_graph_input_k_shiftD0Ev, symObjAddr: 0x8E24, symBinAddr: 0x20668, symSize: 0x8 }
  - { offset: 0xD8D63, size: 0x8, addend: 0x0, symName: __ZNKSt3__16vectorINS_4pairIjjEENS_9allocatorIS2_EEE20__throw_length_errorB8ne190107Ev, symObjAddr: 0x9210, symBinAddr: 0x209B8, symSize: 0x14 }
  - { offset: 0xD8D8D, size: 0x8, addend: 0x0, symName: __ZN20llama_io_write_dummyD0Ev, symObjAddr: 0x9224, symBinAddr: 0x209CC, symSize: 0x8 }
  - { offset: 0xD8D98, size: 0x8, addend: 0x0, symName: __ZN20llama_io_write_dummyD0Ev, symObjAddr: 0x9224, symBinAddr: 0x209CC, symSize: 0x8 }
  - { offset: 0xD8DC4, size: 0x8, addend: 0x0, symName: __ZN20llama_io_write_dummy5writeEPKvm, symObjAddr: 0x922C, symBinAddr: 0x209D4, symSize: 0x10 }
  - { offset: 0xD8E02, size: 0x8, addend: 0x0, symName: __ZN20llama_io_write_dummy12write_tensorEPK11ggml_tensormm, symObjAddr: 0x923C, symBinAddr: 0x209E4, symSize: 0x10 }
  - { offset: 0xD8E4B, size: 0x8, addend: 0x0, symName: __ZN20llama_io_write_dummy7n_bytesEv, symObjAddr: 0x924C, symBinAddr: 0x209F4, symSize: 0x8 }
  - { offset: 0xD8E72, size: 0x8, addend: 0x0, symName: __ZN21llama_io_write_bufferD0Ev, symObjAddr: 0x9254, symBinAddr: 0x209FC, symSize: 0x8 }
  - { offset: 0xD8E9E, size: 0x8, addend: 0x0, symName: __ZN21llama_io_write_buffer5writeEPKvm, symObjAddr: 0x925C, symBinAddr: 0x20A04, symSize: 0x94 }
  - { offset: 0xD8EE5, size: 0x8, addend: 0x0, symName: __ZN21llama_io_write_buffer12write_tensorEPK11ggml_tensormm, symObjAddr: 0x92F0, symBinAddr: 0x20A98, symSize: 0x9C }
  - { offset: 0xD8F66, size: 0x8, addend: 0x0, symName: __ZN21llama_io_write_buffer7n_bytesEv, symObjAddr: 0x938C, symBinAddr: 0x20B34, symSize: 0x8 }
  - { offset: 0xD8F8D, size: 0x8, addend: 0x0, symName: __ZN20llama_io_read_bufferD0Ev, symObjAddr: 0x9394, symBinAddr: 0x20B3C, symSize: 0x8 }
  - { offset: 0xD8FB9, size: 0x8, addend: 0x0, symName: __ZN20llama_io_read_buffer4readEm, symObjAddr: 0x939C, symBinAddr: 0x20B44, symSize: 0x84 }
  - { offset: 0xD9000, size: 0x8, addend: 0x0, symName: __ZN20llama_io_read_buffer7read_toEPvm, symObjAddr: 0x9420, symBinAddr: 0x20BC8, symSize: 0x3C }
  - { offset: 0xD9062, size: 0x8, addend: 0x0, symName: __ZN20llama_io_read_buffer7n_bytesEv, symObjAddr: 0x945C, symBinAddr: 0x20C04, symSize: 0x8 }
  - { offset: 0xD9089, size: 0x8, addend: 0x0, symName: __ZN18llama_io_read_fileD0Ev, symObjAddr: 0x9464, symBinAddr: 0x20C0C, symSize: 0x50 }
  - { offset: 0xD90B9, size: 0x8, addend: 0x0, symName: __ZN18llama_io_read_fileD0Ev, symObjAddr: 0x9464, symBinAddr: 0x20C0C, symSize: 0x50 }
  - { offset: 0xD90D7, size: 0x8, addend: 0x0, symName: __ZN18llama_io_read_fileD0Ev, symObjAddr: 0x9464, symBinAddr: 0x20C0C, symSize: 0x50 }
  - { offset: 0xD92A3, size: 0x8, addend: 0x0, symName: __ZN18llama_io_read_file4readEm, symObjAddr: 0x94B4, symBinAddr: 0x20C5C, symSize: 0x114 }
  - { offset: 0xD97B4, size: 0x8, addend: 0x0, symName: __ZN18llama_io_read_file7read_toEPvm, symObjAddr: 0x95C8, symBinAddr: 0x20D70, symSize: 0x34 }
  - { offset: 0xD97BF, size: 0x8, addend: 0x0, symName: __ZN18llama_io_read_file7read_toEPvm, symObjAddr: 0x95C8, symBinAddr: 0x20D70, symSize: 0x34 }
  - { offset: 0xD9806, size: 0x8, addend: 0x0, symName: __ZN18llama_io_read_file7n_bytesEv, symObjAddr: 0x95FC, symBinAddr: 0x20DA4, symSize: 0x8 }
  - { offset: 0xD982D, size: 0x8, addend: 0x0, symName: __ZN19llama_io_write_fileD0Ev, symObjAddr: 0x9604, symBinAddr: 0x20DAC, symSize: 0x50 }
  - { offset: 0xD985D, size: 0x8, addend: 0x0, symName: __ZN19llama_io_write_fileD0Ev, symObjAddr: 0x9604, symBinAddr: 0x20DAC, symSize: 0x50 }
  - { offset: 0xD987B, size: 0x8, addend: 0x0, symName: __ZN19llama_io_write_fileD0Ev, symObjAddr: 0x9604, symBinAddr: 0x20DAC, symSize: 0x50 }
  - { offset: 0xD9A31, size: 0x8, addend: 0x0, symName: __ZN19llama_io_write_file5writeEPKvm, symObjAddr: 0x9654, symBinAddr: 0x20DFC, symSize: 0x34 }
  - { offset: 0xD9A78, size: 0x8, addend: 0x0, symName: __ZN19llama_io_write_file12write_tensorEPK11ggml_tensormm, symObjAddr: 0x9688, symBinAddr: 0x20E30, symSize: 0x13C }
  - { offset: 0xD9FD7, size: 0x8, addend: 0x0, symName: __ZNSt3__16__treeINS_12__value_typeIiNS_6vectorIfNS_9allocatorIfEEEEEENS_19__map_value_compareIiS6_NS_4lessIiEELb1EEENS3_IS6_EEE7destroyEPNS_11__tree_nodeIS6_PvEE, symObjAddr: 0x97C4, symBinAddr: 0x20F6C, symSize: 0x5C }
  - { offset: 0xDA19C, size: 0x8, addend: 0x0, symName: __ZN16llm_graph_resultD1Ev, symObjAddr: 0x9884, symBinAddr: 0x21004, symSize: 0x8C }
  - { offset: 0xDA472, size: 0x8, addend: 0x0, symName: __ZN16llm_graph_resultD0Ev, symObjAddr: 0x9910, symBinAddr: 0x21090, symSize: 0x90 }
  - { offset: 0xDA754, size: 0x8, addend: 0x0, symName: __ZN16llm_graph_result10get_logitsEv, symObjAddr: 0x99A0, symBinAddr: 0x21120, symSize: 0x8 }
  - { offset: 0xDA77B, size: 0x8, addend: 0x0, symName: __ZN16llm_graph_result8get_embdEv, symObjAddr: 0x99A8, symBinAddr: 0x21128, symSize: 0x8 }
  - { offset: 0xDA7A2, size: 0x8, addend: 0x0, symName: __ZN16llm_graph_result15get_embd_pooledEv, symObjAddr: 0x99B0, symBinAddr: 0x21130, symSize: 0x8 }
  - { offset: 0xDA7F7, size: 0x8, addend: 0x0, symName: __ZN16llm_graph_result10set_inputsEPK12llama_ubatch, symObjAddr: 0x99B8, symBinAddr: 0x21138, symSize: 0x4C }
  - { offset: 0xDAEE8, size: 0x8, addend: 0x0, symName: __ZNSt3__112__hash_tableINS_17__hash_value_typeIP18llama_adapter_lorafEENS_22__unordered_map_hasherIS3_S4_NS_4hashIS3_EENS_8equal_toIS3_EELb1EEENS_21__unordered_map_equalIS3_S4_S9_S7_Lb1EEENS_9allocatorIS4_EEE11__do_rehashILb1EEEvm, symObjAddr: 0x9D9C, symBinAddr: 0x2151C, symSize: 0x1DC }
  - { offset: 0xDB38E, size: 0x8, addend: 0x0, symName: __ZNSt3__112__hash_tableINS_17__hash_value_typeIP18llama_adapter_lorafEENS_22__unordered_map_hasherIS3_S4_NS_4hashIS3_EENS_8equal_toIS3_EELb1EEENS_21__unordered_map_equalIS3_S4_S9_S7_Lb1EEENS_9allocatorIS4_EEE4findIS3_EENS_15__hash_iteratorIPNS_11__hash_nodeIS4_PvEEEERKT_, symObjAddr: 0x9F78, symBinAddr: 0x216F8, symSize: 0x110 }
  - { offset: 0xDB862, size: 0x8, addend: 0x0, symName: __ZNSt3__16vectorINS_3setIiNS_4lessIiEENS_9allocatorIiEEEENS4_IS6_EEE8__appendEm, symObjAddr: 0xA4AC, symBinAddr: 0x2193C, symSize: 0x22C }
  - { offset: 0xDBDA6, size: 0x8, addend: 0x0, symName: __ZNKSt3__16vectorINS_3setIiNS_4lessIiEENS_9allocatorIiEEEENS4_IS6_EEE20__throw_length_errorB8ne190107Ev, symObjAddr: 0xA6D8, symBinAddr: 0x21B68, symSize: 0x14 }
  - { offset: 0xDC078, size: 0x8, addend: 0x0, symName: '__ZNSt3__110__function6__funcIZNK13llama_context12graph_get_cbEvE3$_0NS_9allocatorIS3_EEFvRK12llama_ubatchP11ggml_tensorPKciEED1Ev', symObjAddr: 0xA828, symBinAddr: 0x21B7C, symSize: 0x4 }
  - { offset: 0xDC083, size: 0x8, addend: 0x0, symName: '__ZNSt3__110__function6__funcIZNK13llama_context12graph_get_cbEvE3$_0NS_9allocatorIS3_EEFvRK12llama_ubatchP11ggml_tensorPKciEED1Ev', symObjAddr: 0xA828, symBinAddr: 0x21B7C, symSize: 0x4 }
  - { offset: 0xDC0AE, size: 0x8, addend: 0x0, symName: '__ZNSt3__110__function6__funcIZNK13llama_context12graph_get_cbEvE3$_0NS_9allocatorIS3_EEFvRK12llama_ubatchP11ggml_tensorPKciEED0Ev', symObjAddr: 0xA82C, symBinAddr: 0x21B80, symSize: 0x8 }
  - { offset: 0xDC163, size: 0x8, addend: 0x0, symName: '__ZNKSt3__110__function6__funcIZNK13llama_context12graph_get_cbEvE3$_0NS_9allocatorIS3_EEFvRK12llama_ubatchP11ggml_tensorPKciEE7__cloneEv', symObjAddr: 0xA834, symBinAddr: 0x21B88, symSize: 0x34 }
  - { offset: 0xDC2AD, size: 0x8, addend: 0x0, symName: '__ZNKSt3__110__function6__funcIZNK13llama_context12graph_get_cbEvE3$_0NS_9allocatorIS3_EEFvRK12llama_ubatchP11ggml_tensorPKciEE7__cloneEPNS0_6__baseISD_EE', symObjAddr: 0xA868, symBinAddr: 0x21BBC, symSize: 0x14 }
  - { offset: 0xDC31A, size: 0x8, addend: 0x0, symName: '__ZNSt3__110__function6__funcIZNK13llama_context12graph_get_cbEvE3$_0NS_9allocatorIS3_EEFvRK12llama_ubatchP11ggml_tensorPKciEE7destroyEv', symObjAddr: 0xA87C, symBinAddr: 0x21BD0, symSize: 0x4 }
  - { offset: 0xDC369, size: 0x8, addend: 0x0, symName: '__ZNSt3__110__function6__funcIZNK13llama_context12graph_get_cbEvE3$_0NS_9allocatorIS3_EEFvRK12llama_ubatchP11ggml_tensorPKciEE18destroy_deallocateEv', symObjAddr: 0xA880, symBinAddr: 0x21BD4, symSize: 0x8 }
  - { offset: 0xDC39C, size: 0x8, addend: 0x0, symName: '__ZNSt3__110__function6__funcIZNK13llama_context12graph_get_cbEvE3$_0NS_9allocatorIS3_EEFvRK12llama_ubatchP11ggml_tensorPKciEE18destroy_deallocateEv', symObjAddr: 0xA880, symBinAddr: 0x21BD4, symSize: 0x8 }
  - { offset: 0xDC3BF, size: 0x8, addend: 0x0, symName: '__ZNSt3__110__function6__funcIZNK13llama_context12graph_get_cbEvE3$_0NS_9allocatorIS3_EEFvRK12llama_ubatchP11ggml_tensorPKciEE18destroy_deallocateEv', symObjAddr: 0xA880, symBinAddr: 0x21BD4, symSize: 0x8 }
  - { offset: 0xDC3E8, size: 0x8, addend: 0x0, symName: '__ZNSt3__110__function6__funcIZNK13llama_context12graph_get_cbEvE3$_0NS_9allocatorIS3_EEFvRK12llama_ubatchP11ggml_tensorPKciEE18destroy_deallocateEv', symObjAddr: 0xA880, symBinAddr: 0x21BD4, symSize: 0x8 }
  - { offset: 0xDC40B, size: 0x8, addend: 0x0, symName: '__ZNSt3__110__function6__funcIZNK13llama_context12graph_get_cbEvE3$_0NS_9allocatorIS3_EEFvRK12llama_ubatchP11ggml_tensorPKciEE18destroy_deallocateEv', symObjAddr: 0xA880, symBinAddr: 0x21BD4, symSize: 0x8 }
  - { offset: 0xDC57D, size: 0x8, addend: 0x0, symName: '__ZNSt3__110__function6__funcIZNK13llama_context12graph_get_cbEvE3$_0NS_9allocatorIS3_EEFvRK12llama_ubatchP11ggml_tensorPKciEEclES8_OSA_OSC_Oi', symObjAddr: 0xA888, symBinAddr: 0x21BDC, symSize: 0x158 }
  - { offset: 0xDC8B0, size: 0x8, addend: 0x0, symName: '__ZNKSt3__110__function6__funcIZNK13llama_context12graph_get_cbEvE3$_0NS_9allocatorIS3_EEFvRK12llama_ubatchP11ggml_tensorPKciEE6targetERKSt9type_info', symObjAddr: 0xA9E0, symBinAddr: 0x21D34, symSize: 0x64 }
  - { offset: 0xDC964, size: 0x8, addend: 0x0, symName: '__ZNKSt3__110__function6__funcIZNK13llama_context12graph_get_cbEvE3$_0NS_9allocatorIS3_EEFvRK12llama_ubatchP11ggml_tensorPKciEE11target_typeEv', symObjAddr: 0xAA44, symBinAddr: 0x21D98, symSize: 0xC }
  - { offset: 0xDE9BB, size: 0x8, addend: 0x0, symName: __ZN20llama_grammar_parser13get_symbol_idEPKcm, symObjAddr: 0x0, symBinAddr: 0x21DA4, symSize: 0x118 }
  - { offset: 0x106F7D, size: 0x8, addend: 0x0, symName: __ZNSt3__135__uninitialized_allocator_copy_implB8ne190107INS_9allocatorINS_6vectorI21llama_grammar_elementNS1_IS3_EEEEEEPS5_S7_S7_EET2_RT_T0_T1_S8_, symObjAddr: 0x12C74, symBinAddr: 0x345E4, symSize: 0x104 }
  - { offset: 0x107558, size: 0x8, addend: 0x0, symName: __ZNSt3__135__uninitialized_allocator_copy_implB8ne190107INS_9allocatorINS_6vectorIPK21llama_grammar_elementNS1_IS5_EEEEEEPS7_S9_S9_EET2_RT_T0_T1_SA_, symObjAddr: 0x12E84, symBinAddr: 0x347F4, symSize: 0x104 }
  - { offset: 0x10828A, size: 0x8, addend: 0x0, symName: __ZNSt3__111regex_matchB8ne190107INS_11__wrap_iterIPKcEENS_9allocatorINS_9sub_matchIS4_EEEEcNS_12regex_traitsIcEEEEbT_SB_RNS_13match_resultsISB_T0_EERKNS_11basic_regexIT1_T2_EENS_15regex_constants15match_flag_typeE, symObjAddr: 0x1311C, symBinAddr: 0x34A8C, symSize: 0x130 }
  - { offset: 0x108FC3, size: 0x8, addend: 0x0, symName: __ZNSt3__134__uninitialized_allocator_relocateB8ne190107INS_9allocatorI29llama_grammar_trigger_patternEES2_EEvRT_PT0_S7_S7_, symObjAddr: 0x9C64, symBinAddr: 0x2B674, symSize: 0x108 }
  - { offset: 0x10901E, size: 0x8, addend: 0x0, symName: __ZNSt3__134__uninitialized_allocator_relocateB8ne190107INS_9allocatorI29llama_grammar_trigger_patternEES2_EEvRT_PT0_S7_S7_, symObjAddr: 0x9C64, symBinAddr: 0x2B674, symSize: 0x108 }
  - { offset: 0x1094F3, size: 0x8, addend: 0x0, symName: __ZNSt3__119__throw_regex_errorB8ne190107ILNS_15regex_constants10error_typeE17EEEvv, symObjAddr: 0xA1AC, symBinAddr: 0x2BBBC, symSize: 0x4C }
  - { offset: 0x10A237, size: 0x8, addend: 0x0, symName: __ZNSt3__119__throw_regex_errorB8ne190107ILNS_15regex_constants10error_typeE14EEEvv, symObjAddr: 0xAAC8, symBinAddr: 0x2C4D8, symSize: 0x4C }
  - { offset: 0x10A520, size: 0x8, addend: 0x0, symName: __ZNSt3__119__throw_regex_errorB8ne190107ILNS_15regex_constants10error_typeE15EEEvv, symObjAddr: 0x12038, symBinAddr: 0x33A34, symSize: 0x4C }
  - { offset: 0x10A8C3, size: 0x8, addend: 0x0, symName: __ZNSt3__119__throw_regex_errorB8ne190107ILNS_15regex_constants10error_typeE6EEEvv, symObjAddr: 0xB7A0, symBinAddr: 0x2D1B0, symSize: 0x4C }
  - { offset: 0x10AA72, size: 0x8, addend: 0x0, symName: __ZNSt3__119__throw_regex_errorB8ne190107ILNS_15regex_constants10error_typeE11EEEvv, symObjAddr: 0xD110, symBinAddr: 0x2EB20, symSize: 0x4C }
  - { offset: 0x10AAB6, size: 0x8, addend: 0x0, symName: __ZNSt3__119__throw_regex_errorB8ne190107ILNS_15regex_constants10error_typeE8EEEvv, symObjAddr: 0x11A18, symBinAddr: 0x33414, symSize: 0x4C }
  - { offset: 0x10AADC, size: 0x8, addend: 0x0, symName: __ZNSt3__119__throw_regex_errorB8ne190107ILNS_15regex_constants10error_typeE7EEEvv, symObjAddr: 0x11A64, symBinAddr: 0x33460, symSize: 0x4C }
  - { offset: 0x10AEF5, size: 0x8, addend: 0x0, symName: __ZNSt3__119__throw_regex_errorB8ne190107ILNS_15regex_constants10error_typeE12EEEvv, symObjAddr: 0xC544, symBinAddr: 0x2DF54, symSize: 0x4C }
  - { offset: 0x10AF1B, size: 0x8, addend: 0x0, symName: __ZNSt3__119__throw_regex_errorB8ne190107ILNS_15regex_constants10error_typeE16EEEvv, symObjAddr: 0xC590, symBinAddr: 0x2DFA0, symSize: 0x4C }
  - { offset: 0x10B78D, size: 0x8, addend: 0x0, symName: __ZNSt3__119__throw_regex_errorB8ne190107ILNS_15regex_constants10error_typeE4EEEvv, symObjAddr: 0xDA58, symBinAddr: 0x2F468, symSize: 0x4C }
  - { offset: 0x10B7B3, size: 0x8, addend: 0x0, symName: __ZNSt3__119__throw_regex_errorB8ne190107ILNS_15regex_constants10error_typeE3EEEvv, symObjAddr: 0xD26C, symBinAddr: 0x2EC7C, symSize: 0x4C }
  - { offset: 0x10B7D9, size: 0x8, addend: 0x0, symName: __ZNSt3__119__throw_regex_errorB8ne190107ILNS_15regex_constants10error_typeE5EEEvv, symObjAddr: 0xF734, symBinAddr: 0x31130, symSize: 0x4C }
  - { offset: 0x10C2E6, size: 0x8, addend: 0x0, symName: __ZNSt3__119__throw_regex_errorB8ne190107ILNS_15regex_constants10error_typeE1EEEvv, symObjAddr: 0x10AF8, symBinAddr: 0x324F4, symSize: 0x4C }
  - { offset: 0x10C30C, size: 0x8, addend: 0x0, symName: __ZNSt3__119__throw_regex_errorB8ne190107ILNS_15regex_constants10error_typeE2EEEvv, symObjAddr: 0x11124, symBinAddr: 0x32B20, symSize: 0x4C }
  - { offset: 0x10C36E, size: 0x8, addend: 0x0, symName: __ZNSt3__119__throw_regex_errorB8ne190107ILNS_15regex_constants10error_typeE9EEEvv, symObjAddr: 0x11700, symBinAddr: 0x330FC, symSize: 0x4C }
  - { offset: 0x10F126, size: 0x8, addend: 0x0, symName: __ZL11decode_utf8RKNSt3__112basic_stringIcNS_11char_traitsIcEENS_9allocatorIcEEEE18llama_partial_utf8, symObjAddr: 0x79C0, symBinAddr: 0x296BC, symSize: 0x504 }
  - { offset: 0x10F150, size: 0x8, addend: 0x0, symName: __ZZL11decode_utf8RKNSt3__112basic_stringIcNS_11char_traitsIcEENS_9allocatorIcEEEE18llama_partial_utf8E6lookup, symObjAddr: 0x1705C, symBinAddr: 0x1BF3B0, symSize: 0x0 }
  - { offset: 0x113986, size: 0x8, addend: 0x0, symName: __ZN20llama_grammar_parser13get_symbol_idEPKcm, symObjAddr: 0x0, symBinAddr: 0x21DA4, symSize: 0x118 }
  - { offset: 0x113F03, size: 0x8, addend: 0x0, symName: __ZNSt3__16__treeINS_12__value_typeINS_12basic_stringIcNS_11char_traitsIcEENS_9allocatorIcEEEEjEENS_19__map_value_compareIS7_S8_NS_4lessIS7_EELb1EEENS5_IS8_EEE25__emplace_unique_key_argsIS7_JS7_RjEEENS_4pairINS_15__tree_iteratorIS8_PNS_11__tree_nodeIS8_PvEElEEbEERKT_DpOT0_, symObjAddr: 0x9070, symBinAddr: 0x2AC48, symSize: 0x184 }
  - { offset: 0x114506, size: 0x8, addend: 0x0, symName: __ZNSt3__16__treeINS_12__value_typeINS_12basic_stringIcNS_11char_traitsIcEENS_9allocatorIcEEEEjEENS_19__map_value_compareIS7_S8_NS_4lessIS7_EELb1EEENS5_IS8_EEE25__emplace_unique_key_argsIS7_JS7_RjEEENS_4pairINS_15__tree_iteratorIS8_PNS_11__tree_nodeIS8_PvEElEEbEERKT_DpOT0_, symObjAddr: 0x9070, symBinAddr: 0x2AC48, symSize: 0x184 }
  - { offset: 0x1146BE, size: 0x8, addend: 0x0, symName: __ZN20llama_grammar_parser18generate_symbol_idERKNSt3__112basic_stringIcNS0_11char_traitsIcEENS0_9allocatorIcEEEE, symObjAddr: 0x118, symBinAddr: 0x21EBC, symSize: 0x234 }
  - { offset: 0x1152C0, size: 0x8, addend: 0x0, symName: __ZNSt3__16__treeINS_12__value_typeINS_12basic_stringIcNS_11char_traitsIcEENS_9allocatorIcEEEEjEENS_19__map_value_compareIS7_S8_NS_4lessIS7_EELb1EEENS5_IS8_EEE25__emplace_unique_key_argsIS7_JRKNS_21piecewise_construct_tENS_5tupleIJOS7_EEENSJ_IJEEEEEENS_4pairINS_15__tree_iteratorIS8_PNS_11__tree_nodeIS8_PvEElEEbEERKT_DpOT0_, symObjAddr: 0x93A8, symBinAddr: 0x2ADCC, symSize: 0x178 }
  - { offset: 0x115B42, size: 0x8, addend: 0x0, symName: __ZN20llama_grammar_parser8add_ruleEjRKNSt3__16vectorI21llama_grammar_elementNS0_9allocatorIS2_EEEE, symObjAddr: 0x34C, symBinAddr: 0x220F0, symSize: 0xEC }
  - { offset: 0x115EAC, size: 0x8, addend: 0x0, symName: __ZNSt3__16vectorINS0_I21llama_grammar_elementNS_9allocatorIS1_EEEENS2_IS4_EEE8__appendEm, symObjAddr: 0x9520, symBinAddr: 0x2AF44, symSize: 0x188 }
  - { offset: 0x11633F, size: 0x8, addend: 0x0, symName: __ZNKSt3__16vectorINS0_I21llama_grammar_elementNS_9allocatorIS1_EEEENS2_IS4_EEE20__throw_length_errorB8ne190107Ev, symObjAddr: 0x96A8, symBinAddr: 0x2B0CC, symSize: 0x14 }
  - { offset: 0x11634A, size: 0x8, addend: 0x0, symName: __ZNSt3__16vectorI21llama_grammar_elementNS_9allocatorIS1_EEE18__assign_with_sizeB8ne190107IPS1_S6_EEvT_T0_l, symObjAddr: 0x96BC, symBinAddr: 0x2B0E0, symSize: 0x150 }
  - { offset: 0x116D93, size: 0x8, addend: 0x0, symName: __ZNSt3__16__treeINS_12__value_typeIjNS_12basic_stringIcNS_11char_traitsIcEENS_9allocatorIcEEEEEENS_19__map_value_compareIjS8_NS_4lessIjEELb1EEENS5_IS8_EEE7destroyEPNS_11__tree_nodeIS8_PvEE, symObjAddr: 0x980C, symBinAddr: 0x2B230, symSize: 0x70 }
  - { offset: 0x117111, size: 0x8, addend: 0x0, symName: __ZN20llama_grammar_parser16parse_alternatesEPKcRKNSt3__112basic_stringIcNS2_11char_traitsIcEENS2_9allocatorIcEEEEjb, symObjAddr: 0x438, symBinAddr: 0x221DC, symSize: 0x384 }
  - { offset: 0x1180BF, size: 0x8, addend: 0x0, symName: __ZN20llama_grammar_parser14parse_sequenceEPKcRKNSt3__112basic_stringIcNS2_11char_traitsIcEENS2_9allocatorIcEEEERNS2_6vectorI21llama_grammar_elementNS6_ISC_EEEEb, symObjAddr: 0x7BC, symBinAddr: 0x22560, symSize: 0x16E4 }
  - { offset: 0x11ACB3, size: 0x8, addend: 0x0, symName: __ZNKSt3__16vectorI21llama_grammar_elementNS_9allocatorIS1_EEE20__throw_length_errorB8ne190107Ev, symObjAddr: 0x86EC, symBinAddr: 0x2A3E8, symSize: 0x14 }
  - { offset: 0x11AD22, size: 0x8, addend: 0x0, symName: __ZL10parse_namePKc, symObjAddr: 0x2124, symBinAddr: 0x23EC8, symSize: 0x144 }
  - { offset: 0x11B078, size: 0x8, addend: 0x0, symName: __ZL10parse_charPKc, symObjAddr: 0x1EA0, symBinAddr: 0x23C44, symSize: 0x284 }
  - { offset: 0x11B422, size: 0x8, addend: 0x0, symName: __ZL9parse_intPKc, symObjAddr: 0x2AAC, symBinAddr: 0x247A8, symSize: 0x12C }
  - { offset: 0x11B791, size: 0x8, addend: 0x0, symName: '__ZZN20llama_grammar_parser14parse_sequenceEPKcRKNSt3__112basic_stringIcNS2_11char_traitsIcEENS2_9allocatorIcEEEERNS2_6vectorI21llama_grammar_elementNS6_ISC_EEEEbENK3$_0clEii', symObjAddr: 0x2310, symBinAddr: 0x2400C, symSize: 0x79C }
  - { offset: 0x11DC4A, size: 0x8, addend: 0x0, symName: '__ZZN20llama_grammar_parser14parse_sequenceEPKcRKNSt3__112basic_stringIcNS2_11char_traitsIcEENS2_9allocatorIcEEEERNS2_6vectorI21llama_grammar_elementNS6_ISC_EEEEbENK3$_0clEii', symObjAddr: 0x2310, symBinAddr: 0x2400C, symSize: 0x79C }
  - { offset: 0x11DCDE, size: 0x8, addend: 0x0, symName: __ZL9parse_hexPKci, symObjAddr: 0x8490, symBinAddr: 0x2A18C, symSize: 0x25C }
  - { offset: 0x11E83A, size: 0x8, addend: 0x0, symName: __ZNSt3__16vectorI21llama_grammar_elementNS_9allocatorIS1_EEE18__insert_with_sizeB8ne190107INS_11__wrap_iterIPS1_EES8_EES8_NS6_IPKS1_EET_T0_l, symObjAddr: 0x88C4, symBinAddr: 0x2A524, symSize: 0x2E8 }
  - { offset: 0x11F24C, size: 0x8, addend: 0x0, symName: __ZNSt3__16vectorI21llama_grammar_elementNS_9allocatorIS1_EEE8__appendEm, symObjAddr: 0x879C, symBinAddr: 0x2A3FC, symSize: 0x128 }
  - { offset: 0x11F672, size: 0x8, addend: 0x0, symName: __ZNSt3__16vectorI21llama_grammar_elementNS_9allocatorIS1_EEE18__insert_with_sizeB8ne190107INS_11__wrap_iterIPS1_EES8_EES8_NS6_IPKS1_EET_T0_l, symObjAddr: 0x88C4, symBinAddr: 0x2A524, symSize: 0x2E8 }
  - { offset: 0x11F67D, size: 0x8, addend: 0x0, symName: __ZN20llama_grammar_parser10parse_ruleEPKc, symObjAddr: 0x2BD8, symBinAddr: 0x248D4, symSize: 0x464 }
  - { offset: 0x1203B2, size: 0x8, addend: 0x0, symName: __ZN20llama_grammar_parser5parseEPKc, symObjAddr: 0x303C, symBinAddr: 0x24D38, symSize: 0x390 }
  - { offset: 0x121479, size: 0x8, addend: 0x0, symName: __ZN20llama_grammar_parser5printEP7__sFILE, symObjAddr: 0x33CC, symBinAddr: 0x250C8, symSize: 0x9C8 }
  - { offset: 0x122F34, size: 0x8, addend: 0x0, symName: __ZNSt3__16__treeINS_12__value_typeIjNS_12basic_stringIcNS_11char_traitsIcEENS_9allocatorIcEEEEEENS_19__map_value_compareIjS8_NS_4lessIjEELb1EEENS5_IS8_EEE7destroyEPNS_11__tree_nodeIS8_PvEE, symObjAddr: 0x980C, symBinAddr: 0x2B230, symSize: 0x70 }
  - { offset: 0x12363C, size: 0x8, addend: 0x0, symName: __ZNK20llama_grammar_parser7c_rulesEv, symObjAddr: 0x3D94, symBinAddr: 0x25A90, symSize: 0x18C }
  - { offset: 0x123E07, size: 0x8, addend: 0x0, symName: __ZNKSt3__16vectorIPK21llama_grammar_elementNS_9allocatorIS3_EEE20__throw_length_errorB8ne190107Ev, symObjAddr: 0x8DB0, symBinAddr: 0x2A99C, symSize: 0x14 }
  - { offset: 0x123E31, size: 0x8, addend: 0x0, symName: __ZNSt3__114__split_bufferINS_6vectorIPK21llama_grammar_elementNS_9allocatorIS4_EEEERNS5_IS7_EEED1Ev, symObjAddr: 0x8DC4, symBinAddr: 0x2A9B0, symSize: 0x7C }
  - { offset: 0x123E3C, size: 0x8, addend: 0x0, symName: __Z23llama_grammar_get_rulesPK13llama_grammar, symObjAddr: 0x3F20, symBinAddr: 0x25C1C, symSize: 0x8 }
  - { offset: 0x123E6C, size: 0x8, addend: 0x0, symName: __Z24llama_grammar_get_stacksP13llama_grammar, symObjAddr: 0x3F28, symBinAddr: 0x25C24, symSize: 0x8 }
  - { offset: 0x1245AD, size: 0x8, addend: 0x0, symName: __Z20llama_grammar_acceptP13llama_grammarj, symObjAddr: 0x3F30, symBinAddr: 0x25C2C, symSize: 0x3F4 }
  - { offset: 0x1255C3, size: 0x8, addend: 0x0, symName: __ZL27llama_grammar_advance_stackRKNSt3__16vectorINS0_I21llama_grammar_elementNS_9allocatorIS1_EEEENS2_IS4_EEEERKNS0_IPKS1_NS2_ISA_EEEERNS0_ISC_NS2_ISC_EEEE, symObjAddr: 0x4324, symBinAddr: 0x26020, symSize: 0x468 }
  - { offset: 0x126CAD, size: 0x8, addend: 0x0, symName: __ZNKSt3__16vectorINS0_IPK21llama_grammar_elementNS_9allocatorIS3_EEEENS4_IS6_EEE20__throw_length_errorB8ne190107Ev, symObjAddr: 0x8E40, symBinAddr: 0x2AA2C, symSize: 0x14 }
  - { offset: 0x126CD7, size: 0x8, addend: 0x0, symName: __ZNSt3__110shared_ptrINS_13__empty_stateIcEEED1B8ne190107Ev, symObjAddr: 0x8E54, symBinAddr: 0x2AA40, symSize: 0x5C }
  - { offset: 0x126CE2, size: 0x8, addend: 0x0, symName: __ZNSt3__16vectorINS0_IPK21llama_grammar_elementNS_9allocatorIS3_EEEENS4_IS6_EEED1B8ne190107Ev, symObjAddr: 0x478C, symBinAddr: 0x26488, symSize: 0x84 }
  - { offset: 0x1273BF, size: 0x8, addend: 0x0, symName: __ZNSt3__16vectorINS0_IPK21llama_grammar_elementNS_9allocatorIS3_EEEENS4_IS6_EEE24__emplace_back_slow_pathIJRKS6_EEEPS6_DpOT_, symObjAddr: 0x8C20, symBinAddr: 0x2A80C, symSize: 0x190 }
  - { offset: 0x1282F9, size: 0x8, addend: 0x0, symName: __Z41llama_grammar_reject_candidates_for_stackRKNSt3__16vectorINS0_I21llama_grammar_elementNS_9allocatorIS1_EEEENS2_IS4_EEEERKNS0_IPKS1_NS2_ISA_EEEERKNS0_I23llama_grammar_candidateNS2_ISF_EEEE, symObjAddr: 0x4810, symBinAddr: 0x2650C, symSize: 0xD3C }
  - { offset: 0x12AED0, size: 0x8, addend: 0x0, symName: __ZL31llama_grammar_reject_candidatesRKNSt3__16vectorINS0_I21llama_grammar_elementNS_9allocatorIS1_EEEENS2_IS4_EEEERKNS0_INS0_IPKS1_NS2_ISA_EEEENS2_ISC_EEEERKNS0_I23llama_grammar_candidateNS2_ISH_EEEE, symObjAddr: 0x554C, symBinAddr: 0x27248, symSize: 0x130 }
  - { offset: 0x12B380, size: 0x8, addend: 0x0, symName: __ZNKSt3__16vectorI23llama_grammar_candidateNS_9allocatorIS1_EEE20__throw_length_errorB8ne190107Ev, symObjAddr: 0x987C, symBinAddr: 0x2B2A0, symSize: 0x14 }
  - { offset: 0x12B3AA, size: 0x8, addend: 0x0, symName: __ZNSt3__128__exception_guard_exceptionsINS_6vectorINS1_I21llama_grammar_elementNS_9allocatorIS2_EEEENS3_IS5_EEE16__destroy_vectorEED1B8ne190107Ev, symObjAddr: 0x9890, symBinAddr: 0x2B2B4, symSize: 0x98 }
  - { offset: 0x12BB57, size: 0x8, addend: 0x0, symName: __Z23llama_grammar_init_implPK11llama_vocabPPK21llama_grammar_elementmm, symObjAddr: 0x567C, symBinAddr: 0x27378, symSize: 0x6E8 }
  - { offset: 0x12DF40, size: 0x8, addend: 0x0, symName: __ZL35llama_grammar_detect_left_recursionRKNSt3__16vectorINS0_I21llama_grammar_elementNS_9allocatorIS1_EEEENS2_IS4_EEEEmPNS0_IbNS2_IbEEEESB_SB_, symObjAddr: 0x5D64, symBinAddr: 0x27A60, symSize: 0x198 }
  - { offset: 0x12E2A9, size: 0x8, addend: 0x0, symName: __ZNKSt3__16vectorINS0_I21llama_grammar_elementNS_9allocatorIS1_EEEENS2_IS4_EEE20__throw_length_errorB8ne190107Ev, symObjAddr: 0x96A8, symBinAddr: 0x2B0CC, symSize: 0x14 }
  - { offset: 0x12E2D3, size: 0x8, addend: 0x0, symName: __ZNSt3__16vectorI21llama_grammar_elementNS_9allocatorIS1_EEE18__assign_with_sizeB8ne190107IPS1_S6_EEvT_T0_l, symObjAddr: 0x96BC, symBinAddr: 0x2B0E0, symSize: 0x150 }
  - { offset: 0x12E2DE, size: 0x8, addend: 0x0, symName: __ZNSt3__16vectorINS0_I21llama_grammar_elementNS_9allocatorIS1_EEEENS2_IS4_EEED1B8ne190107Ev, symObjAddr: 0x5EFC, symBinAddr: 0x27BF8, symSize: 0x84 }
  - { offset: 0x12E61D, size: 0x8, addend: 0x0, symName: __ZNSt3__128__exception_guard_exceptionsINS_6vectorINS1_I21llama_grammar_elementNS_9allocatorIS2_EEEENS3_IS5_EEE16__destroy_vectorEED1B8ne190107Ev, symObjAddr: 0x9890, symBinAddr: 0x2B2B4, symSize: 0x98 }
  - { offset: 0x12F80E, size: 0x8, addend: 0x0, symName: __Z23llama_grammar_init_implPK11llama_vocabPKcS3_bPS3_mPKim, symObjAddr: 0x5F80, symBinAddr: 0x27C7C, symSize: 0xF04 }
  - { offset: 0x134570, size: 0x8, addend: 0x0, symName: __ZNSt3__16__treeINS_12__value_typeINS_12basic_stringIcNS_11char_traitsIcEENS_9allocatorIcEEEEjEENS_19__map_value_compareIS7_S8_NS_4lessIS7_EELb1EEENS5_IS8_EEE7destroyEPNS_11__tree_nodeIS8_PvEE, symObjAddr: 0x8EB0, symBinAddr: 0x2AA9C, symSize: 0x70 }
  - { offset: 0x134812, size: 0x8, addend: 0x0, symName: __ZNSt3__16vectorI29llama_grammar_trigger_patternNS_9allocatorIS1_EEE24__emplace_back_slow_pathIJEEEPS1_DpOT_, symObjAddr: 0x9A20, symBinAddr: 0x2B430, symSize: 0x1C4 }
  - { offset: 0x134EBF, size: 0x8, addend: 0x0, symName: __ZNSt3__111basic_regexIcNS_12regex_traitsIcEEEC2B8ne190107INS_11char_traitsIcEENS_9allocatorIcEEEERKNS_12basic_stringIcT_T0_EENS_15regex_constants18syntax_option_typeE, symObjAddr: 0x9EF0, symBinAddr: 0x2B900, symSize: 0xD4 }
  - { offset: 0x13509D, size: 0x8, addend: 0x0, symName: __ZNSt3__16vectorI29llama_grammar_trigger_patternNS_9allocatorIS1_EEE16__destroy_vectorclB8ne190107Ev, symObjAddr: 0x9928, symBinAddr: 0x2B34C, symSize: 0xE4 }
  - { offset: 0x135474, size: 0x8, addend: 0x0, symName: __ZNSt3__16vectorI29llama_grammar_trigger_patternNS_9allocatorIS1_EEE24__emplace_back_slow_pathIJEEEPS1_DpOT_, symObjAddr: 0x9A20, symBinAddr: 0x2B430, symSize: 0x1C4 }
  - { offset: 0x13547F, size: 0x8, addend: 0x0, symName: __ZN20llama_grammar_parserD1Ev, symObjAddr: 0x6EE0, symBinAddr: 0x28BDC, symSize: 0x90 }
  - { offset: 0x1358A4, size: 0x8, addend: 0x0, symName: __ZNSt3__111basic_regexIcNS_12regex_traitsIcEEED1Ev, symObjAddr: 0x6E84, symBinAddr: 0x28B80, symSize: 0x5C }
  - { offset: 0x136038, size: 0x8, addend: 0x0, symName: __Z23llama_grammar_free_implP13llama_grammar, symObjAddr: 0x6F70, symBinAddr: 0x28C6C, symSize: 0x20 }
  - { offset: 0x13608D, size: 0x8, addend: 0x0, symName: __ZN13llama_grammarD2Ev, symObjAddr: 0x8F20, symBinAddr: 0x2AB0C, symSize: 0x128 }
  - { offset: 0x1371AF, size: 0x8, addend: 0x0, symName: __Z24llama_grammar_clone_implRK13llama_grammar, symObjAddr: 0x6F90, symBinAddr: 0x28C8C, symSize: 0x448 }
  - { offset: 0x138170, size: 0x8, addend: 0x0, symName: __ZNSt3__135__uninitialized_allocator_copy_implB8ne190107INS_9allocatorINS_6vectorI21llama_grammar_elementNS1_IS3_EEEEEEPS5_S7_S7_EET2_RT_T0_T1_S8_, symObjAddr: 0x12C74, symBinAddr: 0x345E4, symSize: 0x104 }
  - { offset: 0x138181, size: 0x8, addend: 0x0, symName: __ZNSt3__16vectorI29llama_grammar_trigger_patternNS_9allocatorIS1_EEE18__construct_at_endIPS1_S6_EEvT_T0_m, symObjAddr: 0x12FFC, symBinAddr: 0x3496C, symSize: 0x10C }
  - { offset: 0x1385A1, size: 0x8, addend: 0x0, symName: __ZNKSt3__16vectorI29llama_grammar_trigger_patternNS_9allocatorIS1_EEE20__throw_length_errorB8ne190107Ev, symObjAddr: 0x9C50, symBinAddr: 0x2B660, symSize: 0x14 }
  - { offset: 0x1385CB, size: 0x8, addend: 0x0, symName: __ZNSt3__134__uninitialized_allocator_relocateB8ne190107INS_9allocatorI29llama_grammar_trigger_patternEES2_EEvRT_PT0_S7_S7_, symObjAddr: 0x9C64, symBinAddr: 0x2B674, symSize: 0x108 }
  - { offset: 0x1385D6, size: 0x8, addend: 0x0, symName: __ZNSt3__128__exception_guard_exceptionsINS_6vectorINS1_IPK21llama_grammar_elementNS_9allocatorIS4_EEEENS5_IS7_EEE16__destroy_vectorEED1B8ne190107Ev, symObjAddr: 0x12DEC, symBinAddr: 0x3475C, symSize: 0x98 }
  - { offset: 0x138DB5, size: 0x8, addend: 0x0, symName: __Z24llama_grammar_apply_implRK13llama_grammarP22llama_token_data_array, symObjAddr: 0x73D8, symBinAddr: 0x290D4, symSize: 0x4A8 }
  - { offset: 0x13A3FC, size: 0x8, addend: 0x0, symName: __ZNSt3__16vectorINS_4pairINS0_IjNS_9allocatorIjEEEE18llama_partial_utf8EENS2_IS6_EEE9push_backB8ne190107EOS6_, symObjAddr: 0x7880, symBinAddr: 0x2957C, symSize: 0x140 }
  - { offset: 0x13A969, size: 0x8, addend: 0x0, symName: __ZL11decode_utf8RKNSt3__112basic_stringIcNS_11char_traitsIcEENS_9allocatorIcEEEE18llama_partial_utf8, symObjAddr: 0x79C0, symBinAddr: 0x296BC, symSize: 0x504 }
  - { offset: 0x13A974, size: 0x8, addend: 0x0, symName: __ZNKSt3__16vectorINS_4pairINS0_IjNS_9allocatorIjEEEE18llama_partial_utf8EENS2_IS6_EEE20__throw_length_errorB8ne190107Ev, symObjAddr: 0x13108, symBinAddr: 0x34A78, symSize: 0x14 }
  - { offset: 0x13A99E, size: 0x8, addend: 0x0, symName: __ZNSt3__111regex_matchB8ne190107INS_11__wrap_iterIPKcEENS_9allocatorINS_9sub_matchIS4_EEEEcNS_12regex_traitsIcEEEEbT_SB_RNS_13match_resultsISB_T0_EERKNS_11basic_regexIT1_T2_EENS_15regex_constants15match_flag_typeE, symObjAddr: 0x1311C, symBinAddr: 0x34A8C, symSize: 0x130 }
  - { offset: 0x13A9A9, size: 0x8, addend: 0x0, symName: __ZNSt3__16vectorINS_4pairINS0_IjNS_9allocatorIjEEEE18llama_partial_utf8EENS2_IS6_EEED1B8ne190107Ev, symObjAddr: 0x7EC4, symBinAddr: 0x29BC0, symSize: 0x84 }
  - { offset: 0x13B485, size: 0x8, addend: 0x0, symName: __ZNKSt3__16vectorIjNS_9allocatorIjEEE20__throw_length_errorB8ne190107Ev, symObjAddr: 0x9048, symBinAddr: 0x2AC34, symSize: 0x14 }
  - { offset: 0x13B947, size: 0x8, addend: 0x0, symName: __Z25llama_grammar_accept_implR13llama_grammari, symObjAddr: 0x7F48, symBinAddr: 0x29C44, symSize: 0x3F0 }
  - { offset: 0x13CC4B, size: 0x8, addend: 0x0, symName: __Z24llama_grammar_accept_strR13llama_grammarRKNSt3__112basic_stringIcNS1_11char_traitsIcEENS1_9allocatorIcEEEE, symObjAddr: 0x8338, symBinAddr: 0x2A034, symSize: 0x158 }
  - { offset: 0x13D227, size: 0x8, addend: 0x0, symName: __ZNSt3__14pairINS_12basic_stringIcNS_11char_traitsIcEENS_9allocatorIcEEEES6_ED1Ev, symObjAddr: 0xF000, symBinAddr: 0x309FC, symSize: 0x68 }
  - { offset: 0x13D843, size: 0x8, addend: 0x0, symName: __ZNSt3__114__split_bufferINS_6vectorIPK21llama_grammar_elementNS_9allocatorIS4_EEEERNS5_IS7_EEED1Ev, symObjAddr: 0x8DC4, symBinAddr: 0x2A9B0, symSize: 0x7C }
  - { offset: 0x13DBB4, size: 0x8, addend: 0x0, symName: __ZNSt3__110shared_ptrINS_13__empty_stateIcEEED1B8ne190107Ev, symObjAddr: 0x8E54, symBinAddr: 0x2AA40, symSize: 0x5C }
  - { offset: 0x13E76B, size: 0x8, addend: 0x0, symName: __ZNSt3__114__split_bufferI29llama_grammar_trigger_patternRNS_9allocatorIS1_EEED2Ev, symObjAddr: 0x9E28, symBinAddr: 0x2B838, symSize: 0xC8 }
  - { offset: 0x13EB26, size: 0x8, addend: 0x0, symName: __ZNSt3__111basic_regexIcNS_12regex_traitsIcEEEC1B8ne190107Ev, symObjAddr: 0x9BE4, symBinAddr: 0x2B5F4, symSize: 0x6C }
  - { offset: 0x13ED73, size: 0x8, addend: 0x0, symName: __ZNSt3__128__exception_guard_exceptionsINS_29_AllocatorDestroyRangeReverseINS_9allocatorI29llama_grammar_trigger_patternEEPS3_EEED1B8ne190107Ev, symObjAddr: 0x9D6C, symBinAddr: 0x2B77C, symSize: 0xBC }
  - { offset: 0x13F106, size: 0x8, addend: 0x0, symName: __ZNSt3__111basic_regexIcNS_12regex_traitsIcEEE7__parseINS_11__wrap_iterIPKcEEEET_S9_S9_, symObjAddr: 0x9FC4, symBinAddr: 0x2B9D4, symSize: 0x1E8 }
  - { offset: 0x13FAAD, size: 0x8, addend: 0x0, symName: __ZNSt3__111basic_regexIcNS_12regex_traitsIcEEE13__parse_egrepINS_11__wrap_iterIPKcEEEET_S9_S9_, symObjAddr: 0xA910, symBinAddr: 0x2C320, symSize: 0x1B8 }
  - { offset: 0x140032, size: 0x8, addend: 0x0, symName: __ZNSt3__111basic_regexIcNS_12regex_traitsIcEEE24__parse_extended_reg_expINS_11__wrap_iterIPKcEEEET_S9_S9_, symObjAddr: 0xA5EC, symBinAddr: 0x2BFFC, symSize: 0x16C }
  - { offset: 0x140367, size: 0x8, addend: 0x0, symName: __ZNSt3__111basic_regexIcNS_12regex_traitsIcEEE12__parse_grepINS_11__wrap_iterIPKcEEEET_S9_S9_, symObjAddr: 0xA758, symBinAddr: 0x2C168, symSize: 0x1B8 }
  - { offset: 0x14037B, size: 0x8, addend: 0x0, symName: __ZNSt3__111basic_regexIcNS_12regex_traitsIcEEE21__parse_basic_reg_expINS_11__wrap_iterIPKcEEEET_S9_S9_, symObjAddr: 0xA458, symBinAddr: 0x2BE68, symSize: 0x194 }
  - { offset: 0x14069C, size: 0x8, addend: 0x0, symName: __ZNSt3__111basic_regexIcNS_12regex_traitsIcEEE24__parse_extended_reg_expINS_11__wrap_iterIPKcEEEET_S9_S9_, symObjAddr: 0xA5EC, symBinAddr: 0x2BFFC, symSize: 0x16C }
  - { offset: 0x1406B0, size: 0x8, addend: 0x0, symName: __ZNSt3__111basic_regexIcNS_12regex_traitsIcEEE12__parse_grepINS_11__wrap_iterIPKcEEEET_S9_S9_, symObjAddr: 0xA758, symBinAddr: 0x2C168, symSize: 0x1B8 }
  - { offset: 0x140C35, size: 0x8, addend: 0x0, symName: __ZNSt3__111basic_regexIcNS_12regex_traitsIcEEE16__parse_ecma_expINS_11__wrap_iterIPKcEEEET_S9_S9_, symObjAddr: 0xA1F8, symBinAddr: 0x2BC08, symSize: 0x260 }
  - { offset: 0x1411BB, size: 0x8, addend: 0x0, symName: __ZNSt3__113__empty_stateIcED0Ev, symObjAddr: 0xAC2C, symBinAddr: 0x2C63C, symSize: 0x4C }
  - { offset: 0x1411EB, size: 0x8, addend: 0x0, symName: __ZNSt3__113__empty_stateIcED0Ev, symObjAddr: 0xAC2C, symBinAddr: 0x2C63C, symSize: 0x4C }
  - { offset: 0x141209, size: 0x8, addend: 0x0, symName: __ZNSt3__113__empty_stateIcED0Ev, symObjAddr: 0xAC2C, symBinAddr: 0x2C63C, symSize: 0x4C }
  - { offset: 0x141227, size: 0x8, addend: 0x0, symName: __ZNSt3__113__empty_stateIcED0Ev, symObjAddr: 0xAC2C, symBinAddr: 0x2C63C, symSize: 0x4C }
  - { offset: 0x141484, size: 0x8, addend: 0x0, symName: __ZNSt3__111basic_regexIcNS_12regex_traitsIcEEE17__parse_assertionINS_11__wrap_iterIPKcEEEET_S9_S9_, symObjAddr: 0xAD20, symBinAddr: 0x2C730, symSize: 0x354 }
  - { offset: 0x141A98, size: 0x8, addend: 0x0, symName: __ZNSt3__111basic_regexIcNS_12regex_traitsIcEEE12__parse_atomINS_11__wrap_iterIPKcEEEET_S9_S9_, symObjAddr: 0xB074, symBinAddr: 0x2CA84, symSize: 0x280 }
  - { offset: 0x141E05, size: 0x8, addend: 0x0, symName: __ZNSt3__111basic_regexIcNS_12regex_traitsIcEEE23__parse_ERE_dupl_symbolINS_11__wrap_iterIPKcEEEET_S9_S9_PNS_16__owns_one_stateIcEEjj, symObjAddr: 0xB2F4, symBinAddr: 0x2CD04, symSize: 0x3FC }
  - { offset: 0x141E19, size: 0x8, addend: 0x0, symName: __ZNSt3__111basic_regexIcNS_12regex_traitsIcEEE23__parse_ERE_dupl_symbolINS_11__wrap_iterIPKcEEEET_S9_S9_PNS_16__owns_one_stateIcEEjj, symObjAddr: 0xB2F4, symBinAddr: 0x2CD04, symSize: 0x3FC }
  - { offset: 0x1424D3, size: 0x8, addend: 0x0, symName: __ZNSt3__111basic_regexIcNS_12regex_traitsIcEEE16__push_lookaheadERKS3_bj, symObjAddr: 0xB6F0, symBinAddr: 0x2D100, symSize: 0xB0 }
  - { offset: 0x1426CE, size: 0x8, addend: 0x0, symName: __ZNSt3__111basic_regexIcNS_12regex_traitsIcEEE18__parse_nondupl_REINS_11__wrap_iterIPKcEEEET_S9_S9_, symObjAddr: 0x12084, symBinAddr: 0x33A80, symSize: 0x218 }
  - { offset: 0x142B9C, size: 0x8, addend: 0x0, symName: __ZNSt3__111basic_regexIcNS_12regex_traitsIcEEE22__parse_RE_dupl_symbolINS_11__wrap_iterIPKcEEEET_S9_S9_PNS_16__owns_one_stateIcEEjj, symObjAddr: 0x1229C, symBinAddr: 0x33C98, symSize: 0x288 }
  - { offset: 0x142BB0, size: 0x8, addend: 0x0, symName: __ZNSt3__111basic_regexIcNS_12regex_traitsIcEEE22__parse_RE_dupl_symbolINS_11__wrap_iterIPKcEEEET_S9_S9_PNS_16__owns_one_stateIcEEjj, symObjAddr: 0x1229C, symBinAddr: 0x33C98, symSize: 0x288 }
  - { offset: 0x143100, size: 0x8, addend: 0x0, symName: __ZNSt3__111basic_regexIcNS_12regex_traitsIcEEE32__parse_one_char_or_coll_elem_REINS_11__wrap_iterIPKcEEEET_S9_S9_, symObjAddr: 0x12524, symBinAddr: 0x33F20, symSize: 0x174 }
  - { offset: 0x143157, size: 0x8, addend: 0x0, symName: __ZNSt3__111basic_regexIcNS_12regex_traitsIcEEE22__parse_ERE_expressionINS_11__wrap_iterIPKcEEEET_S9_S9_, symObjAddr: 0x127CC, symBinAddr: 0x341C8, symSize: 0x208 }
  - { offset: 0x143500, size: 0x8, addend: 0x0, symName: __ZNSt3__111basic_regexIcNS_12regex_traitsIcEEE33__parse_one_char_or_coll_elem_EREINS_11__wrap_iterIPKcEEEET_S9_S9_, symObjAddr: 0x129D4, symBinAddr: 0x343D0, symSize: 0x14C }
  - { offset: 0x143530, size: 0x8, addend: 0x0, symName: __ZNSt3__111__end_stateIcED1Ev, symObjAddr: 0xAB14, symBinAddr: 0x2C524, symSize: 0x4 }
  - { offset: 0x14355C, size: 0x8, addend: 0x0, symName: __ZNSt3__111__end_stateIcED0Ev, symObjAddr: 0xAB18, symBinAddr: 0x2C528, symSize: 0x8 }
  - { offset: 0x143588, size: 0x8, addend: 0x0, symName: __ZNKSt3__111__end_stateIcE6__execERNS_7__stateIcEE, symObjAddr: 0xAB20, symBinAddr: 0x2C530, symSize: 0xC }
  - { offset: 0x1435BB, size: 0x8, addend: 0x0, symName: __ZNKSt3__16__nodeIcE12__exec_splitEbRNS_7__stateIcEE, symObjAddr: 0xAB2C, symBinAddr: 0x2C53C, symSize: 0x4 }
  - { offset: 0x1435FB, size: 0x8, addend: 0x0, symName: __ZNKSt3__16__nodeIcE6__execERNS_7__stateIcEE, symObjAddr: 0xAB30, symBinAddr: 0x2C540, symSize: 0x4 }
  - { offset: 0x143647, size: 0x8, addend: 0x0, symName: __ZNSt3__120__shared_ptr_pointerIPNS_13__empty_stateIcEENS_10shared_ptrIS2_E27__shared_ptr_default_deleteIS2_S2_EENS_9allocatorIS2_EEED1Ev, symObjAddr: 0xAB34, symBinAddr: 0x2C544, symSize: 0x4 }
  - { offset: 0x143669, size: 0x8, addend: 0x0, symName: __ZNSt3__120__shared_ptr_pointerIPNS_13__empty_stateIcEENS_10shared_ptrIS2_E27__shared_ptr_default_deleteIS2_S2_EENS_9allocatorIS2_EEED1Ev, symObjAddr: 0xAB34, symBinAddr: 0x2C544, symSize: 0x4 }
  - { offset: 0x14369F, size: 0x8, addend: 0x0, symName: __ZNSt3__120__shared_ptr_pointerIPNS_13__empty_stateIcEENS_10shared_ptrIS2_E27__shared_ptr_default_deleteIS2_S2_EENS_9allocatorIS2_EEED0Ev, symObjAddr: 0xAB38, symBinAddr: 0x2C548, symSize: 0x18 }
  - { offset: 0x143702, size: 0x8, addend: 0x0, symName: __ZNSt3__120__shared_ptr_pointerIPNS_13__empty_stateIcEENS_10shared_ptrIS2_E27__shared_ptr_default_deleteIS2_S2_EENS_9allocatorIS2_EEE16__on_zero_sharedEv, symObjAddr: 0xAB50, symBinAddr: 0x2C560, symSize: 0x18 }
  - { offset: 0x1437A9, size: 0x8, addend: 0x0, symName: __ZNKSt3__120__shared_ptr_pointerIPNS_13__empty_stateIcEENS_10shared_ptrIS2_E27__shared_ptr_default_deleteIS2_S2_EENS_9allocatorIS2_EEE13__get_deleterERKSt9type_info, symObjAddr: 0xAB68, symBinAddr: 0x2C578, symSize: 0x74 }
  - { offset: 0x1438C0, size: 0x8, addend: 0x0, symName: __ZNSt3__120__shared_ptr_pointerIPNS_13__empty_stateIcEENS_10shared_ptrIS2_E27__shared_ptr_default_deleteIS2_S2_EENS_9allocatorIS2_EEE21__on_zero_shared_weakEv, symObjAddr: 0xABDC, symBinAddr: 0x2C5EC, symSize: 0x8 }
  - { offset: 0x1438F2, size: 0x8, addend: 0x0, symName: __ZNSt3__120__shared_ptr_pointerIPNS_13__empty_stateIcEENS_10shared_ptrIS2_E27__shared_ptr_default_deleteIS2_S2_EENS_9allocatorIS2_EEE21__on_zero_shared_weakEv, symObjAddr: 0xABDC, symBinAddr: 0x2C5EC, symSize: 0x8 }
  - { offset: 0x143914, size: 0x8, addend: 0x0, symName: __ZNSt3__120__shared_ptr_pointerIPNS_13__empty_stateIcEENS_10shared_ptrIS2_E27__shared_ptr_default_deleteIS2_S2_EENS_9allocatorIS2_EEE21__on_zero_shared_weakEv, symObjAddr: 0xABDC, symBinAddr: 0x2C5EC, symSize: 0x8 }
  - { offset: 0x14393D, size: 0x8, addend: 0x0, symName: __ZNSt3__120__shared_ptr_pointerIPNS_13__empty_stateIcEENS_10shared_ptrIS2_E27__shared_ptr_default_deleteIS2_S2_EENS_9allocatorIS2_EEE21__on_zero_shared_weakEv, symObjAddr: 0xABDC, symBinAddr: 0x2C5EC, symSize: 0x8 }
  - { offset: 0x143960, size: 0x8, addend: 0x0, symName: __ZNSt3__120__shared_ptr_pointerIPNS_13__empty_stateIcEENS_10shared_ptrIS2_E27__shared_ptr_default_deleteIS2_S2_EENS_9allocatorIS2_EEE21__on_zero_shared_weakEv, symObjAddr: 0xABDC, symBinAddr: 0x2C5EC, symSize: 0x8 }
  - { offset: 0x1439C9, size: 0x8, addend: 0x0, symName: __ZNSt3__113__empty_stateIcED1Ev, symObjAddr: 0xABE4, symBinAddr: 0x2C5F4, symSize: 0x48 }
  - { offset: 0x1439ED, size: 0x8, addend: 0x0, symName: __ZNSt3__113__empty_stateIcED1Ev, symObjAddr: 0xABE4, symBinAddr: 0x2C5F4, symSize: 0x48 }
  - { offset: 0x143A0B, size: 0x8, addend: 0x0, symName: __ZNSt3__113__empty_stateIcED1Ev, symObjAddr: 0xABE4, symBinAddr: 0x2C5F4, symSize: 0x48 }
  - { offset: 0x143A6D, size: 0x8, addend: 0x0, symName: __ZNKSt3__113__empty_stateIcE6__execERNS_7__stateIcEE, symObjAddr: 0xAC78, symBinAddr: 0x2C688, symSize: 0x14 }
  - { offset: 0x143ABF, size: 0x8, addend: 0x0, symName: __ZNSt3__116__owns_one_stateIcED1Ev, symObjAddr: 0xAC8C, symBinAddr: 0x2C69C, symSize: 0x48 }
  - { offset: 0x143AE3, size: 0x8, addend: 0x0, symName: __ZNSt3__116__owns_one_stateIcED1Ev, symObjAddr: 0xAC8C, symBinAddr: 0x2C69C, symSize: 0x48 }
  - { offset: 0x143B28, size: 0x8, addend: 0x0, symName: __ZNSt3__116__owns_one_stateIcED0Ev, symObjAddr: 0xACD4, symBinAddr: 0x2C6E4, symSize: 0x4C }
  - { offset: 0x143B57, size: 0x8, addend: 0x0, symName: __ZNSt3__116__owns_one_stateIcED0Ev, symObjAddr: 0xACD4, symBinAddr: 0x2C6E4, symSize: 0x4C }
  - { offset: 0x143B75, size: 0x8, addend: 0x0, symName: __ZNSt3__116__owns_one_stateIcED0Ev, symObjAddr: 0xACD4, symBinAddr: 0x2C6E4, symSize: 0x4C }
  - { offset: 0x143C9C, size: 0x8, addend: 0x0, symName: __ZNSt3__111basic_regexIcNS_12regex_traitsIcEEE16__push_lookaheadERKS3_bj, symObjAddr: 0xB6F0, symBinAddr: 0x2D100, symSize: 0xB0 }
  - { offset: 0x144067, size: 0x8, addend: 0x0, symName: __ZNSt3__111basic_regexIcNS_12regex_traitsIcEEE26__parse_bracket_expressionINS_11__wrap_iterIPKcEEEET_S9_S9_, symObjAddr: 0xCFAC, symBinAddr: 0x2E9BC, symSize: 0x164 }
  - { offset: 0x14428F, size: 0x8, addend: 0x0, symName: __ZNSt3__111basic_regexIcNS_12regex_traitsIcEEE19__parse_atom_escapeINS_11__wrap_iterIPKcEEEET_S9_S9_, symObjAddr: 0xCE3C, symBinAddr: 0x2E84C, symSize: 0x170 }
  - { offset: 0x1443E6, size: 0x8, addend: 0x0, symName: __ZNSt3__111basic_regexIcNS_12regex_traitsIcEEE26__parse_bracket_expressionINS_11__wrap_iterIPKcEEEET_S9_S9_, symObjAddr: 0xCFAC, symBinAddr: 0x2E9BC, symSize: 0x164 }
  - { offset: 0x1443FA, size: 0x8, addend: 0x0, symName: __ZNSt3__111basic_regexIcNS_12regex_traitsIcEEE25__parse_pattern_characterINS_11__wrap_iterIPKcEEEET_S9_S9_, symObjAddr: 0xD15C, symBinAddr: 0x2EB6C, symSize: 0x7C }
  - { offset: 0x1445CD, size: 0x8, addend: 0x0, symName: __ZNSt3__111basic_regexIcNS_12regex_traitsIcEEE11__push_loopEmmPNS_16__owns_one_stateIcEEmmb, symObjAddr: 0x11904, symBinAddr: 0x33300, symSize: 0x114 }
  - { offset: 0x144B08, size: 0x8, addend: 0x0, symName: __ZNSt3__120__l_anchor_multilineIcED1Ev, symObjAddr: 0xB7EC, symBinAddr: 0x2D1FC, symSize: 0x48 }
  - { offset: 0x144B2C, size: 0x8, addend: 0x0, symName: __ZNSt3__120__l_anchor_multilineIcED1Ev, symObjAddr: 0xB7EC, symBinAddr: 0x2D1FC, symSize: 0x48 }
  - { offset: 0x144B4A, size: 0x8, addend: 0x0, symName: __ZNSt3__120__l_anchor_multilineIcED1Ev, symObjAddr: 0xB7EC, symBinAddr: 0x2D1FC, symSize: 0x48 }
  - { offset: 0x144B91, size: 0x8, addend: 0x0, symName: __ZNSt3__120__l_anchor_multilineIcED0Ev, symObjAddr: 0xB834, symBinAddr: 0x2D244, symSize: 0x4C }
  - { offset: 0x144BC1, size: 0x8, addend: 0x0, symName: __ZNSt3__120__l_anchor_multilineIcED0Ev, symObjAddr: 0xB834, symBinAddr: 0x2D244, symSize: 0x4C }
  - { offset: 0x144BDF, size: 0x8, addend: 0x0, symName: __ZNSt3__120__l_anchor_multilineIcED0Ev, symObjAddr: 0xB834, symBinAddr: 0x2D244, symSize: 0x4C }
  - { offset: 0x144BFD, size: 0x8, addend: 0x0, symName: __ZNSt3__120__l_anchor_multilineIcED0Ev, symObjAddr: 0xB834, symBinAddr: 0x2D244, symSize: 0x4C }
  - { offset: 0x144C28, size: 0x8, addend: 0x0, symName: __ZNKSt3__120__l_anchor_multilineIcE6__execERNS_7__stateIcEE, symObjAddr: 0xB880, symBinAddr: 0x2D290, symSize: 0x68 }
  - { offset: 0x144C8C, size: 0x8, addend: 0x0, symName: __ZNSt3__120__r_anchor_multilineIcED1Ev, symObjAddr: 0xB8E8, symBinAddr: 0x2D2F8, symSize: 0x48 }
  - { offset: 0x144CB0, size: 0x8, addend: 0x0, symName: __ZNSt3__120__r_anchor_multilineIcED1Ev, symObjAddr: 0xB8E8, symBinAddr: 0x2D2F8, symSize: 0x48 }
  - { offset: 0x144CCE, size: 0x8, addend: 0x0, symName: __ZNSt3__120__r_anchor_multilineIcED1Ev, symObjAddr: 0xB8E8, symBinAddr: 0x2D2F8, symSize: 0x48 }
  - { offset: 0x144D15, size: 0x8, addend: 0x0, symName: __ZNSt3__120__r_anchor_multilineIcED0Ev, symObjAddr: 0xB930, symBinAddr: 0x2D340, symSize: 0x4C }
  - { offset: 0x144D45, size: 0x8, addend: 0x0, symName: __ZNSt3__120__r_anchor_multilineIcED0Ev, symObjAddr: 0xB930, symBinAddr: 0x2D340, symSize: 0x4C }
  - { offset: 0x144D63, size: 0x8, addend: 0x0, symName: __ZNSt3__120__r_anchor_multilineIcED0Ev, symObjAddr: 0xB930, symBinAddr: 0x2D340, symSize: 0x4C }
  - { offset: 0x144D81, size: 0x8, addend: 0x0, symName: __ZNSt3__120__r_anchor_multilineIcED0Ev, symObjAddr: 0xB930, symBinAddr: 0x2D340, symSize: 0x4C }
  - { offset: 0x144DAC, size: 0x8, addend: 0x0, symName: __ZNKSt3__120__r_anchor_multilineIcE6__execERNS_7__stateIcEE, symObjAddr: 0xB97C, symBinAddr: 0x2D38C, symSize: 0x54 }
  - { offset: 0x144E10, size: 0x8, addend: 0x0, symName: __ZNSt3__115__word_boundaryIcNS_12regex_traitsIcEEED1Ev, symObjAddr: 0xB9D0, symBinAddr: 0x2D3E0, symSize: 0x58 }
  - { offset: 0x144EC0, size: 0x8, addend: 0x0, symName: __ZNSt3__115__word_boundaryIcNS_12regex_traitsIcEEED0Ev, symObjAddr: 0xBA28, symBinAddr: 0x2D438, symSize: 0x5C }
  - { offset: 0x144FDA, size: 0x8, addend: 0x0, symName: __ZNKSt3__115__word_boundaryIcNS_12regex_traitsIcEEE6__execERNS_7__stateIcEE, symObjAddr: 0xBA84, symBinAddr: 0x2D494, symSize: 0x11C }
  - { offset: 0x145187, size: 0x8, addend: 0x0, symName: __ZNSt3__111__lookaheadIcNS_12regex_traitsIcEEED1Ev, symObjAddr: 0xBBA0, symBinAddr: 0x2D5B0, symSize: 0x8C }
  - { offset: 0x1452E7, size: 0x8, addend: 0x0, symName: __ZNSt3__111__lookaheadIcNS_12regex_traitsIcEEED0Ev, symObjAddr: 0xBC2C, symBinAddr: 0x2D63C, symSize: 0x90 }
  - { offset: 0x145738, size: 0x8, addend: 0x0, symName: __ZNKSt3__111__lookaheadIcNS_12regex_traitsIcEEE6__execERNS_7__stateIcEE, symObjAddr: 0xBCBC, symBinAddr: 0x2D6CC, symSize: 0x194 }
  - { offset: 0x145D71, size: 0x8, addend: 0x0, symName: __ZNSt3__16vectorINS_9sub_matchIPKcEENS_9allocatorIS4_EEE6assignEmRKS4_, symObjAddr: 0xC30C, symBinAddr: 0x2DD1C, symSize: 0x1D4 }
  - { offset: 0x14632F, size: 0x8, addend: 0x0, symName: __ZNKSt3__16vectorINS_9sub_matchIPKcEENS_9allocatorIS4_EEE20__throw_length_errorB8ne190107Ev, symObjAddr: 0xC4E0, symBinAddr: 0x2DEF0, symSize: 0x14 }
  - { offset: 0x146346, size: 0x8, addend: 0x0, symName: __ZNKSt3__111basic_regexIcNS_12regex_traitsIcEEE21__match_at_start_ecmaINS_9allocatorINS_9sub_matchIPKcEEEEEEbS8_S8_RNS_13match_resultsIS8_T_EENS_15regex_constants15match_flag_typeEb, symObjAddr: 0xBE50, symBinAddr: 0x2D860, symSize: 0x4BC }
  - { offset: 0x147E3F, size: 0x8, addend: 0x0, symName: __ZNSt3__16vectorINS_7__stateIcEENS_9allocatorIS2_EEE21__push_back_slow_pathIS2_EEPS2_OT_, symObjAddr: 0xC674, symBinAddr: 0x2E084, symSize: 0x198 }
  - { offset: 0x148674, size: 0x8, addend: 0x0, symName: __ZNSt3__16vectorINS_9sub_matchIPKcEENS_9allocatorIS4_EEE8__appendEmRKS4_, symObjAddr: 0xC9E0, symBinAddr: 0x2E3F0, symSize: 0x19C }
  - { offset: 0x148B2E, size: 0x8, addend: 0x0, symName: __ZNSt3__16vectorINS_4pairImPKcEENS_9allocatorIS4_EEE8__appendEm, symObjAddr: 0xCB7C, symBinAddr: 0x2E58C, symSize: 0x128 }
  - { offset: 0x148B39, size: 0x8, addend: 0x0, symName: __ZNSt3__16vectorINS_4pairImPKcEENS_9allocatorIS4_EEE8__appendEm, symObjAddr: 0xCB7C, symBinAddr: 0x2E58C, symSize: 0x128 }
  - { offset: 0x148FB5, size: 0x8, addend: 0x0, symName: __ZNKSt3__16vectorINS_4pairImPKcEENS_9allocatorIS4_EEE20__throw_length_errorB8ne190107Ev, symObjAddr: 0xCCA4, symBinAddr: 0x2E6B4, symSize: 0x14 }
  - { offset: 0x148FC0, size: 0x8, addend: 0x0, symName: __ZNSt3__17__stateIcEC2ERKS1_, symObjAddr: 0xCCB8, symBinAddr: 0x2E6C8, symSize: 0x184 }
  - { offset: 0x14965E, size: 0x8, addend: 0x0, symName: __ZNSt3__16vectorINS_7__stateIcEENS_9allocatorIS2_EEED1B8ne190107Ev, symObjAddr: 0xC5DC, symBinAddr: 0x2DFEC, symSize: 0x98 }
  - { offset: 0x149B7B, size: 0x8, addend: 0x0, symName: __ZNSt3__17__stateIcED1Ev, symObjAddr: 0xC4F4, symBinAddr: 0x2DF04, symSize: 0x50 }
  - { offset: 0x14A136, size: 0x8, addend: 0x0, symName: __ZNKSt3__16vectorINS_9sub_matchIPKcEENS_9allocatorIS4_EEE20__throw_length_errorB8ne190107Ev, symObjAddr: 0xC4E0, symBinAddr: 0x2DEF0, symSize: 0x14 }
  - { offset: 0x14A160, size: 0x8, addend: 0x0, symName: __ZNSt3__17__stateIcED1Ev, symObjAddr: 0xC4F4, symBinAddr: 0x2DF04, symSize: 0x50 }
  - { offset: 0x14A3D1, size: 0x8, addend: 0x0, symName: __ZNSt3__16vectorINS_7__stateIcEENS_9allocatorIS2_EEE26__swap_out_circular_bufferERNS_14__split_bufferIS2_RS4_EE, symObjAddr: 0xC80C, symBinAddr: 0x2E21C, symSize: 0x134 }
  - { offset: 0x14AA16, size: 0x8, addend: 0x0, symName: __ZNKSt3__16vectorINS_7__stateIcEENS_9allocatorIS2_EEE20__throw_length_errorB8ne190107Ev, symObjAddr: 0xC9CC, symBinAddr: 0x2E3DC, symSize: 0x14 }
  - { offset: 0x14AA40, size: 0x8, addend: 0x0, symName: __ZNSt3__16vectorINS_9sub_matchIPKcEENS_9allocatorIS4_EEE8__appendEmRKS4_, symObjAddr: 0xC9E0, symBinAddr: 0x2E3F0, symSize: 0x19C }
  - { offset: 0x14AA4B, size: 0x8, addend: 0x0, symName: __ZNSt3__114__split_bufferINS_7__stateIcEERNS_9allocatorIS2_EEED1Ev, symObjAddr: 0xC940, symBinAddr: 0x2E350, symSize: 0x8C }
  - { offset: 0x14B3D7, size: 0x8, addend: 0x0, symName: __ZNKSt3__16vectorINS_4pairImPKcEENS_9allocatorIS4_EEE20__throw_length_errorB8ne190107Ev, symObjAddr: 0xCCA4, symBinAddr: 0x2E6B4, symSize: 0x14 }
  - { offset: 0x14B401, size: 0x8, addend: 0x0, symName: __ZNSt3__17__stateIcEC2ERKS1_, symObjAddr: 0xCCB8, symBinAddr: 0x2E6C8, symSize: 0x184 }
  - { offset: 0x14B832, size: 0x8, addend: 0x0, symName: __ZNSt3__111basic_regexIcNS_12regex_traitsIcEEE11__push_charEc, symObjAddr: 0xD918, symBinAddr: 0x2F328, symSize: 0x140 }
  - { offset: 0x14BB9D, size: 0x8, addend: 0x0, symName: __ZNSt3__111basic_regexIcNS_12regex_traitsIcEEE15__push_back_refEi, symObjAddr: 0xDAA4, symBinAddr: 0x2F4B4, symSize: 0xCC }
  - { offset: 0x14BD51, size: 0x8, addend: 0x0, symName: __ZNSt3__111basic_regexIcNS_12regex_traitsIcEEE30__parse_character_class_escapeINS_11__wrap_iterIPKcEEEET_S9_S9_, symObjAddr: 0xD2B8, symBinAddr: 0x2ECC8, symSize: 0x274 }
  - { offset: 0x14C1C0, size: 0x8, addend: 0x0, symName: __ZNSt3__111basic_regexIcNS_12regex_traitsIcEEE24__parse_character_escapeINS_11__wrap_iterIPKcEEEET_S9_S9_PNS_12basic_stringIcNS_11char_traitsIcEENS_9allocatorIcEEEE, symObjAddr: 0xD52C, symBinAddr: 0x2EF3C, symSize: 0x3EC }
  - { offset: 0x14C5E5, size: 0x8, addend: 0x0, symName: __ZNSt3__111basic_regexIcNS_12regex_traitsIcEEE11__push_charEc, symObjAddr: 0xD918, symBinAddr: 0x2F328, symSize: 0x140 }
  - { offset: 0x14C6D0, size: 0x8, addend: 0x0, symName: __ZNSt3__120__bracket_expressionIcNS_12regex_traitsIcEEEC2B8ne190107ERKS2_PNS_6__nodeIcEEbbb, symObjAddr: 0xE444, symBinAddr: 0x2FE54, symSize: 0x1C0 }
  - { offset: 0x14CEF3, size: 0x8, addend: 0x0, symName: __ZNSt3__120__bracket_expressionIcNS_12regex_traitsIcEEE10__add_charB8ne190107Ec, symObjAddr: 0xE2D4, symBinAddr: 0x2FCE4, symSize: 0x170 }
  - { offset: 0x14D18E, size: 0x8, addend: 0x0, symName: __ZNSt3__120__bracket_expressionIcNS_12regex_traitsIcEEEC2B8ne190107ERKS2_PNS_6__nodeIcEEbbb, symObjAddr: 0xE444, symBinAddr: 0x2FE54, symSize: 0x1C0 }
  - { offset: 0x14D1A0, size: 0x8, addend: 0x0, symName: __ZNSt3__111basic_regexIcNS_12regex_traitsIcEEE23__parse_expression_termINS_11__wrap_iterIPKcEEEET_S9_S9_PNS_20__bracket_expressionIcS2_EE, symObjAddr: 0xF780, symBinAddr: 0x3117C, symSize: 0x46C }
  - { offset: 0x14E0CA, size: 0x8, addend: 0x0, symName: __ZNSt3__123__match_any_but_newlineIcED1Ev, symObjAddr: 0xD1D8, symBinAddr: 0x2EBE8, symSize: 0x48 }
  - { offset: 0x14E0EE, size: 0x8, addend: 0x0, symName: __ZNSt3__123__match_any_but_newlineIcED1Ev, symObjAddr: 0xD1D8, symBinAddr: 0x2EBE8, symSize: 0x48 }
  - { offset: 0x14E10C, size: 0x8, addend: 0x0, symName: __ZNSt3__123__match_any_but_newlineIcED1Ev, symObjAddr: 0xD1D8, symBinAddr: 0x2EBE8, symSize: 0x48 }
  - { offset: 0x14E153, size: 0x8, addend: 0x0, symName: __ZNSt3__123__match_any_but_newlineIcED0Ev, symObjAddr: 0xD220, symBinAddr: 0x2EC30, symSize: 0x4C }
  - { offset: 0x14E183, size: 0x8, addend: 0x0, symName: __ZNSt3__123__match_any_but_newlineIcED0Ev, symObjAddr: 0xD220, symBinAddr: 0x2EC30, symSize: 0x4C }
  - { offset: 0x14E1A1, size: 0x8, addend: 0x0, symName: __ZNSt3__123__match_any_but_newlineIcED0Ev, symObjAddr: 0xD220, symBinAddr: 0x2EC30, symSize: 0x4C }
  - { offset: 0x14E1BF, size: 0x8, addend: 0x0, symName: __ZNSt3__123__match_any_but_newlineIcED0Ev, symObjAddr: 0xD220, symBinAddr: 0x2EC30, symSize: 0x4C }
  - { offset: 0x14E5F1, size: 0x8, addend: 0x0, symName: __ZNSt3__118__match_char_icaseIcNS_12regex_traitsIcEEED1Ev, symObjAddr: 0xDB70, symBinAddr: 0x2F580, symSize: 0x58 }
  - { offset: 0x14E6A1, size: 0x8, addend: 0x0, symName: __ZNSt3__118__match_char_icaseIcNS_12regex_traitsIcEEED0Ev, symObjAddr: 0xDBC8, symBinAddr: 0x2F5D8, symSize: 0x5C }
  - { offset: 0x14E75D, size: 0x8, addend: 0x0, symName: __ZNKSt3__118__match_char_icaseIcNS_12regex_traitsIcEEE6__execERNS_7__stateIcEE, symObjAddr: 0xDC24, symBinAddr: 0x2F634, symSize: 0x84 }
  - { offset: 0x14E816, size: 0x8, addend: 0x0, symName: __ZNSt3__120__match_char_collateIcNS_12regex_traitsIcEEED1Ev, symObjAddr: 0xDCA8, symBinAddr: 0x2F6B8, symSize: 0x58 }
  - { offset: 0x14E8C6, size: 0x8, addend: 0x0, symName: __ZNSt3__120__match_char_collateIcNS_12regex_traitsIcEEED0Ev, symObjAddr: 0xDD00, symBinAddr: 0x2F710, symSize: 0x5C }
  - { offset: 0x14E982, size: 0x8, addend: 0x0, symName: __ZNKSt3__120__match_char_collateIcNS_12regex_traitsIcEEE6__execERNS_7__stateIcEE, symObjAddr: 0xDD5C, symBinAddr: 0x2F76C, symSize: 0x48 }
  - { offset: 0x14E9EF, size: 0x8, addend: 0x0, symName: __ZNSt3__112__match_charIcED1Ev, symObjAddr: 0xDDA4, symBinAddr: 0x2F7B4, symSize: 0x48 }
  - { offset: 0x14EA13, size: 0x8, addend: 0x0, symName: __ZNSt3__112__match_charIcED1Ev, symObjAddr: 0xDDA4, symBinAddr: 0x2F7B4, symSize: 0x48 }
  - { offset: 0x14EA31, size: 0x8, addend: 0x0, symName: __ZNSt3__112__match_charIcED1Ev, symObjAddr: 0xDDA4, symBinAddr: 0x2F7B4, symSize: 0x48 }
  - { offset: 0x14EA78, size: 0x8, addend: 0x0, symName: __ZNSt3__112__match_charIcED0Ev, symObjAddr: 0xDDEC, symBinAddr: 0x2F7FC, symSize: 0x4C }
  - { offset: 0x14EAA8, size: 0x8, addend: 0x0, symName: __ZNSt3__112__match_charIcED0Ev, symObjAddr: 0xDDEC, symBinAddr: 0x2F7FC, symSize: 0x4C }
  - { offset: 0x14EAC6, size: 0x8, addend: 0x0, symName: __ZNSt3__112__match_charIcED0Ev, symObjAddr: 0xDDEC, symBinAddr: 0x2F7FC, symSize: 0x4C }
  - { offset: 0x14EAE4, size: 0x8, addend: 0x0, symName: __ZNSt3__112__match_charIcED0Ev, symObjAddr: 0xDDEC, symBinAddr: 0x2F7FC, symSize: 0x4C }
  - { offset: 0x14EB0F, size: 0x8, addend: 0x0, symName: __ZNKSt3__112__match_charIcE6__execERNS_7__stateIcEE, symObjAddr: 0xDE38, symBinAddr: 0x2F848, symSize: 0x48 }
  - { offset: 0x14EB7C, size: 0x8, addend: 0x0, symName: __ZNSt3__116__back_ref_icaseIcNS_12regex_traitsIcEEED1Ev, symObjAddr: 0xDE80, symBinAddr: 0x2F890, symSize: 0x58 }
  - { offset: 0x14EC2C, size: 0x8, addend: 0x0, symName: __ZNSt3__116__back_ref_icaseIcNS_12regex_traitsIcEEED0Ev, symObjAddr: 0xDED8, symBinAddr: 0x2F8E8, symSize: 0x5C }
  - { offset: 0x14ECE8, size: 0x8, addend: 0x0, symName: __ZNKSt3__116__back_ref_icaseIcNS_12regex_traitsIcEEE6__execERNS_7__stateIcEE, symObjAddr: 0xDF34, symBinAddr: 0x2F944, symSize: 0xFC }
  - { offset: 0x14EE4F, size: 0x8, addend: 0x0, symName: __ZNSt3__118__back_ref_collateIcNS_12regex_traitsIcEEED1Ev, symObjAddr: 0xE030, symBinAddr: 0x2FA40, symSize: 0x58 }
  - { offset: 0x14EEFF, size: 0x8, addend: 0x0, symName: __ZNSt3__118__back_ref_collateIcNS_12regex_traitsIcEEED0Ev, symObjAddr: 0xE088, symBinAddr: 0x2FA98, symSize: 0x5C }
  - { offset: 0x14EFBB, size: 0x8, addend: 0x0, symName: __ZNKSt3__118__back_ref_collateIcNS_12regex_traitsIcEEE6__execERNS_7__stateIcEE, symObjAddr: 0xE0E4, symBinAddr: 0x2FAF4, symSize: 0x8C }
  - { offset: 0x14F08C, size: 0x8, addend: 0x0, symName: __ZNSt3__110__back_refIcED1Ev, symObjAddr: 0xE170, symBinAddr: 0x2FB80, symSize: 0x48 }
  - { offset: 0x14F0B0, size: 0x8, addend: 0x0, symName: __ZNSt3__110__back_refIcED1Ev, symObjAddr: 0xE170, symBinAddr: 0x2FB80, symSize: 0x48 }
  - { offset: 0x14F0CE, size: 0x8, addend: 0x0, symName: __ZNSt3__110__back_refIcED1Ev, symObjAddr: 0xE170, symBinAddr: 0x2FB80, symSize: 0x48 }
  - { offset: 0x14F115, size: 0x8, addend: 0x0, symName: __ZNSt3__110__back_refIcED0Ev, symObjAddr: 0xE1B8, symBinAddr: 0x2FBC8, symSize: 0x4C }
  - { offset: 0x14F145, size: 0x8, addend: 0x0, symName: __ZNSt3__110__back_refIcED0Ev, symObjAddr: 0xE1B8, symBinAddr: 0x2FBC8, symSize: 0x4C }
  - { offset: 0x14F163, size: 0x8, addend: 0x0, symName: __ZNSt3__110__back_refIcED0Ev, symObjAddr: 0xE1B8, symBinAddr: 0x2FBC8, symSize: 0x4C }
  - { offset: 0x14F181, size: 0x8, addend: 0x0, symName: __ZNSt3__110__back_refIcED0Ev, symObjAddr: 0xE1B8, symBinAddr: 0x2FBC8, symSize: 0x4C }
  - { offset: 0x14F1AC, size: 0x8, addend: 0x0, symName: __ZNKSt3__110__back_refIcE6__execERNS_7__stateIcEE, symObjAddr: 0xE204, symBinAddr: 0x2FC14, symSize: 0xD0 }
  - { offset: 0x14F324, size: 0x8, addend: 0x0, symName: __ZNSt3__120__bracket_expressionIcNS_12regex_traitsIcEEE10__add_charB8ne190107Ec, symObjAddr: 0xE2D4, symBinAddr: 0x2FCE4, symSize: 0x170 }
  - { offset: 0x14F5B3, size: 0x8, addend: 0x0, symName: __ZNKSt3__16vectorIcNS_9allocatorIcEEE20__throw_length_errorB8ne190107Ev, symObjAddr: 0xF720, symBinAddr: 0x3111C, symSize: 0x14 }
  - { offset: 0x14F5DD, size: 0x8, addend: 0x0, symName: __ZNSt3__119__throw_regex_errorB8ne190107ILNS_15regex_constants10error_typeE5EEEvv, symObjAddr: 0xF734, symBinAddr: 0x31130, symSize: 0x4C }
  - { offset: 0x14F841, size: 0x8, addend: 0x0, symName: __ZNSt3__16vectorINS_12basic_stringIcNS_11char_traitsIcEENS_9allocatorIcEEEENS4_IS6_EEED1B8ne190107Ev, symObjAddr: 0xE604, symBinAddr: 0x30014, symSize: 0x80 }
  - { offset: 0x14FB34, size: 0x8, addend: 0x0, symName: __ZNSt3__16vectorINS_4pairINS_12basic_stringIcNS_11char_traitsIcEENS_9allocatorIcEEEES7_EENS5_IS8_EEED1B8ne190107Ev, symObjAddr: 0xE684, symBinAddr: 0x30094, symSize: 0xA4 }
  - { offset: 0x150244, size: 0x8, addend: 0x0, symName: __ZNSt3__120__bracket_expressionIcNS_12regex_traitsIcEEED1Ev, symObjAddr: 0xE728, symBinAddr: 0x30138, symSize: 0x4 }
  - { offset: 0x150267, size: 0x8, addend: 0x0, symName: __ZNSt3__120__bracket_expressionIcNS_12regex_traitsIcEEED1Ev, symObjAddr: 0xE728, symBinAddr: 0x30138, symSize: 0x4 }
  - { offset: 0x15027A, size: 0x8, addend: 0x0, symName: __ZNSt3__120__bracket_expressionIcNS_12regex_traitsIcEEED2Ev, symObjAddr: 0xF068, symBinAddr: 0x30A64, symSize: 0x180 }
  - { offset: 0x150F26, size: 0x8, addend: 0x0, symName: __ZNSt3__120__bracket_expressionIcNS_12regex_traitsIcEEED0Ev, symObjAddr: 0xE72C, symBinAddr: 0x3013C, symSize: 0x18 }
  - { offset: 0x151366, size: 0x8, addend: 0x0, symName: __ZNKSt3__120__bracket_expressionIcNS_12regex_traitsIcEEE6__execERNS_7__stateIcEE, symObjAddr: 0xE744, symBinAddr: 0x30154, symSize: 0x8A8 }
  - { offset: 0x152E23, size: 0x8, addend: 0x0, symName: __ZNKSt3__112regex_traitsIcE20__lookup_collatenameIPcEENS_12basic_stringIcNS_11char_traitsIcEENS_9allocatorIcEEEET_SA_c, symObjAddr: 0xF328, symBinAddr: 0x30D24, symSize: 0x254 }
  - { offset: 0x1539FA, size: 0x8, addend: 0x0, symName: __ZNKSt3__112regex_traitsIcE9transformIPcEENS_12basic_stringIcNS_11char_traitsIcEENS_9allocatorIcEEEET_SA_, symObjAddr: 0xF1E8, symBinAddr: 0x30BE4, symSize: 0x140 }
  - { offset: 0x154050, size: 0x8, addend: 0x0, symName: __ZNKSt3__112regex_traitsIcE19__transform_primaryIPcEENS_12basic_stringIcNS_11char_traitsIcEENS_9allocatorIcEEEET_SA_c, symObjAddr: 0xF57C, symBinAddr: 0x30F78, symSize: 0x1A4 }
  - { offset: 0x15480C, size: 0x8, addend: 0x0, symName: __ZNSt3__14pairINS_12basic_stringIcNS_11char_traitsIcEENS_9allocatorIcEEEES6_ED1Ev, symObjAddr: 0xF000, symBinAddr: 0x309FC, symSize: 0x68 }
  - { offset: 0x154B83, size: 0x8, addend: 0x0, symName: __ZNSt3__111basic_regexIcNS_12regex_traitsIcEEE25__parse_equivalence_classINS_11__wrap_iterIPKcEEEET_S9_S9_PNS_20__bracket_expressionIcS2_EE, symObjAddr: 0xFBEC, symBinAddr: 0x315E8, symSize: 0x2A0 }
  - { offset: 0x1556A9, size: 0x8, addend: 0x0, symName: __ZNSt3__111basic_regexIcNS_12regex_traitsIcEEE18__parse_awk_escapeINS_11__wrap_iterIPKcEEEET_S9_S9_PNS_12basic_stringIcNS_11char_traitsIcEENS_9allocatorIcEEEE, symObjAddr: 0x101B0, symBinAddr: 0x31BAC, symSize: 0x2F8 }
  - { offset: 0x155886, size: 0x8, addend: 0x0, symName: __ZNSt3__120__bracket_expressionIcNS_12regex_traitsIcEEE11__add_rangeB8ne190107ENS_12basic_stringIcNS_11char_traitsIcEENS_9allocatorIcEEEES9_, symObjAddr: 0x104A8, symBinAddr: 0x31EA4, symSize: 0x424 }
  - { offset: 0x15589A, size: 0x8, addend: 0x0, symName: __ZNSt3__111basic_regexIcNS_12regex_traitsIcEEE24__parse_collating_symbolINS_11__wrap_iterIPKcEEEET_S9_S9_RNS_12basic_stringIcNS_11char_traitsIcEENS_9allocatorIcEEEE, symObjAddr: 0xFF3C, symBinAddr: 0x31938, symSize: 0xEC }
  - { offset: 0x155C69, size: 0x8, addend: 0x0, symName: __ZNSt3__111basic_regexIcNS_12regex_traitsIcEEE20__parse_class_escapeINS_11__wrap_iterIPKcEEEET_S9_S9_RNS_12basic_stringIcNS_11char_traitsIcEENS_9allocatorIcEEEEPNS_20__bracket_expressionIcS2_EE, symObjAddr: 0x10028, symBinAddr: 0x31A24, symSize: 0x188 }
  - { offset: 0x155C7D, size: 0x8, addend: 0x0, symName: __ZNSt3__120__bracket_expressionIcNS_12regex_traitsIcEEE13__add_digraphB8ne190107Ecc, symObjAddr: 0x108CC, symBinAddr: 0x322C8, symSize: 0x22C }
  - { offset: 0x156600, size: 0x8, addend: 0x0, symName: __ZNSt3__119__throw_regex_errorB8ne190107ILNS_15regex_constants10error_typeE1EEEvv, symObjAddr: 0x10AF8, symBinAddr: 0x324F4, symSize: 0x4C }
  - { offset: 0x15660B, size: 0x8, addend: 0x0, symName: __ZNSt3__111basic_regexIcNS_12regex_traitsIcEEE23__parse_character_classINS_11__wrap_iterIPKcEEEET_S9_S9_PNS_20__bracket_expressionIcS2_EE, symObjAddr: 0xFE8C, symBinAddr: 0x31888, symSize: 0xB0 }
  - { offset: 0x1568AA, size: 0x8, addend: 0x0, symName: __ZNSt3__111basic_regexIcNS_12regex_traitsIcEEE24__parse_collating_symbolINS_11__wrap_iterIPKcEEEET_S9_S9_RNS_12basic_stringIcNS_11char_traitsIcEENS_9allocatorIcEEEE, symObjAddr: 0xFF3C, symBinAddr: 0x31938, symSize: 0xEC }
  - { offset: 0x1568CA, size: 0x8, addend: 0x0, symName: __ZNSt3__111basic_regexIcNS_12regex_traitsIcEEE20__parse_class_escapeINS_11__wrap_iterIPKcEEEET_S9_S9_RNS_12basic_stringIcNS_11char_traitsIcEENS_9allocatorIcEEEEPNS_20__bracket_expressionIcS2_EE, symObjAddr: 0x10028, symBinAddr: 0x31A24, symSize: 0x188 }
  - { offset: 0x156A9E, size: 0x8, addend: 0x0, symName: __ZNSt3__111basic_regexIcNS_12regex_traitsIcEEE18__parse_awk_escapeINS_11__wrap_iterIPKcEEEET_S9_S9_PNS_12basic_stringIcNS_11char_traitsIcEENS_9allocatorIcEEEE, symObjAddr: 0x101B0, symBinAddr: 0x31BAC, symSize: 0x2F8 }
  - { offset: 0x156AB2, size: 0x8, addend: 0x0, symName: __ZNSt3__120__bracket_expressionIcNS_12regex_traitsIcEEE11__add_rangeB8ne190107ENS_12basic_stringIcNS_11char_traitsIcEENS_9allocatorIcEEEES9_, symObjAddr: 0x104A8, symBinAddr: 0x31EA4, symSize: 0x424 }
  - { offset: 0x157EDF, size: 0x8, addend: 0x0, symName: __ZNKSt3__112regex_traitsIcE20__lookup_collatenameINS_11__wrap_iterIPKcEEEENS_12basic_stringIcNS_11char_traitsIcEENS_9allocatorIcEEEET_SD_c, symObjAddr: 0x10B44, symBinAddr: 0x32540, symSize: 0x254 }
  - { offset: 0x158ACB, size: 0x8, addend: 0x0, symName: __ZNKSt3__112regex_traitsIcE19__transform_primaryINS_11__wrap_iterIPcEEEENS_12basic_stringIcNS_11char_traitsIcEENS_9allocatorIcEEEET_SC_c, symObjAddr: 0x10D98, symBinAddr: 0x32794, symSize: 0x1A4 }
  - { offset: 0x15929C, size: 0x8, addend: 0x0, symName: __ZNSt3__16vectorINS_12basic_stringIcNS_11char_traitsIcEENS_9allocatorIcEEEENS4_IS6_EEE21__push_back_slow_pathIRKS6_EEPS6_OT_, symObjAddr: 0x10F3C, symBinAddr: 0x32938, symSize: 0x160 }
  - { offset: 0x1597CB, size: 0x8, addend: 0x0, symName: __ZNKSt3__112regex_traitsIcE18__lookup_classnameINS_11__wrap_iterIPKcEEEEjT_S7_bc, symObjAddr: 0x11170, symBinAddr: 0x32B6C, symSize: 0x160 }
  - { offset: 0x159F33, size: 0x8, addend: 0x0, symName: __ZNSt3__120__bracket_expressionIcNS_12regex_traitsIcEEE14__add_neg_charB8ne190107Ec, symObjAddr: 0x112D0, symBinAddr: 0x32CCC, symSize: 0x170 }
  - { offset: 0x15A1CE, size: 0x8, addend: 0x0, symName: __ZNSt3__16vectorINS_4pairINS_12basic_stringIcNS_11char_traitsIcEENS_9allocatorIcEEEES7_EENS5_IS8_EEE9push_backB8ne190107EOS8_, symObjAddr: 0x11440, symBinAddr: 0x32E3C, symSize: 0x180 }
  - { offset: 0x15A29A, size: 0x8, addend: 0x0, symName: __ZNSt3__16vectorINS_4pairINS_12basic_stringIcNS_11char_traitsIcEENS_9allocatorIcEEEES7_EENS5_IS8_EEE9push_backB8ne190107EOS8_, symObjAddr: 0x11440, symBinAddr: 0x32E3C, symSize: 0x180 }
  - { offset: 0x15A877, size: 0x8, addend: 0x0, symName: __ZNKSt3__112regex_traitsIcE9transformINS_11__wrap_iterIPcEEEENS_12basic_stringIcNS_11char_traitsIcEENS_9allocatorIcEEEET_SC_, symObjAddr: 0x115C0, symBinAddr: 0x32FBC, symSize: 0x140 }
  - { offset: 0x15A882, size: 0x8, addend: 0x0, symName: __ZNKSt3__112regex_traitsIcE9transformINS_11__wrap_iterIPcEEEENS_12basic_stringIcNS_11char_traitsIcEENS_9allocatorIcEEEET_SC_, symObjAddr: 0x115C0, symBinAddr: 0x32FBC, symSize: 0x140 }
  - { offset: 0x15B1C9, size: 0x8, addend: 0x0, symName: __ZNKSt3__16vectorINS_4pairIccEENS_9allocatorIS2_EEE20__throw_length_errorB8ne190107Ev, symObjAddr: 0x11760, symBinAddr: 0x3315C, symSize: 0x14 }
  - { offset: 0x15B1F3, size: 0x8, addend: 0x0, symName: __ZNSt3__128__begin_marked_subexpressionIcED1Ev, symObjAddr: 0x11774, symBinAddr: 0x33170, symSize: 0x48 }
  - { offset: 0x15B742, size: 0x8, addend: 0x0, symName: __ZNKSt3__16vectorINS_12basic_stringIcNS_11char_traitsIcEENS_9allocatorIcEEEENS4_IS6_EEE20__throw_length_errorB8ne190107Ev, symObjAddr: 0x11110, symBinAddr: 0x32B0C, symSize: 0x14 }
  - { offset: 0x15B76C, size: 0x8, addend: 0x0, symName: __ZNSt3__119__throw_regex_errorB8ne190107ILNS_15regex_constants10error_typeE2EEEvv, symObjAddr: 0x11124, symBinAddr: 0x32B20, symSize: 0x4C }
  - { offset: 0x15B777, size: 0x8, addend: 0x0, symName: __ZNSt3__114__split_bufferINS_12basic_stringIcNS_11char_traitsIcEENS_9allocatorIcEEEERNS4_IS6_EEED1Ev, symObjAddr: 0x1109C, symBinAddr: 0x32A98, symSize: 0x74 }
  - { offset: 0x15BD92, size: 0x8, addend: 0x0, symName: __ZNKSt3__16vectorINS_4pairINS_12basic_stringIcNS_11char_traitsIcEENS_9allocatorIcEEEES7_EENS5_IS8_EEE20__throw_length_errorB8ne190107Ev, symObjAddr: 0x1174C, symBinAddr: 0x33148, symSize: 0x14 }
  - { offset: 0x15BDBC, size: 0x8, addend: 0x0, symName: __ZNKSt3__16vectorINS_4pairIccEENS_9allocatorIS2_EEE20__throw_length_errorB8ne190107Ev, symObjAddr: 0x11760, symBinAddr: 0x3315C, symSize: 0x14 }
  - { offset: 0x15BDE4, size: 0x8, addend: 0x0, symName: __ZNSt3__128__begin_marked_subexpressionIcED1Ev, symObjAddr: 0x11774, symBinAddr: 0x33170, symSize: 0x48 }
  - { offset: 0x15BE08, size: 0x8, addend: 0x0, symName: __ZNSt3__128__begin_marked_subexpressionIcED1Ev, symObjAddr: 0x11774, symBinAddr: 0x33170, symSize: 0x48 }
  - { offset: 0x15BE26, size: 0x8, addend: 0x0, symName: __ZNSt3__128__begin_marked_subexpressionIcED1Ev, symObjAddr: 0x11774, symBinAddr: 0x33170, symSize: 0x48 }
  - { offset: 0x15BE6D, size: 0x8, addend: 0x0, symName: __ZNSt3__128__begin_marked_subexpressionIcED0Ev, symObjAddr: 0x117BC, symBinAddr: 0x331B8, symSize: 0x4C }
  - { offset: 0x15BE9D, size: 0x8, addend: 0x0, symName: __ZNSt3__128__begin_marked_subexpressionIcED0Ev, symObjAddr: 0x117BC, symBinAddr: 0x331B8, symSize: 0x4C }
  - { offset: 0x15BEBB, size: 0x8, addend: 0x0, symName: __ZNSt3__128__begin_marked_subexpressionIcED0Ev, symObjAddr: 0x117BC, symBinAddr: 0x331B8, symSize: 0x4C }
  - { offset: 0x15BED9, size: 0x8, addend: 0x0, symName: __ZNSt3__128__begin_marked_subexpressionIcED0Ev, symObjAddr: 0x117BC, symBinAddr: 0x331B8, symSize: 0x4C }
  - { offset: 0x15BF04, size: 0x8, addend: 0x0, symName: __ZNKSt3__128__begin_marked_subexpressionIcE6__execERNS_7__stateIcEE, symObjAddr: 0x11808, symBinAddr: 0x33204, symSize: 0x30 }
  - { offset: 0x15BF90, size: 0x8, addend: 0x0, symName: __ZNSt3__126__end_marked_subexpressionIcED1Ev, symObjAddr: 0x11838, symBinAddr: 0x33234, symSize: 0x48 }
  - { offset: 0x15BFB4, size: 0x8, addend: 0x0, symName: __ZNSt3__126__end_marked_subexpressionIcED1Ev, symObjAddr: 0x11838, symBinAddr: 0x33234, symSize: 0x48 }
  - { offset: 0x15BFD2, size: 0x8, addend: 0x0, symName: __ZNSt3__126__end_marked_subexpressionIcED1Ev, symObjAddr: 0x11838, symBinAddr: 0x33234, symSize: 0x48 }
  - { offset: 0x15C019, size: 0x8, addend: 0x0, symName: __ZNSt3__126__end_marked_subexpressionIcED0Ev, symObjAddr: 0x11880, symBinAddr: 0x3327C, symSize: 0x4C }
  - { offset: 0x15C049, size: 0x8, addend: 0x0, symName: __ZNSt3__126__end_marked_subexpressionIcED0Ev, symObjAddr: 0x11880, symBinAddr: 0x3327C, symSize: 0x4C }
  - { offset: 0x15C067, size: 0x8, addend: 0x0, symName: __ZNSt3__126__end_marked_subexpressionIcED0Ev, symObjAddr: 0x11880, symBinAddr: 0x3327C, symSize: 0x4C }
  - { offset: 0x15C085, size: 0x8, addend: 0x0, symName: __ZNSt3__126__end_marked_subexpressionIcED0Ev, symObjAddr: 0x11880, symBinAddr: 0x3327C, symSize: 0x4C }
  - { offset: 0x15C0B0, size: 0x8, addend: 0x0, symName: __ZNKSt3__126__end_marked_subexpressionIcE6__execERNS_7__stateIcEE, symObjAddr: 0x118CC, symBinAddr: 0x332C8, symSize: 0x38 }
  - { offset: 0x15C3B4, size: 0x8, addend: 0x0, symName: __ZNSt3__16__loopIcED0Ev, symObjAddr: 0x11B18, symBinAddr: 0x33514, symSize: 0x6C }
  - { offset: 0x15C4A5, size: 0x8, addend: 0x0, symName: __ZNSt3__16__loopIcED1Ev, symObjAddr: 0x11AB0, symBinAddr: 0x334AC, symSize: 0x68 }
  - { offset: 0x15C5C7, size: 0x8, addend: 0x0, symName: __ZNKSt3__16__loopIcE6__execERNS_7__stateIcEE, symObjAddr: 0x11B84, symBinAddr: 0x33580, symSize: 0x1D4 }
  - { offset: 0x15C6FA, size: 0x8, addend: 0x0, symName: __ZNKSt3__16__loopIcE12__exec_splitEbRNS_7__stateIcEE, symObjAddr: 0x11D58, symBinAddr: 0x33754, symSize: 0xC8 }
  - { offset: 0x15C7CB, size: 0x8, addend: 0x0, symName: __ZNSt3__117__owns_two_statesIcED1Ev, symObjAddr: 0x11E20, symBinAddr: 0x3381C, symSize: 0x68 }
  - { offset: 0x15C859, size: 0x8, addend: 0x0, symName: __ZNSt3__117__owns_two_statesIcED0Ev, symObjAddr: 0x11E88, symBinAddr: 0x33884, symSize: 0x6C }
  - { offset: 0x15C8F3, size: 0x8, addend: 0x0, symName: __ZNSt3__117__repeat_one_loopIcED1Ev, symObjAddr: 0x11EF4, symBinAddr: 0x338F0, symSize: 0x4 }
  - { offset: 0x15C91F, size: 0x8, addend: 0x0, symName: __ZNSt3__117__repeat_one_loopIcED0Ev, symObjAddr: 0x11EF8, symBinAddr: 0x338F4, symSize: 0x8 }
  - { offset: 0x15C94B, size: 0x8, addend: 0x0, symName: __ZNKSt3__117__repeat_one_loopIcE6__execERNS_7__stateIcEE, symObjAddr: 0x11F00, symBinAddr: 0x338FC, symSize: 0x14 }
  - { offset: 0x15C9B8, size: 0x8, addend: 0x0, symName: __ZNSt3__111__alternateIcED1Ev, symObjAddr: 0x11F14, symBinAddr: 0x33910, symSize: 0x68 }
  - { offset: 0x15CA66, size: 0x8, addend: 0x0, symName: __ZNSt3__111__alternateIcED0Ev, symObjAddr: 0x11F7C, symBinAddr: 0x33978, symSize: 0x6C }
  - { offset: 0x15CB20, size: 0x8, addend: 0x0, symName: __ZNKSt3__111__alternateIcE6__execERNS_7__stateIcEE, symObjAddr: 0x11FE8, symBinAddr: 0x339E4, symSize: 0xC }
  - { offset: 0x15CB53, size: 0x8, addend: 0x0, symName: __ZNKSt3__111__alternateIcE12__exec_splitEbRNS_7__stateIcEE, symObjAddr: 0x11FF4, symBinAddr: 0x339F0, symSize: 0x24 }
  - { offset: 0x15CB99, size: 0x8, addend: 0x0, symName: __ZNSt3__121__empty_non_own_stateIcED1Ev, symObjAddr: 0x12018, symBinAddr: 0x33A14, symSize: 0x4 }
  - { offset: 0x15CBC5, size: 0x8, addend: 0x0, symName: __ZNSt3__121__empty_non_own_stateIcED0Ev, symObjAddr: 0x1201C, symBinAddr: 0x33A18, symSize: 0x8 }
  - { offset: 0x15CBF1, size: 0x8, addend: 0x0, symName: __ZNKSt3__121__empty_non_own_stateIcE6__execERNS_7__stateIcEE, symObjAddr: 0x12024, symBinAddr: 0x33A20, symSize: 0x14 }
  - { offset: 0x15CD40, size: 0x8, addend: 0x0, symName: __ZNSt3__111basic_regexIcNS_12regex_traitsIcEEE32__parse_one_char_or_coll_elem_REINS_11__wrap_iterIPKcEEEET_S9_S9_, symObjAddr: 0x12524, symBinAddr: 0x33F20, symSize: 0x174 }
  - { offset: 0x15D0DC, size: 0x8, addend: 0x0, symName: __ZNSt3__111__match_anyIcED1Ev, symObjAddr: 0x12698, symBinAddr: 0x34094, symSize: 0x48 }
  - { offset: 0x15D100, size: 0x8, addend: 0x0, symName: __ZNSt3__111__match_anyIcED1Ev, symObjAddr: 0x12698, symBinAddr: 0x34094, symSize: 0x48 }
  - { offset: 0x15D11E, size: 0x8, addend: 0x0, symName: __ZNSt3__111__match_anyIcED1Ev, symObjAddr: 0x12698, symBinAddr: 0x34094, symSize: 0x48 }
  - { offset: 0x15D165, size: 0x8, addend: 0x0, symName: __ZNSt3__111__match_anyIcED0Ev, symObjAddr: 0x126E0, symBinAddr: 0x340DC, symSize: 0x4C }
  - { offset: 0x15D195, size: 0x8, addend: 0x0, symName: __ZNSt3__111__match_anyIcED0Ev, symObjAddr: 0x126E0, symBinAddr: 0x340DC, symSize: 0x4C }
  - { offset: 0x15D1B3, size: 0x8, addend: 0x0, symName: __ZNSt3__111__match_anyIcED0Ev, symObjAddr: 0x126E0, symBinAddr: 0x340DC, symSize: 0x4C }
  - { offset: 0x15D1D1, size: 0x8, addend: 0x0, symName: __ZNSt3__111__match_anyIcED0Ev, symObjAddr: 0x126E0, symBinAddr: 0x340DC, symSize: 0x4C }
  - { offset: 0x15D1FC, size: 0x8, addend: 0x0, symName: __ZNKSt3__111__match_anyIcE6__execERNS_7__stateIcEE, symObjAddr: 0x1272C, symBinAddr: 0x34128, symSize: 0x40 }
  - { offset: 0x15D24C, size: 0x8, addend: 0x0, symName: __ZNSt3__111basic_regexIcNS_12regex_traitsIcEEE15__test_back_refEc, symObjAddr: 0x1276C, symBinAddr: 0x34168, symSize: 0x60 }
  - { offset: 0x15D345, size: 0x8, addend: 0x0, symName: __ZNSt3__111basic_regexIcNS_12regex_traitsIcEEE22__parse_ERE_expressionINS_11__wrap_iterIPKcEEEET_S9_S9_, symObjAddr: 0x127CC, symBinAddr: 0x341C8, symSize: 0x208 }
  - { offset: 0x15D350, size: 0x8, addend: 0x0, symName: __ZNSt3__111basic_regexIcNS_12regex_traitsIcEEE33__parse_one_char_or_coll_elem_EREINS_11__wrap_iterIPKcEEEET_S9_S9_, symObjAddr: 0x129D4, symBinAddr: 0x343D0, symSize: 0x14C }
  - { offset: 0x15D53F, size: 0x8, addend: 0x0, symName: __ZNSt3__111basic_regexIcNS_12regex_traitsIcEEE23__parse_QUOTED_CHAR_EREINS_11__wrap_iterIPKcEEEET_S9_S9_, symObjAddr: 0x12B20, symBinAddr: 0x3451C, symSize: 0xC8 }
  - { offset: 0x15D71E, size: 0x8, addend: 0x0, symName: __ZNSt3__128__exception_guard_exceptionsINS_29_AllocatorDestroyRangeReverseINS_9allocatorINS_6vectorI21llama_grammar_elementNS2_IS4_EEEEEEPS6_EEED1B8ne190107Ev, symObjAddr: 0x12D78, symBinAddr: 0x346E8, symSize: 0x74 }
  - { offset: 0x15DA74, size: 0x8, addend: 0x0, symName: __ZNSt3__128__exception_guard_exceptionsINS_29_AllocatorDestroyRangeReverseINS_9allocatorINS_6vectorIPK21llama_grammar_elementNS2_IS6_EEEEEEPS8_EEED1B8ne190107Ev, symObjAddr: 0x12F88, symBinAddr: 0x348F8, symSize: 0x74 }
  - { offset: 0x15DEA2, size: 0x8, addend: 0x0, symName: __ZNKSt3__111basic_regexIcNS_12regex_traitsIcEEE8__searchINS_9allocatorINS_9sub_matchIPKcEEEEEEbS8_S8_RNS_13match_resultsIS8_T_EENS_15regex_constants15match_flag_typeE, symObjAddr: 0x1324C, symBinAddr: 0x34BBC, symSize: 0x308 }
  - { offset: 0x15E419, size: 0x8, addend: 0x0, symName: __ZNSt3__113match_resultsINS_11__wrap_iterIPKcEENS_9allocatorINS_9sub_matchIS4_EEEEE8__assignB8ne190107IS3_NS5_INS6_IS3_EEEEEEvS4_S4_RKNS0_IT_T0_EEb, symObjAddr: 0x13554, symBinAddr: 0x34EC4, symSize: 0x1AC }
  - { offset: 0x15E81D, size: 0x8, addend: 0x0, symName: __ZNKSt3__111basic_regexIcNS_12regex_traitsIcEEE27__match_at_start_posix_subsINS_9allocatorINS_9sub_matchIPKcEEEEEEbS8_S8_RNS_13match_resultsIS8_T_EENS_15regex_constants15match_flag_typeEb, symObjAddr: 0x1403C, symBinAddr: 0x359AC, symSize: 0x634 }
  - { offset: 0x160A3D, size: 0x8, addend: 0x0, symName: __ZNKSt3__111basic_regexIcNS_12regex_traitsIcEEE29__match_at_start_posix_nosubsINS_9allocatorINS_9sub_matchIPKcEEEEEEbS8_S8_RNS_13match_resultsIS8_T_EENS_15regex_constants15match_flag_typeEb, symObjAddr: 0x13700, symBinAddr: 0x35070, symSize: 0x93C }
  - { offset: 0x162C96, size: 0x8, addend: 0x0, symName: __ZNSt3__16vectorINS_9sub_matchINS_11__wrap_iterIPKcEEEENS_9allocatorIS6_EEE8__appendEm, symObjAddr: 0x15BD4, symBinAddr: 0x37544, symSize: 0x180 }
  - { offset: 0x163188, size: 0x8, addend: 0x0, symName: __ZNKSt3__16vectorINS_9sub_matchINS_11__wrap_iterIPKcEEEENS_9allocatorIS6_EEE20__throw_length_errorB8ne190107Ev, symObjAddr: 0x15D54, symBinAddr: 0x376C4, symSize: 0x14 }
  - { offset: 0x1635F9, size: 0x8, addend: 0x0, symName: __ZNSt3__15dequeINS_7__stateIcEENS_9allocatorIS2_EEE19__add_back_capacityEv, symObjAddr: 0x14860, symBinAddr: 0x361D0, symSize: 0x5D0 }
  - { offset: 0x164932, size: 0x8, addend: 0x0, symName: __ZNSt3__15dequeINS_7__stateIcEENS_9allocatorIS2_EEE20__add_front_capacityEv, symObjAddr: 0x151AC, symBinAddr: 0x36B1C, symSize: 0x3B8 }
  - { offset: 0x165844, size: 0x8, addend: 0x0, symName: __ZNSt3__15dequeINS_7__stateIcEENS_9allocatorIS2_EEED1B8ne190107Ev, symObjAddr: 0x147E0, symBinAddr: 0x36150, symSize: 0x80 }
  - { offset: 0x165C3B, size: 0x8, addend: 0x0, symName: __ZNSt3__16vectorINS_9sub_matchIPKcEENS_9allocatorIS4_EEE18__assign_with_sizeB8ne190107IPS4_S9_EEvT_T0_l, symObjAddr: 0x15700, symBinAddr: 0x37070, symSize: 0x204 }
  - { offset: 0x166426, size: 0x8, addend: 0x0, symName: __ZNSt3__16vectorINS_4pairImPKcEENS_9allocatorIS4_EEE18__assign_with_sizeB8ne190107IPS4_S9_EEvT_T0_l, symObjAddr: 0x15904, symBinAddr: 0x37274, symSize: 0x2D0 }
  - { offset: 0x16644A, size: 0x8, addend: 0x0, symName: __ZNSt3__16vectorINS_4pairImPKcEENS_9allocatorIS4_EEE18__assign_with_sizeB8ne190107IPS4_S9_EEvT_T0_l, symObjAddr: 0x15904, symBinAddr: 0x37274, symSize: 0x2D0 }
  - { offset: 0x166BF2, size: 0x8, addend: 0x0, symName: __ZNSt3__16vectorINS_9sub_matchINS_11__wrap_iterIPKcEEEENS_9allocatorIS6_EEE8__appendEm, symObjAddr: 0x15BD4, symBinAddr: 0x37544, symSize: 0x180 }
  - { offset: 0x166C2C, size: 0x8, addend: 0x0, symName: __ZNSt3__15dequeINS_7__stateIcEENS_9allocatorIS2_EEE5clearEv, symObjAddr: 0x14670, symBinAddr: 0x35FE0, symSize: 0x170 }
  - { offset: 0x16782C, size: 0x8, addend: 0x0, symName: __ZNSt3__114__split_bufferIPNS_7__stateIcEENS_9allocatorIS3_EEE9push_backEOS3_, symObjAddr: 0x14E30, symBinAddr: 0x367A0, symSize: 0x188 }
  - { offset: 0x167C96, size: 0x8, addend: 0x0, symName: __ZNSt3__114__split_bufferIPNS_7__stateIcEENS_9allocatorIS3_EEE10push_frontEOS3_, symObjAddr: 0x14FB8, symBinAddr: 0x36928, symSize: 0x19C }
  - { offset: 0x167CA1, size: 0x8, addend: 0x0, symName: __ZNSt3__114__split_bufferIPNS_7__stateIcEENS_9allocatorIS3_EEE10push_frontEOS3_, symObjAddr: 0x14FB8, symBinAddr: 0x36928, symSize: 0x19C }
  - { offset: 0x168146, size: 0x8, addend: 0x0, symName: __ZNSt3__114__split_bufferIPNS_7__stateIcEERNS_9allocatorIS3_EEED1Ev, symObjAddr: 0x15154, symBinAddr: 0x36AC4, symSize: 0x58 }
  - { offset: 0x168151, size: 0x8, addend: 0x0, symName: __ZNSt3__114__split_bufferIPNS_7__stateIcEERNS_9allocatorIS3_EEED1Ev, symObjAddr: 0x15154, symBinAddr: 0x36AC4, symSize: 0x58 }
  - { offset: 0x168175, size: 0x8, addend: 0x0, symName: __ZNSt3__114__split_bufferIPNS_7__stateIcEERNS_9allocatorIS3_EEED1Ev, symObjAddr: 0x15154, symBinAddr: 0x36AC4, symSize: 0x58 }
  - { offset: 0x168193, size: 0x8, addend: 0x0, symName: __ZNSt3__114__split_bufferIPNS_7__stateIcEERNS_9allocatorIS3_EEED1Ev, symObjAddr: 0x15154, symBinAddr: 0x36AC4, symSize: 0x58 }
  - { offset: 0x1683A3, size: 0x8, addend: 0x0, symName: __ZNSt3__114__split_bufferIPNS_7__stateIcEENS_9allocatorIS3_EEE10push_frontERKS3_, symObjAddr: 0x15564, symBinAddr: 0x36ED4, symSize: 0x19C }
  - { offset: 0x168848, size: 0x8, addend: 0x0, symName: __ZNSt3__16vectorINS_9sub_matchIPKcEENS_9allocatorIS4_EEE18__assign_with_sizeB8ne190107IPS4_S9_EEvT_T0_l, symObjAddr: 0x15700, symBinAddr: 0x37070, symSize: 0x204 }
  - { offset: 0x168C67, size: 0x8, addend: 0x0, symName: __ZNKSt3__16vectorINS_9sub_matchINS_11__wrap_iterIPKcEEEENS_9allocatorIS6_EEE20__throw_length_errorB8ne190107Ev, symObjAddr: 0x15D54, symBinAddr: 0x376C4, symSize: 0x14 }
  - { offset: 0x16AB10, size: 0x8, addend: 0x0, symName: __ZN20llm_graph_input_embd9set_inputEPK12llama_ubatch, symObjAddr: 0x0, symBinAddr: 0x376D8, symSize: 0xA0 }
  - { offset: 0x17FDEC, size: 0x8, addend: 0x0, symName: __ZN20llm_graph_input_embd9set_inputEPK12llama_ubatch, symObjAddr: 0x0, symBinAddr: 0x376D8, symSize: 0xA0 }
  - { offset: 0x17FEFC, size: 0x8, addend: 0x0, symName: __ZN19llm_graph_input_pos9set_inputEPK12llama_ubatch, symObjAddr: 0xA0, symBinAddr: 0x37778, symSize: 0x64 }
  - { offset: 0x17FFF0, size: 0x8, addend: 0x0, symName: __ZN26llm_graph_input_pos_bucket9set_inputEPK12llama_ubatch, symObjAddr: 0x104, symBinAddr: 0x377DC, symSize: 0x3E4 }
  - { offset: 0x180128, size: 0x8, addend: 0x0, symName: __ZN29llm_graph_input_pos_bucket_kv9set_inputEPK12llama_ubatch, symObjAddr: 0x4E8, symBinAddr: 0x37BC0, symSize: 0x3E8 }
  - { offset: 0x18019B, size: 0x8, addend: 0x0, symName: __ZN29llm_graph_input_pos_bucket_kv9set_inputEPK12llama_ubatch, symObjAddr: 0x4E8, symBinAddr: 0x37BC0, symSize: 0x3E8 }
  - { offset: 0x1802EA, size: 0x8, addend: 0x0, symName: __ZN23llm_graph_input_out_ids9set_inputEPK12llama_ubatch, symObjAddr: 0x8D0, symBinAddr: 0x37FA8, symSize: 0x1B4 }
  - { offset: 0x1802FC, size: 0x8, addend: 0x0, symName: __ZN23llm_graph_input_out_ids9set_inputEPK12llama_ubatch, symObjAddr: 0x8D0, symBinAddr: 0x37FA8, symSize: 0x1B4 }
  - { offset: 0x1803E5, size: 0x8, addend: 0x0, symName: __ZN20llm_graph_input_mean9set_inputEPK12llama_ubatch, symObjAddr: 0xA84, symBinAddr: 0x3815C, symSize: 0x2C8 }
  - { offset: 0x180919, size: 0x8, addend: 0x0, symName: __ZN20llm_graph_input_mean9set_inputEPK12llama_ubatch, symObjAddr: 0xA84, symBinAddr: 0x3815C, symSize: 0x2C8 }
  - { offset: 0x181325, size: 0x8, addend: 0x0, symName: __ZN19llm_graph_input_cls9set_inputEPK12llama_ubatch, symObjAddr: 0xD4C, symBinAddr: 0x38424, symSize: 0x56C }
  - { offset: 0x181C2B, size: 0x8, addend: 0x0, symName: __ZN22llm_graph_input_s_copy9set_inputEPK12llama_ubatch, symObjAddr: 0x12B8, symBinAddr: 0x38990, symSize: 0xE0 }
  - { offset: 0x181CD6, size: 0x8, addend: 0x0, symName: __ZN22llm_graph_input_s_mask9set_inputEPK12llama_ubatch, symObjAddr: 0x1398, symBinAddr: 0x38A70, symSize: 0xB8 }
  - { offset: 0x181CE9, size: 0x8, addend: 0x0, symName: __ZN22llm_graph_input_s_mask9set_inputEPK12llama_ubatch, symObjAddr: 0x1398, symBinAddr: 0x38A70, symSize: 0xB8 }
  - { offset: 0x181D9B, size: 0x8, addend: 0x0, symName: __ZN26llm_graph_input_cross_embd9set_inputEPK12llama_ubatch, symObjAddr: 0x1450, symBinAddr: 0x38B28, symSize: 0x54 }
  - { offset: 0x181DC4, size: 0x8, addend: 0x0, symName: __ZN26llm_graph_input_cross_embd9set_inputEPK12llama_ubatch, symObjAddr: 0x1450, symBinAddr: 0x38B28, symSize: 0x54 }
  - { offset: 0x181E54, size: 0x8, addend: 0x0, symName: __ZN29llm_graph_input_attn_no_cache9set_inputEPK12llama_ubatch, symObjAddr: 0x14A4, symBinAddr: 0x38B7C, symSize: 0x4A4 }
  - { offset: 0x182184, size: 0x8, addend: 0x0, symName: __ZN31llm_graph_input_attn_kv_unified9set_inputEPK12llama_ubatch, symObjAddr: 0x1948, symBinAddr: 0x39020, symSize: 0x564 }
  - { offset: 0x1822A2, size: 0x8, addend: 0x0, symName: __ZN31llm_graph_input_attn_kv_unified9set_inputEPK12llama_ubatch, symObjAddr: 0x1948, symBinAddr: 0x39020, symSize: 0x564 }
  - { offset: 0x182567, size: 0x8, addend: 0x0, symName: __ZN26llm_graph_input_attn_cross9set_inputEPK12llama_ubatch, symObjAddr: 0x1EAC, symBinAddr: 0x39584, symSize: 0x2AC }
  - { offset: 0x18257A, size: 0x8, addend: 0x0, symName: __ZN26llm_graph_input_attn_cross9set_inputEPK12llama_ubatch, symObjAddr: 0x1EAC, symBinAddr: 0x39584, symSize: 0x2AC }
  - { offset: 0x1827B7, size: 0x8, addend: 0x0, symName: __ZN17llm_graph_contextC2ERK16llm_graph_params, symObjAddr: 0x2158, symBinAddr: 0x39830, symSize: 0x180 }
  - { offset: 0x18328A, size: 0x8, addend: 0x0, symName: __ZN17llm_graph_contextC2ERK16llm_graph_params, symObjAddr: 0x2158, symBinAddr: 0x39830, symSize: 0x180 }
  - { offset: 0x1833C2, size: 0x8, addend: 0x0, symName: __ZN17llm_graph_contextC1ERK16llm_graph_params, symObjAddr: 0x22D8, symBinAddr: 0x399B0, symSize: 0x4 }
  - { offset: 0x1833FF, size: 0x8, addend: 0x0, symName: __ZN17llm_graph_contextC1ERK16llm_graph_params, symObjAddr: 0x22D8, symBinAddr: 0x399B0, symSize: 0x4 }
  - { offset: 0x183419, size: 0x8, addend: 0x0, symName: __ZNK17llm_graph_context15n_pos_per_tokenEv, symObjAddr: 0x22DC, symBinAddr: 0x399B4, symSize: 0x14 }
  - { offset: 0x1834FF, size: 0x8, addend: 0x0, symName: __ZNK17llm_graph_context2cbEP11ggml_tensorPKci, symObjAddr: 0x22F0, symBinAddr: 0x399C8, symSize: 0x54 }
  - { offset: 0x183606, size: 0x8, addend: 0x0, symName: __ZNK17llm_graph_context10build_cvecEP11ggml_tensori, symObjAddr: 0x2344, symBinAddr: 0x39A1C, symSize: 0x18 }
  - { offset: 0x183697, size: 0x8, addend: 0x0, symName: __ZNK17llm_graph_context13build_lora_mmEP11ggml_tensorS1_, symObjAddr: 0x235C, symBinAddr: 0x39A34, symSize: 0xEC }
  - { offset: 0x18387E, size: 0x8, addend: 0x0, symName: __ZNK17llm_graph_context16build_lora_mm_idEP11ggml_tensorS1_S1_, symObjAddr: 0x2448, symBinAddr: 0x39B20, symSize: 0x100 }
  - { offset: 0x183A6D, size: 0x8, addend: 0x0, symName: __ZNK17llm_graph_context10build_normEP11ggml_tensorS1_S1_13llm_norm_typei, symObjAddr: 0x2548, symBinAddr: 0x39C20, symSize: 0x180 }
  - { offset: 0x183E1C, size: 0x8, addend: 0x0, symName: __ZNK17llm_graph_context9build_ffnEP11ggml_tensorS1_S1_S1_S1_S1_S1_S1_S1_S1_S1_15llm_ffn_op_type17llm_ffn_gate_typei, symObjAddr: 0x26C8, symBinAddr: 0x39DA0, symSize: 0x63C }
  - { offset: 0x184FBE, size: 0x8, addend: 0x0, symName: __ZNK17llm_graph_context13build_moe_ffnEP11ggml_tensorS1_S1_S1_S1_S1_xx15llm_ffn_op_typebbf29llama_expert_gating_func_typei, symObjAddr: 0x2D04, symBinAddr: 0x3A3DC, symSize: 0x66C }
  - { offset: 0x1861DC, size: 0x8, addend: 0x0, symName: __ZNK17llm_graph_context14build_inp_embdEP11ggml_tensor, symObjAddr: 0x3370, symBinAddr: 0x3AA48, symSize: 0x24C }
  - { offset: 0x186509, size: 0x8, addend: 0x0, symName: __ZNK17llm_graph_context14build_inp_embdEP11ggml_tensor, symObjAddr: 0x3370, symBinAddr: 0x3AA48, symSize: 0x24C }
  - { offset: 0x186E74, size: 0x8, addend: 0x0, symName: __ZNK17llm_graph_context13build_inp_posEv, symObjAddr: 0x36BC, symBinAddr: 0x3AC94, symSize: 0xE0 }
  - { offset: 0x18756A, size: 0x8, addend: 0x0, symName: __ZNK17llm_graph_context13build_inp_posEv, symObjAddr: 0x36BC, symBinAddr: 0x3AC94, symSize: 0xE0 }
  - { offset: 0x187AFC, size: 0x8, addend: 0x0, symName: __ZNK17llm_graph_context17build_inp_out_idsEv, symObjAddr: 0x379C, symBinAddr: 0x3AD74, symSize: 0xC4 }
  - { offset: 0x188029, size: 0x8, addend: 0x0, symName: __ZNK17llm_graph_context14build_inp_meanEv, symObjAddr: 0x3860, symBinAddr: 0x3AE38, symSize: 0xCC }
  - { offset: 0x188579, size: 0x8, addend: 0x0, symName: __ZNK17llm_graph_context13build_inp_clsEv, symObjAddr: 0x392C, symBinAddr: 0x3AF04, symSize: 0xC8 }
  - { offset: 0x188ACE, size: 0x8, addend: 0x0, symName: __ZNK17llm_graph_context16build_inp_s_copyEv, symObjAddr: 0x39F4, symBinAddr: 0x3AFCC, symSize: 0xC8 }
  - { offset: 0x189033, size: 0x8, addend: 0x0, symName: __ZNK17llm_graph_context16build_inp_s_maskEv, symObjAddr: 0x3ABC, symBinAddr: 0x3B094, symSize: 0xCC }
  - { offset: 0x1895A7, size: 0x8, addend: 0x0, symName: __ZNK17llm_graph_context20build_inp_cross_embdEv, symObjAddr: 0x3B88, symBinAddr: 0x3B160, symSize: 0xD8 }
  - { offset: 0x189B2D, size: 0x8, addend: 0x0, symName: __ZNK17llm_graph_context24build_inp_pos_bucket_encEv, symObjAddr: 0x3C60, symBinAddr: 0x3B238, symSize: 0xCC }
  - { offset: 0x18A093, size: 0x8, addend: 0x0, symName: __ZNK17llm_graph_context24build_inp_pos_bucket_decEv, symObjAddr: 0x3D2C, symBinAddr: 0x3B304, symSize: 0xD0 }
  - { offset: 0x18A402, size: 0x8, addend: 0x0, symName: __ZNK17llm_graph_context14build_pos_biasEP11ggml_tensorS1_, symObjAddr: 0x3DFC, symBinAddr: 0x3B3D4, symSize: 0x118 }
  - { offset: 0x18A70C, size: 0x8, addend: 0x0, symName: __ZNK17llm_graph_context14build_attn_mhaEP11ggml_cgraphP11ggml_tensorS3_S3_S3_S3_bf, symObjAddr: 0x3F14, symBinAddr: 0x3B4EC, symSize: 0x2F4 }
  - { offset: 0x18AD30, size: 0x8, addend: 0x0, symName: __ZNK17llm_graph_context23build_attn_inp_no_cacheEv, symObjAddr: 0x4208, symBinAddr: 0x3B7E0, symSize: 0x110 }
  - { offset: 0x18B085, size: 0x8, addend: 0x0, symName: __ZNK17llm_graph_context10build_attnEP29llm_graph_input_attn_no_cacheP11ggml_cgraphP11ggml_tensorS5_S5_S5_S5_S5_fi, symObjAddr: 0x4318, symBinAddr: 0x3B8F0, symSize: 0x190 }
  - { offset: 0x18B619, size: 0x8, addend: 0x0, symName: __ZNK17llm_graph_context25build_attn_inp_kv_unifiedEv, symObjAddr: 0x44A8, symBinAddr: 0x3BA80, symSize: 0x1C8 }
  - { offset: 0x18B9DE, size: 0x8, addend: 0x0, symName: __ZNK17llm_graph_context10build_attnEP31llm_graph_input_attn_kv_unifiedP11ggml_cgraphP11ggml_tensorS5_S5_S5_S5_S5_fi, symObjAddr: 0x4670, symBinAddr: 0x3BC48, symSize: 0x474 }
  - { offset: 0x18C0A5, size: 0x8, addend: 0x0, symName: __ZNK17llm_graph_context20build_attn_inp_crossEv, symObjAddr: 0x4AE4, symBinAddr: 0x3C0BC, symSize: 0x12C }
  - { offset: 0x18C352, size: 0x8, addend: 0x0, symName: __ZNK17llm_graph_context20build_attn_inp_crossEv, symObjAddr: 0x4AE4, symBinAddr: 0x3C0BC, symSize: 0x12C }
  - { offset: 0x18C6EA, size: 0x8, addend: 0x0, symName: __ZNK17llm_graph_context10build_attnEP26llm_graph_input_attn_crossP11ggml_cgraphP11ggml_tensorS5_S5_S5_S5_S5_fi, symObjAddr: 0x4C10, symBinAddr: 0x3C1E8, symSize: 0x190 }
  - { offset: 0x18CA47, size: 0x8, addend: 0x0, symName: __ZNK17llm_graph_context21build_copy_mask_stateEP11ggml_cgraphP11ggml_tensorS3_S3_ii, symObjAddr: 0x4DA0, symBinAddr: 0x3C378, symSize: 0x134 }
  - { offset: 0x18CBFA, size: 0x8, addend: 0x0, symName: __ZNK17llm_graph_context27build_rwkv_token_shift_loadEP11ggml_cgraphP11ggml_tensorS3_RK12llama_ubatchi, symObjAddr: 0x4ED4, symBinAddr: 0x3C4AC, symSize: 0x94 }
  - { offset: 0x18CD20, size: 0x8, addend: 0x0, symName: __ZNK17llm_graph_context28build_rwkv_token_shift_storeEP11ggml_tensorRK12llama_ubatchi, symObjAddr: 0x4F68, symBinAddr: 0x3C540, symSize: 0xC4 }
  - { offset: 0x18CE5E, size: 0x8, addend: 0x0, symName: __ZNK17llm_graph_context13build_poolingEP11ggml_cgraphP11ggml_tensorS3_S3_S3_, symObjAddr: 0x502C, symBinAddr: 0x3C604, symSize: 0x26C }
  - { offset: 0x18D215, size: 0x8, addend: 0x0, symName: __ZN19llm_graph_input_posD1Ev, symObjAddr: 0x5298, symBinAddr: 0x3C870, symSize: 0x4 }
  - { offset: 0x18D228, size: 0x8, addend: 0x0, symName: __ZN19llm_graph_input_posD1Ev, symObjAddr: 0x5298, symBinAddr: 0x3C870, symSize: 0x4 }
  - { offset: 0x18D251, size: 0x8, addend: 0x0, symName: __ZN19llm_graph_input_posD0Ev, symObjAddr: 0x529C, symBinAddr: 0x3C874, symSize: 0x8 }
  - { offset: 0x18D27A, size: 0x8, addend: 0x0, symName: __ZN26llm_graph_input_pos_bucketD1Ev, symObjAddr: 0x52A4, symBinAddr: 0x3C87C, symSize: 0x4 }
  - { offset: 0x18D2A3, size: 0x8, addend: 0x0, symName: __ZN26llm_graph_input_pos_bucketD0Ev, symObjAddr: 0x52A8, symBinAddr: 0x3C880, symSize: 0x8 }
  - { offset: 0x18D2CC, size: 0x8, addend: 0x0, symName: __ZN29llm_graph_input_pos_bucket_kvD1Ev, symObjAddr: 0x52B0, symBinAddr: 0x3C888, symSize: 0x4 }
  - { offset: 0x18D2F5, size: 0x8, addend: 0x0, symName: __ZN29llm_graph_input_pos_bucket_kvD0Ev, symObjAddr: 0x52B4, symBinAddr: 0x3C88C, symSize: 0x8 }
  - { offset: 0x18D31E, size: 0x8, addend: 0x0, symName: __ZN23llm_graph_input_out_idsD1Ev, symObjAddr: 0x52BC, symBinAddr: 0x3C894, symSize: 0x4 }
  - { offset: 0x18D347, size: 0x8, addend: 0x0, symName: __ZN23llm_graph_input_out_idsD0Ev, symObjAddr: 0x52C0, symBinAddr: 0x3C898, symSize: 0x8 }
  - { offset: 0x18D370, size: 0x8, addend: 0x0, symName: __ZN20llm_graph_input_meanD1Ev, symObjAddr: 0x52C8, symBinAddr: 0x3C8A0, symSize: 0x4 }
  - { offset: 0x18D399, size: 0x8, addend: 0x0, symName: __ZN20llm_graph_input_meanD0Ev, symObjAddr: 0x52CC, symBinAddr: 0x3C8A4, symSize: 0x8 }
  - { offset: 0x18D3C2, size: 0x8, addend: 0x0, symName: __ZN19llm_graph_input_clsD1Ev, symObjAddr: 0x52D4, symBinAddr: 0x3C8AC, symSize: 0x4 }
  - { offset: 0x18D3EB, size: 0x8, addend: 0x0, symName: __ZN19llm_graph_input_clsD0Ev, symObjAddr: 0x52D8, symBinAddr: 0x3C8B0, symSize: 0x8 }
  - { offset: 0x18D414, size: 0x8, addend: 0x0, symName: __ZN22llm_graph_input_s_copyD1Ev, symObjAddr: 0x52E0, symBinAddr: 0x3C8B8, symSize: 0x4 }
  - { offset: 0x18D43D, size: 0x8, addend: 0x0, symName: __ZN22llm_graph_input_s_copyD0Ev, symObjAddr: 0x52E4, symBinAddr: 0x3C8BC, symSize: 0x8 }
  - { offset: 0x18D466, size: 0x8, addend: 0x0, symName: __ZN22llm_graph_input_s_maskD1Ev, symObjAddr: 0x52EC, symBinAddr: 0x3C8C4, symSize: 0x4 }
  - { offset: 0x18D48F, size: 0x8, addend: 0x0, symName: __ZN22llm_graph_input_s_maskD0Ev, symObjAddr: 0x52F0, symBinAddr: 0x3C8C8, symSize: 0x8 }
  - { offset: 0x18D4B8, size: 0x8, addend: 0x0, symName: __ZN26llm_graph_input_cross_embdD1Ev, symObjAddr: 0x52F8, symBinAddr: 0x3C8D0, symSize: 0x4 }
  - { offset: 0x18D4E1, size: 0x8, addend: 0x0, symName: __ZN26llm_graph_input_cross_embdD0Ev, symObjAddr: 0x52FC, symBinAddr: 0x3C8D4, symSize: 0x8 }
  - { offset: 0x18D50A, size: 0x8, addend: 0x0, symName: __ZN29llm_graph_input_attn_no_cacheD1Ev, symObjAddr: 0x5304, symBinAddr: 0x3C8DC, symSize: 0x4 }
  - { offset: 0x18D533, size: 0x8, addend: 0x0, symName: __ZN29llm_graph_input_attn_no_cacheD0Ev, symObjAddr: 0x5308, symBinAddr: 0x3C8E0, symSize: 0x8 }
  - { offset: 0x18D55C, size: 0x8, addend: 0x0, symName: __ZN31llm_graph_input_attn_kv_unifiedD1Ev, symObjAddr: 0x5310, symBinAddr: 0x3C8E8, symSize: 0x4 }
  - { offset: 0x18D585, size: 0x8, addend: 0x0, symName: __ZN31llm_graph_input_attn_kv_unifiedD0Ev, symObjAddr: 0x5314, symBinAddr: 0x3C8EC, symSize: 0x8 }
  - { offset: 0x18D5AE, size: 0x8, addend: 0x0, symName: __ZN26llm_graph_input_attn_crossD1Ev, symObjAddr: 0x531C, symBinAddr: 0x3C8F4, symSize: 0x4 }
  - { offset: 0x18D5D7, size: 0x8, addend: 0x0, symName: __ZN26llm_graph_input_attn_crossD0Ev, symObjAddr: 0x5320, symBinAddr: 0x3C8F8, symSize: 0x8 }
  - { offset: 0x18D600, size: 0x8, addend: 0x0, symName: __ZN20llm_graph_input_embdD1Ev, symObjAddr: 0x5328, symBinAddr: 0x3C900, symSize: 0x4 }
  - { offset: 0x18D629, size: 0x8, addend: 0x0, symName: __ZN20llm_graph_input_embdD0Ev, symObjAddr: 0x532C, symBinAddr: 0x3C904, symSize: 0x8 }
  - { offset: 0x18F593, size: 0x8, addend: 0x0, symName: __ZNK13llama_hparams6n_headEj, symObjAddr: 0x0, symBinAddr: 0x3C90C, symSize: 0x38 }
  - { offset: 0x190AF7, size: 0x8, addend: 0x0, symName: __ZNK13llama_hparams6n_headEj, symObjAddr: 0x0, symBinAddr: 0x3C90C, symSize: 0x38 }
  - { offset: 0x190B24, size: 0x8, addend: 0x0, symName: __ZNK13llama_hparams9n_head_kvEj, symObjAddr: 0x38, symBinAddr: 0x3C944, symSize: 0x38 }
  - { offset: 0x190B55, size: 0x8, addend: 0x0, symName: __ZNK13llama_hparams9n_head_kvEj, symObjAddr: 0x38, symBinAddr: 0x3C944, symSize: 0x38 }
  - { offset: 0x190B82, size: 0x8, addend: 0x0, symName: __ZNK13llama_hparams4n_ffEj, symObjAddr: 0x70, symBinAddr: 0x3C97C, symSize: 0x38 }
  - { offset: 0x190B93, size: 0x8, addend: 0x0, symName: __ZNK13llama_hparams4n_ffEj, symObjAddr: 0x70, symBinAddr: 0x3C97C, symSize: 0x38 }
  - { offset: 0x190BCD, size: 0x8, addend: 0x0, symName: __ZNK13llama_hparams5n_gqaEj, symObjAddr: 0xA8, symBinAddr: 0x3C9B4, symSize: 0x54 }
  - { offset: 0x190C29, size: 0x8, addend: 0x0, symName: __ZNK13llama_hparams5n_gqaEj, symObjAddr: 0xA8, symBinAddr: 0x3C9B4, symSize: 0x54 }
  - { offset: 0x190CC5, size: 0x8, addend: 0x0, symName: __ZNK13llama_hparams12n_embd_k_gqaEj, symObjAddr: 0xFC, symBinAddr: 0x3CA08, symSize: 0x40 }
  - { offset: 0x190CD6, size: 0x8, addend: 0x0, symName: __ZNK13llama_hparams12n_embd_k_gqaEj, symObjAddr: 0xFC, symBinAddr: 0x3CA08, symSize: 0x40 }
  - { offset: 0x190D3F, size: 0x8, addend: 0x0, symName: __ZNK13llama_hparams12n_embd_v_gqaEj, symObjAddr: 0x13C, symBinAddr: 0x3CA48, symSize: 0x40 }
  - { offset: 0x190D50, size: 0x8, addend: 0x0, symName: __ZNK13llama_hparams12n_embd_v_gqaEj, symObjAddr: 0x13C, symBinAddr: 0x3CA48, symSize: 0x40 }
  - { offset: 0x190DB9, size: 0x8, addend: 0x0, symName: __ZNK13llama_hparams10n_embd_k_sEv, symObjAddr: 0x17C, symBinAddr: 0x3CA88, symSize: 0x30 }
  - { offset: 0x190DCA, size: 0x8, addend: 0x0, symName: __ZNK13llama_hparams10n_embd_k_sEv, symObjAddr: 0x17C, symBinAddr: 0x3CA88, symSize: 0x30 }
  - { offset: 0x190DF3, size: 0x8, addend: 0x0, symName: __ZNK13llama_hparams10n_embd_v_sEv, symObjAddr: 0x1AC, symBinAddr: 0x3CAB8, symSize: 0x28 }
  - { offset: 0x190E1C, size: 0x8, addend: 0x0, symName: __ZNK13llama_hparams6is_swaEj, symObjAddr: 0x1D4, symBinAddr: 0x3CAE0, symSize: 0x5C }
  - { offset: 0x192948, size: 0x8, addend: 0x0, symName: __ZL14g_logger_state.0, symObjAddr: 0x17D8, symBinAddr: 0x1F81B8, symSize: 0x0 }
  - { offset: 0x192953, size: 0x8, addend: 0x0, symName: __ZL14g_logger_state.1, symObjAddr: 0x2EF80, symBinAddr: 0x25F358, symSize: 0x0 }
  - { offset: 0x199986, size: 0x8, addend: 0x0, symName: __ZN9time_measC2ERxb, symObjAddr: 0x0, symBinAddr: 0x3CB3C, symSize: 0x48 }
  - { offset: 0x199A0C, size: 0x8, addend: 0x0, symName: __ZN9time_measC1ERxb, symObjAddr: 0x48, symBinAddr: 0x3CB84, symSize: 0x48 }
  - { offset: 0x199A8D, size: 0x8, addend: 0x0, symName: __ZN9time_measD2Ev, symObjAddr: 0x90, symBinAddr: 0x3CBCC, symSize: 0x44 }
  - { offset: 0x199AD9, size: 0x8, addend: 0x0, symName: __ZN9time_measD1Ev, symObjAddr: 0xE4, symBinAddr: 0x3CC10, symSize: 0x44 }
  - { offset: 0x199B2A, size: 0x8, addend: 0x0, symName: _llama_log_set, symObjAddr: 0x128, symBinAddr: 0x3CC54, symSize: 0x44 }
  - { offset: 0x199B8E, size: 0x8, addend: 0x0, symName: __Z26llama_log_callback_default14ggml_log_levelPKcPv, symObjAddr: 0x16C, symBinAddr: 0x3CC98, symSize: 0x30 }
  - { offset: 0x199E15, size: 0x8, addend: 0x0, symName: __Z18llama_log_internal14ggml_log_levelPKcz, symObjAddr: 0x19C, symBinAddr: 0x3CCC8, symSize: 0xF8 }
  - { offset: 0x19A28F, size: 0x8, addend: 0x0, symName: __Z11replace_allRNSt3__112basic_stringIcNS_11char_traitsIcEENS_9allocatorIcEEEERKS5_S8_, symObjAddr: 0x294, symBinAddr: 0x3CDC0, symSize: 0x208 }
  - { offset: 0x19AD2F, size: 0x8, addend: 0x0, symName: __Z6formatPKcz, symObjAddr: 0x49C, symBinAddr: 0x3CFC8, symSize: 0x15C }
  - { offset: 0x19B466, size: 0x8, addend: 0x0, symName: __Z25llama_format_tensor_shapeRKNSt3__16vectorIxNS_9allocatorIxEEEE, symObjAddr: 0x5F8, symBinAddr: 0x3D124, symSize: 0x164 }
  - { offset: 0x19B80F, size: 0x8, addend: 0x0, symName: __ZNKSt3__16vectorIxNS_9allocatorIxEEE20__throw_out_of_rangeB8ne190107Ev, symObjAddr: 0x12E4, symBinAddr: 0x3DBC8, symSize: 0x14 }
  - { offset: 0x19B867, size: 0x8, addend: 0x0, symName: __Z25llama_format_tensor_shapePK11ggml_tensor, symObjAddr: 0x75C, symBinAddr: 0x3D288, symSize: 0x160 }
  - { offset: 0x19BD39, size: 0x8, addend: 0x0, symName: __Z14gguf_kv_to_strPK12gguf_contexti, symObjAddr: 0x8BC, symBinAddr: 0x3D3E8, symSize: 0x5E4 }
  - { offset: 0x19D424, size: 0x8, addend: 0x0, symName: __ZL16gguf_data_to_str9gguf_typePKvi, symObjAddr: 0xFD0, symBinAddr: 0x3D9CC, symSize: 0x1FC }
  - { offset: 0x19FC34, size: 0x8, addend: 0x0, symName: __ZN16llama_io_write_i12write_stringERKNSt3__112basic_stringIcNS0_11char_traitsIcEENS0_9allocatorIcEEEE, symObjAddr: 0x0, symBinAddr: 0x3DBDC, symSize: 0x78 }
  - { offset: 0x1A2685, size: 0x8, addend: 0x0, symName: __ZN16llama_io_write_i12write_stringERKNSt3__112basic_stringIcNS0_11char_traitsIcEENS0_9allocatorIcEEEE, symObjAddr: 0x0, symBinAddr: 0x3DBDC, symSize: 0x78 }
  - { offset: 0x1A2794, size: 0x8, addend: 0x0, symName: __ZN15llama_io_read_i11read_stringERNSt3__112basic_stringIcNS0_11char_traitsIcEENS0_9allocatorIcEEEE, symObjAddr: 0x78, symBinAddr: 0x3DC54, symSize: 0x60 }
  - { offset: 0x1B9647, size: 0x8, addend: 0x0, symName: __ZNSt3__113__tree_removeB8ne190107IPNS_16__tree_node_baseIPvEEEEvT_S5_, symObjAddr: 0x51F0, symBinAddr: 0x42A80, symSize: 0x3C8 }
  - { offset: 0x1BE2AA, size: 0x8, addend: 0x0, symName: __ZN22llama_kv_cache_unifiedC2ERK13llama_hparamsNS_9callbacksE, symObjAddr: 0x0, symBinAddr: 0x3DCB4, symSize: 0xAC }
  - { offset: 0x1BE496, size: 0x8, addend: 0x0, symName: __ZN22llama_kv_cache_unifiedC1ERK13llama_hparamsNS_9callbacksE, symObjAddr: 0xAC, symBinAddr: 0x3DD60, symSize: 0xAC }
  - { offset: 0x1BED3A, size: 0x8, addend: 0x0, symName: __ZN22llama_kv_cache_unified4initERK11llama_modelRK13llama_cparams9ggml_typeS6_jb, symObjAddr: 0x158, symBinAddr: 0x3DE0C, symSize: 0x9C0 }
  - { offset: 0x1C2491, size: 0x8, addend: 0x0, symName: __ZNSt3__16vectorI13llama_kv_cellNS_9allocatorIS1_EEE8__appendEm, symObjAddr: 0x4F34, symBinAddr: 0x42834, symSize: 0x238 }
  - { offset: 0x1C2DAC, size: 0x8, addend: 0x0, symName: __ZNKSt3__16vectorI13llama_kv_cellNS_9allocatorIS1_EEE20__throw_length_errorB8ne190107Ev, symObjAddr: 0x516C, symBinAddr: 0x42A6C, symSize: 0x14 }
  - { offset: 0x1C2FA2, size: 0x8, addend: 0x0, symName: __ZNSt3__113__tree_removeB8ne190107IPNS_16__tree_node_baseIPvEEEEvT_S5_, symObjAddr: 0x51F0, symBinAddr: 0x42A80, symSize: 0x3C8 }
  - { offset: 0x1C2FE6, size: 0x8, addend: 0x0, symName: __ZNK22llama_kv_cache_unified12get_n_tokensEv, symObjAddr: 0xB18, symBinAddr: 0x3E7CC, symSize: 0x84 }
  - { offset: 0x1C3042, size: 0x8, addend: 0x0, symName: __ZNK22llama_kv_cache_unified14get_used_cellsEv, symObjAddr: 0xB9C, symBinAddr: 0x3E850, symSize: 0x8 }
  - { offset: 0x1C3099, size: 0x8, addend: 0x0, symName: __ZNK22llama_kv_cache_unified10total_sizeEv, symObjAddr: 0xBA4, symBinAddr: 0x3E858, symSize: 0x60 }
  - { offset: 0x1C31D3, size: 0x8, addend: 0x0, symName: __ZNK22llama_kv_cache_unified7pos_maxEv, symObjAddr: 0xC04, symBinAddr: 0x3E8B8, symSize: 0xA8 }
  - { offset: 0x1C323D, size: 0x8, addend: 0x0, symName: __ZNK22llama_kv_cache_unified7pos_maxEv, symObjAddr: 0xC04, symBinAddr: 0x3E8B8, symSize: 0xA8 }
  - { offset: 0x1C3333, size: 0x8, addend: 0x0, symName: __ZN22llama_kv_cache_unified5clearEv, symObjAddr: 0xCAC, symBinAddr: 0x3E960, symSize: 0xB8 }
  - { offset: 0x1C37BB, size: 0x8, addend: 0x0, symName: __ZN22llama_kv_cache_unified6seq_rmEiii, symObjAddr: 0xD64, symBinAddr: 0x3EA18, symSize: 0x310 }
  - { offset: 0x1C3F74, size: 0x8, addend: 0x0, symName: __ZN22llama_kv_cache_unified6seq_cpEiiii, symObjAddr: 0x1074, symBinAddr: 0x3ED28, symSize: 0x31C }
  - { offset: 0x1C4873, size: 0x8, addend: 0x0, symName: __ZN22llama_kv_cache_unified8seq_keepEi, symObjAddr: 0x1390, symBinAddr: 0x3F044, symSize: 0x1C8 }
  - { offset: 0x1C4CB1, size: 0x8, addend: 0x0, symName: __ZN22llama_kv_cache_unified7seq_addEiiii, symObjAddr: 0x1558, symBinAddr: 0x3F20C, symSize: 0x1E0 }
  - { offset: 0x1C5066, size: 0x8, addend: 0x0, symName: __ZN22llama_kv_cache_unified7seq_divEiiii, symObjAddr: 0x1738, symBinAddr: 0x3F3EC, symSize: 0x144 }
  - { offset: 0x1C53A8, size: 0x8, addend: 0x0, symName: __ZN22llama_kv_cache_unified11seq_pos_maxEi, symObjAddr: 0x187C, symBinAddr: 0x3F530, symSize: 0x84 }
  - { offset: 0x1C5582, size: 0x8, addend: 0x0, symName: __ZN22llama_kv_cache_unified6defragEv, symObjAddr: 0x1900, symBinAddr: 0x3F5B4, symSize: 0x14 }
  - { offset: 0x1C55AA, size: 0x8, addend: 0x0, symName: __ZNK22llama_kv_cache_unified13get_can_shiftEv, symObjAddr: 0x1914, symBinAddr: 0x3F5C8, symSize: 0x8 }
  - { offset: 0x1C56DC, size: 0x8, addend: 0x0, symName: __ZN22llama_kv_cache_unified9find_slotERK12llama_ubatch, symObjAddr: 0x191C, symBinAddr: 0x3F5D0, symSize: 0xEBC }
  - { offset: 0x1C73D5, size: 0x8, addend: 0x0, symName: __ZNK22llama_kv_cache_unified11get_paddingERK13llama_cparams, symObjAddr: 0x27D8, symBinAddr: 0x4048C, symSize: 0x18 }
  - { offset: 0x1C7453, size: 0x8, addend: 0x0, symName: __ZNK22llama_kv_cache_unified11get_paddingERK13llama_cparams, symObjAddr: 0x27D8, symBinAddr: 0x4048C, symSize: 0x18 }
  - { offset: 0x1C74AF, size: 0x8, addend: 0x0, symName: __ZNK22llama_kv_cache_unified8cell_maxEv, symObjAddr: 0x27F0, symBinAddr: 0x404A4, symSize: 0x48 }
  - { offset: 0x1C7571, size: 0x8, addend: 0x0, symName: __ZNK22llama_kv_cache_unified12size_k_bytesEv, symObjAddr: 0x2838, symBinAddr: 0x404EC, symSize: 0x60 }
  - { offset: 0x1C7644, size: 0x8, addend: 0x0, symName: __ZNK22llama_kv_cache_unified12size_v_bytesEv, symObjAddr: 0x2898, symBinAddr: 0x4054C, symSize: 0x60 }
  - { offset: 0x1C7A7E, size: 0x8, addend: 0x0, symName: __ZN22llama_kv_cache_unified14defrag_prepareEi, symObjAddr: 0x28F8, symBinAddr: 0x405AC, symSize: 0x3E4 }
  - { offset: 0x1C8229, size: 0x8, addend: 0x0, symName: __ZNK22llama_kv_cache_unified11state_writeER16llama_io_write_ii, symObjAddr: 0x2CDC, symBinAddr: 0x40990, symSize: 0x45C }
  - { offset: 0x1C823C, size: 0x8, addend: 0x0, symName: __ZNSt3__16vectorIjNS_9allocatorIjEEE8__appendEmRKj, symObjAddr: 0x55B8, symBinAddr: 0x42E48, symSize: 0x1C8 }
  - { offset: 0x1C86E0, size: 0x8, addend: 0x0, symName: __ZNSt3__16__treeIiNS_4lessIiEENS_9allocatorIiEEE14__assign_multiINS_21__tree_const_iteratorIiPNS_11__tree_nodeIiPvEElEEEEvT_SD_, symObjAddr: 0x493C, symBinAddr: 0x4237C, symSize: 0x328 }
  - { offset: 0x1C93FB, size: 0x8, addend: 0x0, symName: __ZNK22llama_kv_cache_unified11state_writeER16llama_io_write_ii, symObjAddr: 0x2CDC, symBinAddr: 0x40990, symSize: 0x45C }
  - { offset: 0x1CA35B, size: 0x8, addend: 0x0, symName: __ZNK22llama_kv_cache_unified16state_write_metaER16llama_io_write_iRKNSt3__16vectorINS2_4pairIjjEENS2_9allocatorIS5_EEEEi, symObjAddr: 0x3138, symBinAddr: 0x40DEC, symSize: 0x15C }
  - { offset: 0x1CA680, size: 0x8, addend: 0x0, symName: __ZNK22llama_kv_cache_unified16state_write_dataER16llama_io_write_iRKNSt3__16vectorINS2_4pairIjjEENS2_9allocatorIS5_EEEE, symObjAddr: 0x3294, symBinAddr: 0x40F48, symSize: 0x398 }
  - { offset: 0x1CAE2A, size: 0x8, addend: 0x0, symName: __ZN22llama_kv_cache_unified10state_readER15llama_io_read_ii, symObjAddr: 0x362C, symBinAddr: 0x412E0, symSize: 0xF0 }
  - { offset: 0x1CAF18, size: 0x8, addend: 0x0, symName: __ZN22llama_kv_cache_unified15state_read_metaER15llama_io_read_iji, symObjAddr: 0x371C, symBinAddr: 0x413D0, symSize: 0x5B0 }
  - { offset: 0x1CB822, size: 0x8, addend: 0x0, symName: __ZN22llama_kv_cache_unified15state_read_dataER15llama_io_read_ij, symObjAddr: 0x3CCC, symBinAddr: 0x41980, symSize: 0x560 }
  - { offset: 0x1CC868, size: 0x8, addend: 0x0, symName: __Z23llama_kv_cache_n_tokensPK14llama_kv_cache, symObjAddr: 0x422C, symBinAddr: 0x41EE0, symSize: 0x14 }
  - { offset: 0x1CC8A2, size: 0x8, addend: 0x0, symName: __Z25llama_kv_cache_used_cellsPK14llama_kv_cache, symObjAddr: 0x4240, symBinAddr: 0x41EF4, symSize: 0x14 }
  - { offset: 0x1CC8C9, size: 0x8, addend: 0x0, symName: __Z20llama_kv_cache_clearP14llama_kv_cache, symObjAddr: 0x4254, symBinAddr: 0x41F08, symSize: 0x14 }
  - { offset: 0x1CC8FF, size: 0x8, addend: 0x0, symName: __Z21llama_kv_cache_seq_rmP14llama_kv_cacheiii, symObjAddr: 0x4268, symBinAddr: 0x41F1C, symSize: 0x18 }
  - { offset: 0x1CC964, size: 0x8, addend: 0x0, symName: __Z21llama_kv_cache_seq_cpP14llama_kv_cacheiiii, symObjAddr: 0x4280, symBinAddr: 0x41F34, symSize: 0x14 }
  - { offset: 0x1CC9D1, size: 0x8, addend: 0x0, symName: __Z23llama_kv_cache_seq_keepP14llama_kv_cachei, symObjAddr: 0x4294, symBinAddr: 0x41F48, symSize: 0x14 }
  - { offset: 0x1CCA14, size: 0x8, addend: 0x0, symName: __Z22llama_kv_cache_seq_addP14llama_kv_cacheiiii, symObjAddr: 0x42A8, symBinAddr: 0x41F5C, symSize: 0x14 }
  - { offset: 0x1CCA81, size: 0x8, addend: 0x0, symName: __Z22llama_kv_cache_seq_divP14llama_kv_cacheiiii, symObjAddr: 0x42BC, symBinAddr: 0x41F70, symSize: 0x14 }
  - { offset: 0x1CCAEF, size: 0x8, addend: 0x0, symName: __Z26llama_kv_cache_seq_pos_maxP14llama_kv_cachei, symObjAddr: 0x42D0, symBinAddr: 0x41F84, symSize: 0x14 }
  - { offset: 0x1CCB36, size: 0x8, addend: 0x0, symName: __Z21llama_kv_cache_defragP14llama_kv_cache, symObjAddr: 0x42E4, symBinAddr: 0x41F98, symSize: 0x14 }
  - { offset: 0x1CCB6C, size: 0x8, addend: 0x0, symName: __Z24llama_kv_cache_can_shiftPK14llama_kv_cache, symObjAddr: 0x42F8, symBinAddr: 0x41FAC, symSize: 0x14 }
  - { offset: 0x1CCBC9, size: 0x8, addend: 0x0, symName: __Z24llama_kv_cache_view_initRK14llama_kv_cachei, symObjAddr: 0x430C, symBinAddr: 0x41FC0, symSize: 0x40 }
  - { offset: 0x1CCC4A, size: 0x8, addend: 0x0, symName: _llama_kv_cache_view_free, symObjAddr: 0x434C, symBinAddr: 0x42000, symSize: 0x3C }
  - { offset: 0x1CCC9B, size: 0x8, addend: 0x0, symName: __Z26llama_kv_cache_view_updateP19llama_kv_cache_viewPK14llama_kv_cache, symObjAddr: 0x4388, symBinAddr: 0x4203C, symSize: 0x318 }
  - { offset: 0x1CCFBC, size: 0x8, addend: 0x0, symName: __ZNK14llama_kv_cache12get_can_editEv, symObjAddr: 0x46A0, symBinAddr: 0x42354, symSize: 0xC }
  - { offset: 0x1CCFE6, size: 0x8, addend: 0x0, symName: __ZNK14llama_kv_cache12get_can_editEv, symObjAddr: 0x46A0, symBinAddr: 0x42354, symSize: 0xC }
  - { offset: 0x1CD01F, size: 0x8, addend: 0x0, symName: __ZN22llama_kv_cache_unifiedD1Ev, symObjAddr: 0x46AC, symBinAddr: 0x42360, symSize: 0x4 }
  - { offset: 0x1CD042, size: 0x8, addend: 0x0, symName: __ZN22llama_kv_cache_unifiedD1Ev, symObjAddr: 0x46AC, symBinAddr: 0x42360, symSize: 0x4 }
  - { offset: 0x1CD055, size: 0x8, addend: 0x0, symName: __ZN22llama_kv_cache_unifiedD2Ev, symObjAddr: 0x4DA4, symBinAddr: 0x426A4, symSize: 0x190 }
  - { offset: 0x1CDD9B, size: 0x8, addend: 0x0, symName: __ZN22llama_kv_cache_unifiedD0Ev, symObjAddr: 0x46B0, symBinAddr: 0x42364, symSize: 0x18 }
  - { offset: 0x1CF0DD, size: 0x8, addend: 0x0, symName: __ZNKSt3__16vectorI13llama_kv_cellNS_9allocatorIS1_EEE20__throw_length_errorB8ne190107Ev, symObjAddr: 0x516C, symBinAddr: 0x42A6C, symSize: 0x14 }
  - { offset: 0x1D1385, size: 0x8, addend: 0x0, symName: __ZN10llama_mmap9SUPPORTEDE, symObjAddr: 0x14CC, symBinAddr: 0x1BF96B, symSize: 0x0 }
  - { offset: 0x1D6EF5, size: 0x8, addend: 0x0, symName: __ZN11llama_mlock9SUPPORTEDE, symObjAddr: 0x14CD, symBinAddr: 0x1BF96C, symSize: 0x0 }
  - { offset: 0x1D72CE, size: 0x8, addend: 0x0, symName: __ZN10llama_fileC2EPKcS1_, symObjAddr: 0x0, symBinAddr: 0x43010, symSize: 0x64 }
  - { offset: 0x1D73EF, size: 0x8, addend: 0x0, symName: __ZN10llama_file4implC2EPKcS2_, symObjAddr: 0xF20, symBinAddr: 0x43E84, symSize: 0x110 }
  - { offset: 0x1D7649, size: 0x8, addend: 0x0, symName: __ZN10llama_fileC1EPKcS1_, symObjAddr: 0x64, symBinAddr: 0x43074, symSize: 0x64 }
  - { offset: 0x1D7865, size: 0x8, addend: 0x0, symName: __ZN10llama_fileD2Ev, symObjAddr: 0xC8, symBinAddr: 0x430D8, symSize: 0x44 }
  - { offset: 0x1D798B, size: 0x8, addend: 0x0, symName: __ZN10llama_fileD1Ev, symObjAddr: 0x10C, symBinAddr: 0x4311C, symSize: 0x44 }
  - { offset: 0x1D7AC7, size: 0x8, addend: 0x0, symName: __ZNK10llama_file4tellEv, symObjAddr: 0x150, symBinAddr: 0x43160, symSize: 0x8 }
  - { offset: 0x1D7AF2, size: 0x8, addend: 0x0, symName: __ZNK10llama_file4tellEv, symObjAddr: 0x150, symBinAddr: 0x43160, symSize: 0x8 }
  - { offset: 0x1D7B1A, size: 0x8, addend: 0x0, symName: __ZNK10llama_file4impl4tellEv, symObjAddr: 0x158, symBinAddr: 0x43168, symSize: 0xD4 }
  - { offset: 0x1D7E03, size: 0x8, addend: 0x0, symName: __ZNK10llama_file4sizeEv, symObjAddr: 0x22C, symBinAddr: 0x4323C, symSize: 0xC }
  - { offset: 0x1D7E27, size: 0x8, addend: 0x0, symName: __ZNK10llama_file4sizeEv, symObjAddr: 0x22C, symBinAddr: 0x4323C, symSize: 0xC }
  - { offset: 0x1D7E41, size: 0x8, addend: 0x0, symName: __ZNK10llama_file7file_idEv, symObjAddr: 0x238, symBinAddr: 0x43248, symSize: 0xC }
  - { offset: 0x1D7E65, size: 0x8, addend: 0x0, symName: __ZNK10llama_file7file_idEv, symObjAddr: 0x238, symBinAddr: 0x43248, symSize: 0xC }
  - { offset: 0x1D7EA1, size: 0x8, addend: 0x0, symName: __ZNK10llama_file4seekEmi, symObjAddr: 0x244, symBinAddr: 0x43254, symSize: 0x8 }
  - { offset: 0x1D7EE9, size: 0x8, addend: 0x0, symName: __ZNK10llama_file4seekEmi, symObjAddr: 0x244, symBinAddr: 0x43254, symSize: 0x8 }
  - { offset: 0x1D7F21, size: 0x8, addend: 0x0, symName: __ZNK10llama_file4impl4seekEmi, symObjAddr: 0x24C, symBinAddr: 0x4325C, symSize: 0xD0 }
  - { offset: 0x1D8121, size: 0x8, addend: 0x0, symName: __ZNK10llama_file8read_rawEPvm, symObjAddr: 0x31C, symBinAddr: 0x4332C, symSize: 0x8 }
  - { offset: 0x1D8169, size: 0x8, addend: 0x0, symName: __ZNK10llama_file8read_rawEPvm, symObjAddr: 0x31C, symBinAddr: 0x4332C, symSize: 0x8 }
  - { offset: 0x1D81A1, size: 0x8, addend: 0x0, symName: __ZNK10llama_file4impl8read_rawEPvm, symObjAddr: 0x324, symBinAddr: 0x43334, symSize: 0x150 }
  - { offset: 0x1D83FD, size: 0x8, addend: 0x0, symName: __ZNK10llama_file8read_u32Ev, symObjAddr: 0x474, symBinAddr: 0x43484, symSize: 0x2C }
  - { offset: 0x1D8485, size: 0x8, addend: 0x0, symName: __ZNK10llama_file9write_rawEPKvm, symObjAddr: 0x4A0, symBinAddr: 0x434B0, symSize: 0x8 }
  - { offset: 0x1D84CD, size: 0x8, addend: 0x0, symName: __ZNK10llama_file9write_rawEPKvm, symObjAddr: 0x4A0, symBinAddr: 0x434B0, symSize: 0x8 }
  - { offset: 0x1D8505, size: 0x8, addend: 0x0, symName: __ZNK10llama_file4impl9write_rawEPKvm, symObjAddr: 0x4A8, symBinAddr: 0x434B8, symSize: 0xF8 }
  - { offset: 0x1D873F, size: 0x8, addend: 0x0, symName: __ZNK10llama_file9write_u32Ej, symObjAddr: 0x5A0, symBinAddr: 0x435B0, symSize: 0x2C }
  - { offset: 0x1D8940, size: 0x8, addend: 0x0, symName: __ZN10llama_mmapC2EP10llama_filemb, symObjAddr: 0x5CC, symBinAddr: 0x435DC, symSize: 0x74 }
  - { offset: 0x1D8A7D, size: 0x8, addend: 0x0, symName: __ZN10llama_mmap4implC2EP10llama_filemb, symObjAddr: 0x1030, symBinAddr: 0x43F94, symSize: 0x2A0 }
  - { offset: 0x1D948B, size: 0x8, addend: 0x0, symName: __ZN10llama_mmapC1EP10llama_filemb, symObjAddr: 0x640, symBinAddr: 0x43650, symSize: 0x74 }
  - { offset: 0x1D96BD, size: 0x8, addend: 0x0, symName: __ZN10llama_mmapD2Ev, symObjAddr: 0x6B4, symBinAddr: 0x436C4, symSize: 0x40 }
  - { offset: 0x1D979E, size: 0x8, addend: 0x0, symName: __ZN10llama_mmap4implD2Ev, symObjAddr: 0x12D0, symBinAddr: 0x44234, symSize: 0xAC }
  - { offset: 0x1D9A27, size: 0x8, addend: 0x0, symName: __ZN10llama_mmapD1Ev, symObjAddr: 0x6F4, symBinAddr: 0x43704, symSize: 0x40 }
  - { offset: 0x1D9B4E, size: 0x8, addend: 0x0, symName: __ZNK10llama_mmap4sizeEv, symObjAddr: 0x734, symBinAddr: 0x43744, symSize: 0xC }
  - { offset: 0x1D9B7A, size: 0x8, addend: 0x0, symName: __ZNK10llama_mmap4sizeEv, symObjAddr: 0x734, symBinAddr: 0x43744, symSize: 0xC }
  - { offset: 0x1D9B95, size: 0x8, addend: 0x0, symName: __ZNK10llama_mmap4addrEv, symObjAddr: 0x740, symBinAddr: 0x43750, symSize: 0xC }
  - { offset: 0x1D9BC1, size: 0x8, addend: 0x0, symName: __ZNK10llama_mmap4addrEv, symObjAddr: 0x740, symBinAddr: 0x43750, symSize: 0xC }
  - { offset: 0x1D9BDC, size: 0x8, addend: 0x0, symName: __ZN10llama_mmap14unmap_fragmentEmm, symObjAddr: 0x74C, symBinAddr: 0x4375C, symSize: 0x8 }
  - { offset: 0x1D9C24, size: 0x8, addend: 0x0, symName: __ZN10llama_mmap14unmap_fragmentEmm, symObjAddr: 0x74C, symBinAddr: 0x4375C, symSize: 0x8 }
  - { offset: 0x1D9C5C, size: 0x8, addend: 0x0, symName: __ZN10llama_mmap4impl14unmap_fragmentEmm, symObjAddr: 0x754, symBinAddr: 0x43764, symSize: 0x4E4 }
  - { offset: 0x1DB993, size: 0x8, addend: 0x0, symName: __ZNKSt3__16vectorINS_4pairImmEENS_9allocatorIS2_EEE20__throw_length_errorB8ne190107Ev, symObjAddr: 0xE70, symBinAddr: 0x43E70, symSize: 0x14 }
  - { offset: 0x1DBB34, size: 0x8, addend: 0x0, symName: __ZN11llama_mlockC2Ev, symObjAddr: 0xC38, symBinAddr: 0x43C48, symSize: 0x34 }
  - { offset: 0x1DBC63, size: 0x8, addend: 0x0, symName: __ZN11llama_mlockC1Ev, symObjAddr: 0xC6C, symBinAddr: 0x43C7C, symSize: 0x34 }
  - { offset: 0x1DBE21, size: 0x8, addend: 0x0, symName: __ZN11llama_mlockD2Ev, symObjAddr: 0xCA0, symBinAddr: 0x43CB0, symSize: 0x38 }
  - { offset: 0x1DBE45, size: 0x8, addend: 0x0, symName: __ZN11llama_mlockD2Ev, symObjAddr: 0xCA0, symBinAddr: 0x43CB0, symSize: 0x38 }
  - { offset: 0x1DBE63, size: 0x8, addend: 0x0, symName: __ZN11llama_mlockD2Ev, symObjAddr: 0xCA0, symBinAddr: 0x43CB0, symSize: 0x38 }
  - { offset: 0x1DBE81, size: 0x8, addend: 0x0, symName: __ZN11llama_mlockD2Ev, symObjAddr: 0xCA0, symBinAddr: 0x43CB0, symSize: 0x38 }
  - { offset: 0x1DBEF5, size: 0x8, addend: 0x0, symName: __ZN11llama_mlockD1Ev, symObjAddr: 0xCD8, symBinAddr: 0x43CE8, symSize: 0x38 }
  - { offset: 0x1DBF25, size: 0x8, addend: 0x0, symName: __ZN11llama_mlockD1Ev, symObjAddr: 0xCD8, symBinAddr: 0x43CE8, symSize: 0x38 }
  - { offset: 0x1DBF43, size: 0x8, addend: 0x0, symName: __ZN11llama_mlockD1Ev, symObjAddr: 0xCD8, symBinAddr: 0x43CE8, symSize: 0x38 }
  - { offset: 0x1DBF61, size: 0x8, addend: 0x0, symName: __ZN11llama_mlockD1Ev, symObjAddr: 0xCD8, symBinAddr: 0x43CE8, symSize: 0x38 }
  - { offset: 0x1DBF7F, size: 0x8, addend: 0x0, symName: __ZN11llama_mlockD1Ev, symObjAddr: 0xCD8, symBinAddr: 0x43CE8, symSize: 0x38 }
  - { offset: 0x1DC014, size: 0x8, addend: 0x0, symName: __ZN11llama_mlock4initEPv, symObjAddr: 0xD10, symBinAddr: 0x43D20, symSize: 0x4C }
  - { offset: 0x1DC050, size: 0x8, addend: 0x0, symName: __ZN11llama_mlock4initEPv, symObjAddr: 0xD10, symBinAddr: 0x43D20, symSize: 0x4C }
  - { offset: 0x1DC084, size: 0x8, addend: 0x0, symName: __ZN11llama_mlock7grow_toEm, symObjAddr: 0xD5C, symBinAddr: 0x43D6C, symSize: 0x8 }
  - { offset: 0x1DC097, size: 0x8, addend: 0x0, symName: __ZN11llama_mlock7grow_toEm, symObjAddr: 0xD5C, symBinAddr: 0x43D6C, symSize: 0x8 }
  - { offset: 0x1DC0D1, size: 0x8, addend: 0x0, symName: __ZN11llama_mlock7grow_toEm, symObjAddr: 0xD5C, symBinAddr: 0x43D6C, symSize: 0x8 }
  - { offset: 0x1DC102, size: 0x8, addend: 0x0, symName: __ZN11llama_mlock4impl7grow_toEm, symObjAddr: 0xD64, symBinAddr: 0x43D74, symSize: 0xF4 }
  - { offset: 0x1DC1FA, size: 0x8, addend: 0x0, symName: __Z14llama_path_maxv, symObjAddr: 0xE58, symBinAddr: 0x43E68, symSize: 0x8 }
  - { offset: 0x1DC276, size: 0x8, addend: 0x0, symName: __Z14llama_path_maxv, symObjAddr: 0xE58, symBinAddr: 0x43E68, symSize: 0x8 }
  - { offset: 0x200C24, size: 0x8, addend: 0x0, symName: __ZNSt3__120__throw_future_errorB8ne190107ENS_11future_errcE, symObjAddr: 0xA464, symBinAddr: 0x4DDC4, symSize: 0x5C }
  - { offset: 0x2017C2, size: 0x8, addend: 0x0, symName: '__ZNSt3__114__thread_proxyB8ne190107INS_5tupleIJNS_10unique_ptrINS_15__thread_structENS_14default_deleteIS3_EEEEMNS_19__async_assoc_stateINS_4pairIP11ggml_tensorbEENS_12__async_funcIZN18llama_model_loader13load_all_dataEP12ggml_contextRNS_13unordered_mapIjP19ggml_backend_bufferNS_4hashIjEENS_8equal_toIjEENS_9allocatorINS8_IKjSI_EEEEEEPNS_6vectorINS2_I11llama_mlockNS4_ISU_EEEENSN_ISW_EEEEPFbfPvES10_E3$_1JEEEEEFvvEPS15_EEEEES10_S10_', symObjAddr: 0xA4C0, symBinAddr: 0x4DE20, symSize: 0x94 }
  - { offset: 0x201D4C, size: 0x8, addend: 0x0, symName: '__ZNSt3__114__thread_proxyB8ne190107INS_5tupleIJNS_10unique_ptrINS_15__thread_structENS_14default_deleteIS3_EEEEMNS_19__async_assoc_stateINS_4pairIP11ggml_tensorbEENS_12__async_funcIZN18llama_model_loader13load_all_dataEP12ggml_contextRNS_13unordered_mapIjP19ggml_backend_bufferNS_4hashIjEENS_8equal_toIjEENS_9allocatorINS8_IKjSI_EEEEEEPNS_6vectorINS2_I11llama_mlockNS4_ISU_EEEENSN_ISW_EEEEPFbfPvES10_E3$_2JEEEEEFvvEPS15_EEEEES10_S10_', symObjAddr: 0xA994, symBinAddr: 0x4E2F4, symSize: 0x94 }
  - { offset: 0x206DDF, size: 0x8, addend: 0x0, symName: __ZN18llama_model_loader13load_all_dataEP12ggml_contextRNSt3__113unordered_mapIjP19ggml_backend_bufferNS2_4hashIjEENS2_8equal_toIjEENS2_9allocatorINS2_4pairIKjS5_EEEEEEPNS2_6vectorINS2_10unique_ptrI11llama_mlockNS2_14default_deleteISJ_EEEENSA_ISM_EEEEPFbfPvESQ_, symObjAddr: 0x55F0, symBinAddr: 0x49774, symSize: 0x1488 }
  - { offset: 0x20B758, size: 0x8, addend: 0x0, symName: __Z23llama_file_version_name10llama_fver, symObjAddr: 0x0, symBinAddr: 0x442E0, symSize: 0x28 }
  - { offset: 0x20B853, size: 0x8, addend: 0x0, symName: __ZN18llama_model_loader9get_arr_nIjEENSt3__19enable_ifIXsr3std11is_integralIT_EE5valueEbE4typeE6llm_kvRS3_b, symObjAddr: 0x28, symBinAddr: 0x44308, symSize: 0xB0 }
  - { offset: 0x20BB5B, size: 0x8, addend: 0x0, symName: __ZN18llama_model_loader9get_arr_nIjEENSt3__19enable_ifIXsr3std11is_integralIT_EE5valueEbE4typeERKNS1_12basic_stringIcNS1_11char_traitsIcEENS1_9allocatorIcEEEERS3_b, symObjAddr: 0xD8, symBinAddr: 0x443B8, symSize: 0x128 }
  - { offset: 0x20BF06, size: 0x8, addend: 0x0, symName: __ZN8GGUFMeta3GKVINS_9ArrayInfoEE6get_kvEPK12gguf_contexti, symObjAddr: 0x742C, symBinAddr: 0x4B4C8, symSize: 0x158 }
  - { offset: 0x20C185, size: 0x8, addend: 0x0, symName: __ZN18llama_model_loader7get_keyIbEEb6llm_kvRT_b, symObjAddr: 0x200, symBinAddr: 0x444E0, symSize: 0xB0 }
  - { offset: 0x20C48D, size: 0x8, addend: 0x0, symName: __ZN18llama_model_loader7get_keyIbEEbRKNSt3__112basic_stringIcNS1_11char_traitsIcEENS1_9allocatorIcEEEERT_b, symObjAddr: 0x2B0, symBinAddr: 0x44590, symSize: 0x164 }
  - { offset: 0x20C985, size: 0x8, addend: 0x0, symName: __ZNSt3__112__hash_tableINS_17__hash_value_typeINS_12basic_stringIcNS_11char_traitsIcEENS_9allocatorIcEEEE23llama_model_kv_overrideEENS_22__unordered_map_hasherIS7_S9_NS_4hashIS7_EENS_8equal_toIS7_EELb1EEENS_21__unordered_map_equalIS7_S9_SE_SC_Lb1EEENS5_IS9_EEE4findIS7_EENS_15__hash_iteratorIPNS_11__hash_nodeIS9_PvEEEERKT_, symObjAddr: 0x7584, symBinAddr: 0x4B620, symSize: 0x1B4 }
  - { offset: 0x20CCAB, size: 0x8, addend: 0x0, symName: __ZN8GGUFMeta3GKVIbE17validate_overrideE28llama_model_kv_override_typePK23llama_model_kv_override, symObjAddr: 0x7C8C, symBinAddr: 0x4B8DC, symSize: 0x248 }
  - { offset: 0x20CECA, size: 0x8, addend: 0x0, symName: __ZN8GGUFMeta3GKVIbE6get_kvEPK12gguf_contexti, symObjAddr: 0x7B84, symBinAddr: 0x4B7D4, symSize: 0x108 }
  - { offset: 0x20D0D8, size: 0x8, addend: 0x0, symName: __ZN18llama_model_loader7get_keyIfEEb6llm_kvRT_b, symObjAddr: 0x414, symBinAddr: 0x446F4, symSize: 0xB0 }
  - { offset: 0x20D3E0, size: 0x8, addend: 0x0, symName: __ZN18llama_model_loader7get_keyIfEEbRKNSt3__112basic_stringIcNS1_11char_traitsIcEENS1_9allocatorIcEEEERT_b, symObjAddr: 0x4C4, symBinAddr: 0x447A4, symSize: 0x168 }
  - { offset: 0x20D8B1, size: 0x8, addend: 0x0, symName: __ZN8GGUFMeta3GKVIfE17validate_overrideE28llama_model_kv_override_typePK23llama_model_kv_override, symObjAddr: 0x7FDC, symBinAddr: 0x4BC2C, symSize: 0x248 }
  - { offset: 0x20DAD0, size: 0x8, addend: 0x0, symName: __ZN8GGUFMeta3GKVIfE6get_kvEPK12gguf_contexti, symObjAddr: 0x7ED4, symBinAddr: 0x4BB24, symSize: 0x108 }
  - { offset: 0x20DCDE, size: 0x8, addend: 0x0, symName: __ZN18llama_model_loader7get_keyIjEEb6llm_kvRT_b, symObjAddr: 0x62C, symBinAddr: 0x4490C, symSize: 0xB0 }
  - { offset: 0x20DFC3, size: 0x8, addend: 0x0, symName: __ZN18llama_model_loader7get_keyIjEEbRKNSt3__112basic_stringIcNS1_11char_traitsIcEENS1_9allocatorIcEEEERT_b, symObjAddr: 0x6DC, symBinAddr: 0x449BC, symSize: 0x164 }
  - { offset: 0x20E494, size: 0x8, addend: 0x0, symName: __ZN8GGUFMeta3GKVIjE17validate_overrideE28llama_model_kv_override_typePK23llama_model_kv_override, symObjAddr: 0x832C, symBinAddr: 0x4BF7C, symSize: 0x248 }
  - { offset: 0x20E6B3, size: 0x8, addend: 0x0, symName: __ZN8GGUFMeta3GKVIjE6get_kvEPK12gguf_contexti, symObjAddr: 0x8224, symBinAddr: 0x4BE74, symSize: 0x108 }
  - { offset: 0x20E8CF, size: 0x8, addend: 0x0, symName: __ZN18llama_model_loader7get_keyINSt3__112basic_stringIcNS1_11char_traitsIcEENS1_9allocatorIcEEEEEEb6llm_kvRT_b, symObjAddr: 0x840, symBinAddr: 0x44B20, symSize: 0xB0 }
  - { offset: 0x20EBD7, size: 0x8, addend: 0x0, symName: __ZN18llama_model_loader7get_keyINSt3__112basic_stringIcNS1_11char_traitsIcEENS1_9allocatorIcEEEEEEbRKS7_RT_b, symObjAddr: 0x8F0, symBinAddr: 0x44BD0, symSize: 0x194 }
  - { offset: 0x20F29A, size: 0x8, addend: 0x0, symName: __ZN8GGUFMeta3GKVINSt3__112basic_stringIcNS1_11char_traitsIcEENS1_9allocatorIcEEEEE17validate_overrideE28llama_model_kv_override_typePK23llama_model_kv_override, symObjAddr: 0x8704, symBinAddr: 0x4C354, symSize: 0x248 }
  - { offset: 0x20F4B9, size: 0x8, addend: 0x0, symName: __ZN8GGUFMeta3GKVINSt3__112basic_stringIcNS1_11char_traitsIcEENS1_9allocatorIcEEEEE6get_kvEPK12gguf_contexti, symObjAddr: 0x8574, symBinAddr: 0x4C1C4, symSize: 0x190 }
  - { offset: 0x20F98A, size: 0x8, addend: 0x0, symName: __ZN18llama_model_loader7get_keyI18llama_pooling_typeEEb6llm_kvRT_b, symObjAddr: 0xA84, symBinAddr: 0x44D64, symSize: 0xAC }
  - { offset: 0x20FCF4, size: 0x8, addend: 0x0, symName: __ZN18llama_model_loader14get_key_or_arrINSt3__15arrayIiLm4EEEEEb6llm_kvRT_jb, symObjAddr: 0xB30, symBinAddr: 0x44E10, symSize: 0xB8 }
  - { offset: 0x210012, size: 0x8, addend: 0x0, symName: __ZN18llama_model_loader14get_key_or_arrIiLm4EEEbRKNSt3__112basic_stringIcNS1_11char_traitsIcEENS1_9allocatorIcEEEERNS1_5arrayIT_XT0_EEEjb, symObjAddr: 0xBE8, symBinAddr: 0x44EC8, symSize: 0x334 }
  - { offset: 0x210714, size: 0x8, addend: 0x0, symName: __ZN18llama_model_loader7get_arrIiLm4EEEbRKNSt3__112basic_stringIcNS1_11char_traitsIcEENS1_9allocatorIcEEEERNS1_5arrayIT_XT0_EEEb, symObjAddr: 0x894C, symBinAddr: 0x4C59C, symSize: 0x2A8 }
  - { offset: 0x210DEC, size: 0x8, addend: 0x0, symName: __ZN18llama_model_loader7get_keyIiEEbRKNSt3__112basic_stringIcNS1_11char_traitsIcEENS1_9allocatorIcEEEERT_b, symObjAddr: 0x3E88, symBinAddr: 0x4800C, symSize: 0x164 }
  - { offset: 0x2111F5, size: 0x8, addend: 0x0, symName: __ZN18llama_model_loader14get_key_or_arrINSt3__15arrayIjLm512EEEEEb6llm_kvRT_jb, symObjAddr: 0xF1C, symBinAddr: 0x451FC, symSize: 0xB8 }
  - { offset: 0x211513, size: 0x8, addend: 0x0, symName: __ZN18llama_model_loader14get_key_or_arrIjLm512EEEbRKNSt3__112basic_stringIcNS1_11char_traitsIcEENS1_9allocatorIcEEEERNS1_5arrayIT_XT0_EEEjb, symObjAddr: 0xFD4, symBinAddr: 0x452B4, symSize: 0x2F8 }
  - { offset: 0x211AEF, size: 0x8, addend: 0x0, symName: __ZN18llama_model_loader7get_arrIjLm512EEEbRKNSt3__112basic_stringIcNS1_11char_traitsIcEENS1_9allocatorIcEEEERNS1_5arrayIT_XT0_EEEb, symObjAddr: 0x8BF4, symBinAddr: 0x4C844, symSize: 0x2A8 }
  - { offset: 0x214F50, size: 0x8, addend: 0x0, symName: __ZN18llama_model_loaderC2ERKNSt3__112basic_stringIcNS0_11char_traitsIcEENS0_9allocatorIcEEEERNS0_6vectorIS6_NS4_IS6_EEEEbbPK23llama_model_kv_override, symObjAddr: 0x12CC, symBinAddr: 0x455AC, symSize: 0x28FC }
  - { offset: 0x21F09F, size: 0x8, addend: 0x0, symName: __ZNSt3__112__hash_tableINS_17__hash_value_typeINS_12basic_stringIcNS_11char_traitsIcEENS_9allocatorIcEEEE23llama_model_kv_overrideEENS_22__unordered_map_hasherIS7_S9_NS_4hashIS7_EENS_8equal_toIS7_EELb1EEENS_21__unordered_map_equalIS7_S9_SE_SC_Lb1EEENS5_IS9_EEE25__emplace_unique_key_argsIS7_JNS_4pairIKS7_S8_EEEEENSL_INS_15__hash_iteratorIPNS_11__hash_nodeIS9_PvEEEEbEERKT_DpOT0_, symObjAddr: 0x8F0C, symBinAddr: 0x4CB5C, symSize: 0x440 }
  - { offset: 0x21FAEC, size: 0x8, addend: 0x0, symName: __ZNK18llama_model_loader20weight_name_comparerclERKNSt3__112basic_stringIcNS1_11char_traitsIcEENS1_9allocatorIcEEEES9_, symObjAddr: 0x9648, symBinAddr: 0x4D1F8, symSize: 0xF4 }
  - { offset: 0x21FE26, size: 0x8, addend: 0x0, symName: __ZN18llama_model_loader19llama_tensor_weightC2EPK10llama_filetPK12gguf_contextP11ggml_tensor, symObjAddr: 0x7060, symBinAddr: 0x4B1D4, symSize: 0x1C0 }
  - { offset: 0x2200D9, size: 0x8, addend: 0x0, symName: __ZNSt3__16__treeINS_12__value_typeINS_12basic_stringIcNS_11char_traitsIcEENS_9allocatorIcEEEEN18llama_model_loader19llama_tensor_weightEEENS_19__map_value_compareIS7_SA_NS8_20weight_name_comparerELb1EEENS5_ISA_EEE25__emplace_unique_key_argsIS7_JRS7_S9_EEENS_4pairINS_15__tree_iteratorISA_PNS_11__tree_nodeISA_PvEElEEbEERKT_DpOT0_, symObjAddr: 0x973C, symBinAddr: 0x4D2EC, symSize: 0x15C }
  - { offset: 0x2204DE, size: 0x8, addend: 0x0, symName: __ZN8GGUFMeta3GKVItE17validate_overrideE28llama_model_kv_override_typePK23llama_model_kv_override, symObjAddr: 0x9BC0, symBinAddr: 0x4D5BC, symSize: 0x248 }
  - { offset: 0x2206FD, size: 0x8, addend: 0x0, symName: __ZN8GGUFMeta3GKVItE6get_kvEPK12gguf_contexti, symObjAddr: 0x9AB8, symBinAddr: 0x4D4B4, symSize: 0x108 }
  - { offset: 0x220919, size: 0x8, addend: 0x0, symName: __ZN18llama_model_loader7get_keyItEEbRKNSt3__112basic_stringIcNS1_11char_traitsIcEENS1_9allocatorIcEEEERT_b, symObjAddr: 0x3C70, symBinAddr: 0x47EA8, symSize: 0x164 }
  - { offset: 0x220E93, size: 0x8, addend: 0x0, symName: __ZNKSt3__16vectorINS_10unique_ptrI10llama_fileNS_14default_deleteIS2_EEEENS_9allocatorIS5_EEE20__throw_length_errorB8ne190107Ev, symObjAddr: 0x9620, symBinAddr: 0x4D1E4, symSize: 0x14 }
  - { offset: 0x220FA6, size: 0x8, addend: 0x0, symName: __ZNSt3__16__treeINS_12__value_typeI9ggml_typejEENS_19__map_value_compareIS2_S3_NS_4lessIS2_EELb1EEENS_9allocatorIS3_EEE7destroyEPNS_11__tree_nodeIS3_PvEE, symObjAddr: 0xA158, symBinAddr: 0x4DB54, symSize: 0x48 }
  - { offset: 0x221103, size: 0x8, addend: 0x0, symName: __ZNKSt3__16vectorINS_10unique_ptrI10llama_fileNS_14default_deleteIS2_EEEENS_9allocatorIS5_EEE20__throw_length_errorB8ne190107Ev, symObjAddr: 0x9620, symBinAddr: 0x4D1E4, symSize: 0x14 }
  - { offset: 0x221150, size: 0x8, addend: 0x0, symName: __ZNK18llama_model_loader20weight_name_comparerclERKNSt3__112basic_stringIcNS1_11char_traitsIcEENS1_9allocatorIcEEEES9_, symObjAddr: 0x9648, symBinAddr: 0x4D1F8, symSize: 0xF4 }
  - { offset: 0x221173, size: 0x8, addend: 0x0, symName: __ZNSt3__16vectorIP18ggml_backend_eventNS_9allocatorIS2_EEE12emplace_backIJRS2_EEES7_DpOT_, symObjAddr: 0x72F8, symBinAddr: 0x4B394, symSize: 0xF8 }
  - { offset: 0x221364, size: 0x8, addend: 0x0, symName: __ZNSt3__110unique_ptrINS_11__tree_nodeINS_12__value_typeINS_12basic_stringIcNS_11char_traitsIcEENS_9allocatorIcEEEEN18llama_model_loader19llama_tensor_weightEEEPvEENS_22__tree_node_destructorINS6_ISD_EEEEED1B8ne190107Ev, symObjAddr: 0x9898, symBinAddr: 0x4D448, symSize: 0x6C }
  - { offset: 0x2216F4, size: 0x8, addend: 0x0, symName: __ZNSt3__16vectorINS_10unique_ptrI12ggml_context20ggml_context_deleterEENS_9allocatorIS4_EEED1B8ne190107Ev, symObjAddr: 0x3FEC, symBinAddr: 0x48170, symSize: 0x78 }
  - { offset: 0x22193F, size: 0x8, addend: 0x0, symName: __ZNSt3__113unordered_mapINS_12basic_stringIcNS_11char_traitsIcEENS_9allocatorIcEEEE23llama_model_kv_overrideNS_4hashIS6_EENS_8equal_toIS6_EENS4_INS_4pairIKS6_S7_EEEEED1B8ne190107Ev, symObjAddr: 0x4064, symBinAddr: 0x481E8, symSize: 0x7C }
  - { offset: 0x221DE8, size: 0x8, addend: 0x0, symName: __ZNSt3__16__treeINS_12__value_typeINS_12basic_stringIcNS_11char_traitsIcEENS_9allocatorIcEEEEN18llama_model_loader19llama_tensor_weightEEENS_19__map_value_compareIS7_SA_NS8_20weight_name_comparerELb1EEENS5_ISA_EEE7destroyEPNS_11__tree_nodeISA_PvEE, symObjAddr: 0x8E9C, symBinAddr: 0x4CAEC, symSize: 0x70 }
  - { offset: 0x22208A, size: 0x8, addend: 0x0, symName: __ZNSt3__16vectorINS_10unique_ptrI10llama_mmapNS_14default_deleteIS2_EEEENS_9allocatorIS5_EEED1B8ne190107Ev, symObjAddr: 0x40E0, symBinAddr: 0x48264, symSize: 0x7C }
  - { offset: 0x2222FB, size: 0x8, addend: 0x0, symName: __ZNSt3__16vectorINS_10unique_ptrI10llama_fileNS_14default_deleteIS2_EEEENS_9allocatorIS5_EEED1B8ne190107Ev, symObjAddr: 0x415C, symBinAddr: 0x482E0, symSize: 0x7C }
  - { offset: 0x2226EB, size: 0x8, addend: 0x0, symName: __ZN18llama_model_loader7get_keyItEEbRKNSt3__112basic_stringIcNS1_11char_traitsIcEENS1_9allocatorIcEEEERT_b, symObjAddr: 0x3C70, symBinAddr: 0x47EA8, symSize: 0x164 }
  - { offset: 0x2227F9, size: 0x8, addend: 0x0, symName: __ZN8GGUFMeta3GKVIiE17validate_overrideE28llama_model_kv_override_typePK23llama_model_kv_override, symObjAddr: 0x9F10, symBinAddr: 0x4D90C, symSize: 0x248 }
  - { offset: 0x222A18, size: 0x8, addend: 0x0, symName: __ZN8GGUFMeta3GKVIiE6get_kvEPK12gguf_contexti, symObjAddr: 0x9E08, symBinAddr: 0x4D804, symSize: 0x108 }
  - { offset: 0x2232AD, size: 0x8, addend: 0x0, symName: __ZN18llama_model_loaderC1ERKNSt3__112basic_stringIcNS0_11char_traitsIcEENS0_9allocatorIcEEEERNS0_6vectorIS6_NS4_IS6_EEEEbbPK23llama_model_kv_override, symObjAddr: 0x41D8, symBinAddr: 0x4835C, symSize: 0x4 }
  - { offset: 0x22332C, size: 0x8, addend: 0x0, symName: __ZN18llama_model_loaderC1ERKNSt3__112basic_stringIcNS0_11char_traitsIcEENS0_9allocatorIcEEEERNS0_6vectorIS6_NS4_IS6_EEEEbbPK23llama_model_kv_override, symObjAddr: 0x41D8, symBinAddr: 0x4835C, symSize: 0x4 }
  - { offset: 0x223362, size: 0x8, addend: 0x0, symName: __ZNK18llama_model_loader13get_arch_nameEv, symObjAddr: 0x41DC, symBinAddr: 0x48360, symSize: 0x28 }
  - { offset: 0x2233A8, size: 0x8, addend: 0x0, symName: __ZNK18llama_model_loader13get_arch_nameEv, symObjAddr: 0x41DC, symBinAddr: 0x48360, symSize: 0x28 }
  - { offset: 0x2233E0, size: 0x8, addend: 0x0, symName: __ZNK18llama_model_loader8get_archEv, symObjAddr: 0x4204, symBinAddr: 0x48388, symSize: 0x8 }
  - { offset: 0x2234C1, size: 0x8, addend: 0x0, symName: __ZNK18llama_model_loader10get_weightEPKc, symObjAddr: 0x420C, symBinAddr: 0x48390, symSize: 0x170 }
  - { offset: 0x223AF8, size: 0x8, addend: 0x0, symName: __ZNK18llama_model_loader14require_weightEPKc, symObjAddr: 0x437C, symBinAddr: 0x48500, symSize: 0xCC }
  - { offset: 0x223CB6, size: 0x8, addend: 0x0, symName: __ZNK18llama_model_loader15get_tensor_metaEPKc, symObjAddr: 0x4448, symBinAddr: 0x485CC, symSize: 0x1C }
  - { offset: 0x223D3C, size: 0x8, addend: 0x0, symName: __ZNK18llama_model_loader19require_tensor_metaERKNSt3__112basic_stringIcNS0_11char_traitsIcEENS0_9allocatorIcEEEE, symObjAddr: 0x4464, symBinAddr: 0x485E8, symSize: 0xF4 }
  - { offset: 0x22400C, size: 0x8, addend: 0x0, symName: __ZNK18llama_model_loader17check_tensor_dimsERKNSt3__112basic_stringIcNS0_11char_traitsIcEENS0_9allocatorIcEEEERKNS0_6vectorIxNS4_IxEEEEb, symObjAddr: 0x4558, symBinAddr: 0x486DC, symSize: 0x2F8 }
  - { offset: 0x224AD3, size: 0x8, addend: 0x0, symName: __ZN18llama_model_loader13create_tensorEP12ggml_contextRKNSt3__112basic_stringIcNS2_11char_traitsIcEENS2_9allocatorIcEEEERKSt16initializer_listIxEi, symObjAddr: 0x4850, symBinAddr: 0x489D4, symSize: 0x14C }
  - { offset: 0x225099, size: 0x8, addend: 0x0, symName: __ZNKSt3__16vectorINS_10unique_ptrI10llama_mmapNS_14default_deleteIS2_EEEENS_9allocatorIS5_EEE20__throw_length_errorB8ne190107Ev, symObjAddr: 0xA228, symBinAddr: 0x4DB9C, symSize: 0x14 }
  - { offset: 0x2250A4, size: 0x8, addend: 0x0, symName: __ZN18llama_model_loader21create_tensor_as_viewEP12ggml_contextP11ggml_tensorRKNSt3__112basic_stringIcNS4_11char_traitsIcEENS4_9allocatorIcEEEERKSt16initializer_listIxEmb, symObjAddr: 0x499C, symBinAddr: 0x48B20, symSize: 0x274 }
  - { offset: 0x2258D0, size: 0x8, addend: 0x0, symName: __ZNK18llama_model_loader20done_getting_tensorsEv, symObjAddr: 0x4C10, symBinAddr: 0x48D94, symSize: 0xD8 }
  - { offset: 0x22693F, size: 0x8, addend: 0x0, symName: __ZN18llama_model_loader13init_mappingsEbPNSt3__16vectorINS0_10unique_ptrI11llama_mlockNS0_14default_deleteIS3_EEEENS0_9allocatorIS6_EEEE, symObjAddr: 0x4CE8, symBinAddr: 0x48E6C, symSize: 0x52C }
  - { offset: 0x228394, size: 0x8, addend: 0x0, symName: __ZNKSt3__16vectorINS_10unique_ptrI10llama_mmapNS_14default_deleteIS2_EEEENS_9allocatorIS5_EEE20__throw_length_errorB8ne190107Ev, symObjAddr: 0xA228, symBinAddr: 0x4DB9C, symSize: 0x14 }
  - { offset: 0x2283E1, size: 0x8, addend: 0x0, symName: __ZNKSt3__16vectorINS_10unique_ptrI11llama_mlockNS_14default_deleteIS2_EEEENS_9allocatorIS5_EEE20__throw_length_errorB8ne190107Ev, symObjAddr: 0xA250, symBinAddr: 0x4DBB0, symSize: 0x14 }
  - { offset: 0x2283EC, size: 0x8, addend: 0x0, symName: __ZNKSt3__16vectorINS_10unique_ptrI11llama_mlockNS_14default_deleteIS2_EEEENS_9allocatorIS5_EEE20__throw_length_errorB8ne190107Ev, symObjAddr: 0xA250, symBinAddr: 0x4DBB0, symSize: 0x14 }
  - { offset: 0x228416, size: 0x8, addend: 0x0, symName: __ZNKSt3__16vectorINS_10unique_ptrI10llama_mmapNS_14default_deleteIS2_EEEENS_9allocatorIS5_EEE20__throw_out_of_rangeB8ne190107Ev, symObjAddr: 0xA264, symBinAddr: 0x4DBC4, symSize: 0x14 }
  - { offset: 0x228421, size: 0x8, addend: 0x0, symName: __ZNSt3__110unique_ptrI10llama_mmapNS_14default_deleteIS1_EEED1B8ne190107Ev, symObjAddr: 0x5254, symBinAddr: 0x493D8, symSize: 0x40 }
  - { offset: 0x2284B9, size: 0x8, addend: 0x0, symName: __ZNSt3__110unique_ptrI11llama_mlockNS_14default_deleteIS1_EEED1B8ne190107Ev, symObjAddr: 0x5214, symBinAddr: 0x49398, symSize: 0x40 }
  - { offset: 0x228665, size: 0x8, addend: 0x0, symName: __ZNK18llama_model_loader17get_mapping_rangeEPmS0_PPviP12ggml_context, symObjAddr: 0x5294, symBinAddr: 0x49418, symSize: 0x134 }
  - { offset: 0x2288EC, size: 0x8, addend: 0x0, symName: __ZNK18llama_model_loader13load_data_forEP11ggml_tensor, symObjAddr: 0x53C8, symBinAddr: 0x4954C, symSize: 0x228 }
  - { offset: 0x228912, size: 0x8, addend: 0x0, symName: __ZNKSt3__16vectorINS_10unique_ptrI10llama_mmapNS_14default_deleteIS2_EEEENS_9allocatorIS5_EEE20__throw_out_of_rangeB8ne190107Ev, symObjAddr: 0xA264, symBinAddr: 0x4DBC4, symSize: 0x14 }
  - { offset: 0x22893C, size: 0x8, addend: 0x0, symName: __ZNKSt3__16vectorINS_10unique_ptrI10llama_fileNS_14default_deleteIS2_EEEENS_9allocatorIS5_EEE20__throw_out_of_rangeB8ne190107Ev, symObjAddr: 0xA278, symBinAddr: 0x4DBD8, symSize: 0x14 }
  - { offset: 0x22895D, size: 0x8, addend: 0x0, symName: __ZNK18llama_model_loader13load_data_forEP11ggml_tensor, symObjAddr: 0x53C8, symBinAddr: 0x4954C, symSize: 0x228 }
  - { offset: 0x22B72E, size: 0x8, addend: 0x0, symName: __ZNSt3__16vectorINS_6futureINS_4pairIP11ggml_tensorbEEEENS_9allocatorIS6_EEE24__emplace_back_slow_pathIJS6_EEEPS6_DpOT_, symObjAddr: 0xA5E4, symBinAddr: 0x4DF44, symSize: 0x1B0 }
  - { offset: 0x22BCD0, size: 0x8, addend: 0x0, symName: __ZNKSt3__16vectorINS_6futureINS_4pairIP11ggml_tensorbEEEENS_9allocatorIS6_EEE20__throw_length_errorB8ne190107Ev, symObjAddr: 0xA794, symBinAddr: 0x4E0F4, symSize: 0x14 }
  - { offset: 0x22BD2A, size: 0x8, addend: 0x0, symName: __ZNSt3__113__assoc_stateINS_4pairIP11ggml_tensorbEEE4moveEv, symObjAddr: 0xAA8C, symBinAddr: 0x4E3EC, symSize: 0xCC }
  - { offset: 0x22BF28, size: 0x8, addend: 0x0, symName: __ZNSt3__16vectorIP18ggml_backend_eventNS_9allocatorIS2_EEE12emplace_backIJRS2_EEES7_DpOT_, symObjAddr: 0x72F8, symBinAddr: 0x4B394, symSize: 0xF8 }
  - { offset: 0x22C357, size: 0x8, addend: 0x0, symName: __ZNKSt3__16vectorIP19ggml_backend_bufferNS_9allocatorIS2_EEE20__throw_length_errorB8ne190107Ev, symObjAddr: 0x73F0, symBinAddr: 0x4B48C, symSize: 0x14 }
  - { offset: 0x22C3A8, size: 0x8, addend: 0x0, symName: __ZNKSt3__16vectorINS_10unique_ptrI10llama_fileNS_14default_deleteIS2_EEEENS_9allocatorIS5_EEE20__throw_out_of_rangeB8ne190107Ev, symObjAddr: 0xA278, symBinAddr: 0x4DBD8, symSize: 0x14 }
  - { offset: 0x22C3D2, size: 0x8, addend: 0x0, symName: '__ZNSt3__119__async_assoc_stateINS_4pairIP11ggml_tensorbEENS_12__async_funcIZN18llama_model_loader13load_all_dataEP12ggml_contextRNS_13unordered_mapIjP19ggml_backend_bufferNS_4hashIjEENS_8equal_toIjEENS_9allocatorINS1_IKjSB_EEEEEEPNS_6vectorINS_10unique_ptrI11llama_mlockNS_14default_deleteISO_EEEENSG_ISR_EEEEPFbfPvESV_E3$_1JEEEED1Ev', symObjAddr: 0xA28C, symBinAddr: 0x4DBEC, symSize: 0x4C }
  - { offset: 0x22C3DD, size: 0x8, addend: 0x0, symName: __ZNKSt3__16vectorINS_4pairImmEENS_9allocatorIS2_EEE20__throw_out_of_rangeB8ne190107Ev, symObjAddr: 0xAB58, symBinAddr: 0x4E4B8, symSize: 0x14 }
  - { offset: 0x22C412, size: 0x8, addend: 0x0, symName: __ZNKSt3__16vectorINS_10unique_ptrI11llama_mlockNS_14default_deleteIS2_EEEENS_9allocatorIS5_EEE20__throw_out_of_rangeB8ne190107Ev, symObjAddr: 0xA7A8, symBinAddr: 0x4E108, symSize: 0x14 }
  - { offset: 0x22C43C, size: 0x8, addend: 0x0, symName: '__ZNSt3__119__async_assoc_stateINS_4pairIP11ggml_tensorbEENS_12__async_funcIZN18llama_model_loader13load_all_dataEP12ggml_contextRNS_13unordered_mapIjP19ggml_backend_bufferNS_4hashIjEENS_8equal_toIjEENS_9allocatorINS1_IKjSB_EEEEEEPNS_6vectorINS_10unique_ptrI11llama_mlockNS_14default_deleteISO_EEEENSG_ISR_EEEEPFbfPvESV_E3$_2JEEEED1Ev', symObjAddr: 0xA7BC, symBinAddr: 0x4E11C, symSize: 0x4C }
  - { offset: 0x22C447, size: 0x8, addend: 0x0, symName: __ZNKSt3__16vectorI7no_initIhENS_9allocatorIS2_EEE20__throw_length_errorB8ne190107Ev, symObjAddr: 0xAA78, symBinAddr: 0x4E3D8, symSize: 0x14 }
  - { offset: 0x22C471, size: 0x8, addend: 0x0, symName: __ZNSt3__113__assoc_stateINS_4pairIP11ggml_tensorbEEE4moveEv, symObjAddr: 0xAA8C, symBinAddr: 0x4E3EC, symSize: 0xCC }
  - { offset: 0x22C47C, size: 0x8, addend: 0x0, symName: __ZNKSt3__16vectorIP19ggml_backend_bufferNS_9allocatorIS2_EEE20__throw_length_errorB8ne190107Ev, symObjAddr: 0x73F0, symBinAddr: 0x4B48C, symSize: 0x14 }
  - { offset: 0x22C4A6, size: 0x8, addend: 0x0, symName: __ZNKSt3__16vectorIPvNS_9allocatorIS1_EEE20__throw_length_errorB8ne190107Ev, symObjAddr: 0x7404, symBinAddr: 0x4B4A0, symSize: 0x14 }
  - { offset: 0x22C4B1, size: 0x8, addend: 0x0, symName: __ZNKSt3__16vectorIPvNS_9allocatorIS1_EEE20__throw_length_errorB8ne190107Ev, symObjAddr: 0x7404, symBinAddr: 0x4B4A0, symSize: 0x14 }
  - { offset: 0x22C4DB, size: 0x8, addend: 0x0, symName: __ZNKSt3__16vectorIP18ggml_backend_eventNS_9allocatorIS2_EEE20__throw_length_errorB8ne190107Ev, symObjAddr: 0x7418, symBinAddr: 0x4B4B4, symSize: 0x14 }
  - { offset: 0x22C4E6, size: 0x8, addend: 0x0, symName: '__ZNSt3__110unique_ptrINS_5tupleIJNS0_INS_15__thread_structENS_14default_deleteIS2_EEEEMNS_19__async_assoc_stateINS_4pairIP11ggml_tensorbEENS_12__async_funcIZN18llama_model_loader13load_all_dataEP12ggml_contextRNS_13unordered_mapIjP19ggml_backend_bufferNS_4hashIjEENS_8equal_toIjEENS_9allocatorINS7_IKjSH_EEEEEEPNS_6vectorINS0_I11llama_mlockNS3_IST_EEEENSM_ISV_EEEEPFbfPvESZ_E3$_2JEEEEEFvvEPS14_EEENS3_IS18_EEED1B8ne190107Ev', symObjAddr: 0xAA28, symBinAddr: 0x4E388, symSize: 0x50 }
  - { offset: 0x22C68E, size: 0x8, addend: 0x0, symName: __ZNSt3__110unique_ptrINS_15__thread_structENS_14default_deleteIS1_EEED1B8ne190107Ev, symObjAddr: 0xA5A4, symBinAddr: 0x4DF04, symSize: 0x40 }
  - { offset: 0x22C726, size: 0x8, addend: 0x0, symName: '__ZNSt3__110unique_ptrINS_5tupleIJNS0_INS_15__thread_structENS_14default_deleteIS2_EEEEMNS_19__async_assoc_stateINS_4pairIP11ggml_tensorbEENS_12__async_funcIZN18llama_model_loader13load_all_dataEP12ggml_contextRNS_13unordered_mapIjP19ggml_backend_bufferNS_4hashIjEENS_8equal_toIjEENS_9allocatorINS7_IKjSH_EEEEEEPNS_6vectorINS0_I11llama_mlockNS3_IST_EEEENSM_ISV_EEEEPFbfPvESZ_E3$_1JEEEEEFvvEPS14_EEENS3_IS18_EEED1B8ne190107Ev', symObjAddr: 0xA554, symBinAddr: 0x4DEB4, symSize: 0x50 }
  - { offset: 0x22C8CE, size: 0x8, addend: 0x0, symName: __ZNSt3__16vectorINS_6futureINS_4pairIP11ggml_tensorbEEEENS_9allocatorIS6_EEED1B8ne190107Ev, symObjAddr: 0x6A78, symBinAddr: 0x4ABFC, symSize: 0x88 }
  - { offset: 0x22CB28, size: 0x8, addend: 0x0, symName: __ZNK18llama_model_loader10ftype_nameEv, symObjAddr: 0x6B00, symBinAddr: 0x4AC84, symSize: 0xC }
  - { offset: 0x22CB68, size: 0x8, addend: 0x0, symName: __ZL22llama_model_ftype_name11llama_ftype, symObjAddr: 0x6B0C, symBinAddr: 0x4AC90, symSize: 0x3E4 }
  - { offset: 0x22D05D, size: 0x8, addend: 0x0, symName: __ZNK18llama_model_loader10print_infoEv, symObjAddr: 0x6EF0, symBinAddr: 0x4B074, symSize: 0x160 }
  - { offset: 0x22D725, size: 0x8, addend: 0x0, symName: __ZNKSt3__16vectorIP18ggml_backend_eventNS_9allocatorIS2_EEE20__throw_length_errorB8ne190107Ev, symObjAddr: 0x7418, symBinAddr: 0x4B4B4, symSize: 0x14 }
  - { offset: 0x22D74F, size: 0x8, addend: 0x0, symName: __ZN8GGUFMeta3GKVINS_9ArrayInfoEE6get_kvEPK12gguf_contexti, symObjAddr: 0x742C, symBinAddr: 0x4B4C8, symSize: 0x158 }
  - { offset: 0x22E83D, size: 0x8, addend: 0x0, symName: __ZNSt3__112__hash_tableINS_17__hash_value_typeINS_12basic_stringIcNS_11char_traitsIcEENS_9allocatorIcEEEE23llama_model_kv_overrideEENS_22__unordered_map_hasherIS7_S9_NS_4hashIS7_EENS_8equal_toIS7_EELb1EEENS_21__unordered_map_equalIS7_S9_SE_SC_Lb1EEENS5_IS9_EEE11__do_rehashILb1EEEvm, symObjAddr: 0x93B8, symBinAddr: 0x4D008, symSize: 0x1DC }
  - { offset: 0x22ECF8, size: 0x8, addend: 0x0, symName: __ZNSt3__110unique_ptrINS_11__hash_nodeINS_17__hash_value_typeINS_12basic_stringIcNS_11char_traitsIcEENS_9allocatorIcEEEE23llama_model_kv_overrideEEPvEENS_22__hash_node_destructorINS6_ISC_EEEEED1B8ne190107Ev, symObjAddr: 0x934C, symBinAddr: 0x4CF9C, symSize: 0x6C }
  - { offset: 0x22F31A, size: 0x8, addend: 0x0, symName: '__ZNSt3__119__async_assoc_stateINS_4pairIP11ggml_tensorbEENS_12__async_funcIZN18llama_model_loader13load_all_dataEP12ggml_contextRNS_13unordered_mapIjP19ggml_backend_bufferNS_4hashIjEENS_8equal_toIjEENS_9allocatorINS1_IKjSB_EEEEEEPNS_6vectorINS_10unique_ptrI11llama_mlockNS_14default_deleteISO_EEEENSG_ISR_EEEEPFbfPvESV_E3$_1JEEEED1Ev', symObjAddr: 0xA28C, symBinAddr: 0x4DBEC, symSize: 0x4C }
  - { offset: 0x22F3B6, size: 0x8, addend: 0x0, symName: '__ZNSt3__119__async_assoc_stateINS_4pairIP11ggml_tensorbEENS_12__async_funcIZN18llama_model_loader13load_all_dataEP12ggml_contextRNS_13unordered_mapIjP19ggml_backend_bufferNS_4hashIjEENS_8equal_toIjEENS_9allocatorINS1_IKjSB_EEEEEEPNS_6vectorINS_10unique_ptrI11llama_mlockNS_14default_deleteISO_EEEENSG_ISR_EEEEPFbfPvESV_E3$_1JEEEED0Ev', symObjAddr: 0xA2D8, symBinAddr: 0x4DC38, symSize: 0x54 }
  - { offset: 0x22F470, size: 0x8, addend: 0x0, symName: '__ZNSt3__119__async_assoc_stateINS_4pairIP11ggml_tensorbEENS_12__async_funcIZN18llama_model_loader13load_all_dataEP12ggml_contextRNS_13unordered_mapIjP19ggml_backend_bufferNS_4hashIjEENS_8equal_toIjEENS_9allocatorINS1_IKjSB_EEEEEEPNS_6vectorINS_10unique_ptrI11llama_mlockNS_14default_deleteISO_EEEENSG_ISR_EEEEPFbfPvESV_E3$_1JEEEE16__on_zero_sharedEv', symObjAddr: 0xA32C, symBinAddr: 0x4DC8C, symSize: 0x30 }
  - { offset: 0x22F6D3, size: 0x8, addend: 0x0, symName: '__ZNSt3__119__async_assoc_stateINS_4pairIP11ggml_tensorbEENS_12__async_funcIZN18llama_model_loader13load_all_dataEP12ggml_contextRNS_13unordered_mapIjP19ggml_backend_bufferNS_4hashIjEENS_8equal_toIjEENS_9allocatorINS1_IKjSB_EEEEEEPNS_6vectorINS_10unique_ptrI11llama_mlockNS_14default_deleteISO_EEEENSG_ISR_EEEEPFbfPvESV_E3$_1JEEEE9__executeEv', symObjAddr: 0xA35C, symBinAddr: 0x4DCBC, symSize: 0x108 }
  - { offset: 0x22FCFB, size: 0x8, addend: 0x0, symName: __ZNKSt3__16vectorINS_6futureINS_4pairIP11ggml_tensorbEEEENS_9allocatorIS6_EEE20__throw_length_errorB8ne190107Ev, symObjAddr: 0xA794, symBinAddr: 0x4E0F4, symSize: 0x14 }
  - { offset: 0x22FD25, size: 0x8, addend: 0x0, symName: __ZNKSt3__16vectorINS_10unique_ptrI11llama_mlockNS_14default_deleteIS2_EEEENS_9allocatorIS5_EEE20__throw_out_of_rangeB8ne190107Ev, symObjAddr: 0xA7A8, symBinAddr: 0x4E108, symSize: 0x14 }
  - { offset: 0x22FD4D, size: 0x8, addend: 0x0, symName: '__ZNSt3__119__async_assoc_stateINS_4pairIP11ggml_tensorbEENS_12__async_funcIZN18llama_model_loader13load_all_dataEP12ggml_contextRNS_13unordered_mapIjP19ggml_backend_bufferNS_4hashIjEENS_8equal_toIjEENS_9allocatorINS1_IKjSB_EEEEEEPNS_6vectorINS_10unique_ptrI11llama_mlockNS_14default_deleteISO_EEEENSG_ISR_EEEEPFbfPvESV_E3$_2JEEEED1Ev', symObjAddr: 0xA7BC, symBinAddr: 0x4E11C, symSize: 0x4C }
  - { offset: 0x22FDE9, size: 0x8, addend: 0x0, symName: '__ZNSt3__119__async_assoc_stateINS_4pairIP11ggml_tensorbEENS_12__async_funcIZN18llama_model_loader13load_all_dataEP12ggml_contextRNS_13unordered_mapIjP19ggml_backend_bufferNS_4hashIjEENS_8equal_toIjEENS_9allocatorINS1_IKjSB_EEEEEEPNS_6vectorINS_10unique_ptrI11llama_mlockNS_14default_deleteISO_EEEENSG_ISR_EEEEPFbfPvESV_E3$_2JEEEED0Ev', symObjAddr: 0xA808, symBinAddr: 0x4E168, symSize: 0x54 }
  - { offset: 0x22FE8B, size: 0x8, addend: 0x0, symName: '__ZNSt3__119__async_assoc_stateINS_4pairIP11ggml_tensorbEENS_12__async_funcIZN18llama_model_loader13load_all_dataEP12ggml_contextRNS_13unordered_mapIjP19ggml_backend_bufferNS_4hashIjEENS_8equal_toIjEENS_9allocatorINS1_IKjSB_EEEEEEPNS_6vectorINS_10unique_ptrI11llama_mlockNS_14default_deleteISO_EEEENSG_ISR_EEEEPFbfPvESV_E3$_2JEEEE16__on_zero_sharedEv', symObjAddr: 0xA85C, symBinAddr: 0x4E1BC, symSize: 0x30 }
  - { offset: 0x22FF3B, size: 0x8, addend: 0x0, symName: '__ZNSt3__119__async_assoc_stateINS_4pairIP11ggml_tensorbEENS_12__async_funcIZN18llama_model_loader13load_all_dataEP12ggml_contextRNS_13unordered_mapIjP19ggml_backend_bufferNS_4hashIjEENS_8equal_toIjEENS_9allocatorINS1_IKjSB_EEEEEEPNS_6vectorINS_10unique_ptrI11llama_mlockNS_14default_deleteISO_EEEENSG_ISR_EEEEPFbfPvESV_E3$_2JEEEE9__executeEv', symObjAddr: 0xA88C, symBinAddr: 0x4E1EC, symSize: 0x108 }
  - { offset: 0x232267, size: 0x8, addend: 0x0, symName: __ZL24LLAMA_ROPE_SCALING_TYPES, symObjAddr: 0x33DE80, symBinAddr: 0x25F360, symSize: 0x0 }
  - { offset: 0x26B059, size: 0x8, addend: 0x0, symName: __ZNSt3__134__uninitialized_allocator_relocateB8ne190107INS_9allocatorINS_4pairIP12ggml_contextNS_13unordered_mapIjP19ggml_backend_bufferNS_4hashIjEENS_8equal_toIjEENS1_INS2_IKjS7_EEEEEEEEEESG_EEvRT_PT0_SL_SL_, symObjAddr: 0x21E24, symBinAddr: 0x6F50C, symSize: 0x108 }
  - { offset: 0x26B0B4, size: 0x8, addend: 0x0, symName: __ZNSt3__134__uninitialized_allocator_relocateB8ne190107INS_9allocatorINS_4pairIP12ggml_contextNS_13unordered_mapIjP19ggml_backend_bufferNS_4hashIjEENS_8equal_toIjEENS1_INS2_IKjS7_EEEEEEEEEESG_EEvRT_PT0_SL_SL_, symObjAddr: 0x21E24, symBinAddr: 0x6F50C, symSize: 0x108 }
  - { offset: 0x26E0B0, size: 0x8, addend: 0x0, symName: __ZNSt3__111make_uniqueB8ne190107I16llm_build_t5_encJRK11llama_modelRK16llm_graph_paramsRP11ggml_cgraphEEENS_11__unique_ifIT_E15__unique_singleEDpOT0_, symObjAddr: 0x1E728, symBinAddr: 0x6CBE4, symSize: 0x70 }
  - { offset: 0x26E205, size: 0x8, addend: 0x0, symName: __ZNSt3__111make_uniqueB8ne190107I26llm_build_wavtokenizer_decJRK11llama_modelRK16llm_graph_paramsRP11ggml_cgraphEEENS_11__unique_ifIT_E15__unique_singleEDpOT0_, symObjAddr: 0x1F218, symBinAddr: 0x6D6D4, symSize: 0x70 }
  - { offset: 0x26E35A, size: 0x8, addend: 0x0, symName: __ZNSt3__111make_uniqueB8ne190107I20llm_build_bailingmoeJRK11llama_modelRK16llm_graph_paramsRP11ggml_cgraphEEENS_11__unique_ifIT_E15__unique_singleEDpOT0_, symObjAddr: 0x1F448, symBinAddr: 0x6D904, symSize: 0x70 }
  - { offset: 0x26E4AF, size: 0x8, addend: 0x0, symName: __ZNSt3__111make_uniqueB8ne190107I14llm_build_olmoJRK11llama_modelRK16llm_graph_paramsRP11ggml_cgraphEEENS_11__unique_ifIT_E15__unique_singleEDpOT0_, symObjAddr: 0x1DC38, symBinAddr: 0x6C0F4, symSize: 0x70 }
  - { offset: 0x26E604, size: 0x8, addend: 0x0, symName: __ZNSt3__111make_uniqueB8ne190107I19llm_build_deepseek2JRK11llama_modelRK16llm_graph_paramsRP11ggml_cgraphEEENS_11__unique_ifIT_E15__unique_singleEDpOT0_, symObjAddr: 0x1E3E0, symBinAddr: 0x6C89C, symSize: 0x70 }
  - { offset: 0x26E759, size: 0x8, addend: 0x0, symName: __ZNSt3__111make_uniqueB8ne190107I17llm_build_openelmJRK11llama_modelRK16llm_graph_paramsRP11ggml_cgraphEEENS_11__unique_ifIT_E15__unique_singleEDpOT0_, symObjAddr: 0x1DF80, symBinAddr: 0x6C43C, symSize: 0x70 }
  - { offset: 0x26E8AE, size: 0x8, addend: 0x0, symName: __ZNSt3__111make_uniqueB8ne190107I14llm_build_dbrxJRK11llama_modelRK16llm_graph_paramsRP11ggml_cgraphEEENS_11__unique_ifIT_E15__unique_singleEDpOT0_, symObjAddr: 0x1DB20, symBinAddr: 0x6BFDC, symSize: 0x70 }
  - { offset: 0x26EA03, size: 0x8, addend: 0x0, symName: __ZNSt3__111make_uniqueB8ne190107I19llm_build_chameleonJRK11llama_modelRK16llm_graph_paramsRP11ggml_cgraphEEENS_11__unique_ifIT_E15__unique_singleEDpOT0_, symObjAddr: 0x1F100, symBinAddr: 0x6D5BC, symSize: 0x70 }
  - { offset: 0x26EB58, size: 0x8, addend: 0x0, symName: __ZNSt3__111make_uniqueB8ne190107I13llm_build_plmJRK11llama_modelRK16llm_graph_paramsRP11ggml_cgraphEEENS_11__unique_ifIT_E15__unique_singleEDpOT0_, symObjAddr: 0x1F330, symBinAddr: 0x6D7EC, symSize: 0x70 }
  - { offset: 0x26ECAD, size: 0x8, addend: 0x0, symName: __ZNSt3__111make_uniqueB8ne190107I16llm_build_xverseJRK11llama_modelRK16llm_graph_paramsRP11ggml_cgraphEEENS_11__unique_ifIT_E15__unique_singleEDpOT0_, symObjAddr: 0x1D7D8, symBinAddr: 0x6BC94, symSize: 0x70 }
  - { offset: 0x26EE02, size: 0x8, addend: 0x0, symName: __ZNSt3__111make_uniqueB8ne190107I15llm_build_mambaJRK11llama_modelRK16llm_graph_paramsRP11ggml_cgraphEEENS_11__unique_ifIT_E15__unique_singleEDpOT0_, symObjAddr: 0x1D6C0, symBinAddr: 0x6BB7C, symSize: 0x70 }
  - { offset: 0x26EF57, size: 0x8, addend: 0x0, symName: __ZNSt3__111make_uniqueB8ne190107I19llm_build_command_rJRK11llama_modelRK16llm_graph_paramsRP11ggml_cgraphEEENS_11__unique_ifIT_E15__unique_singleEDpOT0_, symObjAddr: 0x1D8F0, symBinAddr: 0x6BDAC, symSize: 0x70 }
  - { offset: 0x26F0AC, size: 0x8, addend: 0x0, symName: __ZNSt3__111make_uniqueB8ne190107I20llm_build_rwkv6qwen2JRK11llama_modelRK16llm_graph_paramsRP11ggml_cgraphEEENS_11__unique_ifIT_E15__unique_singleEDpOT0_, symObjAddr: 0x1EDB8, symBinAddr: 0x6D274, symSize: 0x70 }
  - { offset: 0x26F201, size: 0x8, addend: 0x0, symName: __ZNSt3__111make_uniqueB8ne190107I17llm_build_cohere2JRK11llama_modelRK16llm_graph_paramsRP11ggml_cgraphEEENS_11__unique_ifIT_E15__unique_singleEDpOT0_, symObjAddr: 0x1DA08, symBinAddr: 0x6BEC4, symSize: 0x70 }
  - { offset: 0x26F356, size: 0x8, addend: 0x0, symName: __ZNSt3__111make_uniqueB8ne190107I18llm_build_qwen2moeJRK11llama_modelRK16llm_graph_paramsRP11ggml_cgraphEEENS_11__unique_ifIT_E15__unique_singleEDpOT0_, symObjAddr: 0x1C9A0, symBinAddr: 0x6AE5C, symSize: 0x70 }
  - { offset: 0x26F4AB, size: 0x8, addend: 0x0, symName: __ZNSt3__111make_uniqueB8ne190107I20llm_build_starcoder2JRK11llama_modelRK16llm_graph_paramsRP11ggml_cgraphEEENS_11__unique_ifIT_E15__unique_singleEDpOT0_, symObjAddr: 0x1D5A8, symBinAddr: 0x6BA64, symSize: 0x70 }
  - { offset: 0x26F600, size: 0x8, addend: 0x0, symName: __ZNSt3__111make_uniqueB8ne190107I13llm_build_mptJRK11llama_modelRK16llm_graph_paramsRP11ggml_cgraphEEENS_11__unique_ifIT_E15__unique_singleEDpOT0_, symObjAddr: 0x1C428, symBinAddr: 0x6A8E4, symSize: 0x70 }
  - { offset: 0x26F755, size: 0x8, addend: 0x0, symName: __ZNSt3__111make_uniqueB8ne190107I15llm_build_qwen2JRK11llama_modelRK16llm_graph_paramsRP11ggml_cgraphEEENS_11__unique_ifIT_E15__unique_singleEDpOT0_, symObjAddr: 0x1C770, symBinAddr: 0x6AC2C, symSize: 0x70 }
  - { offset: 0x26F8AA, size: 0x8, addend: 0x0, symName: __ZNSt3__111make_uniqueB8ne190107I16llm_build_refactJRK11llama_modelRK16llm_graph_paramsRP11ggml_cgraphEEENS_11__unique_ifIT_E15__unique_singleEDpOT0_, symObjAddr: 0x1C1F8, symBinAddr: 0x6A6B4, symSize: 0x70 }
  - { offset: 0x26F9FF, size: 0x8, addend: 0x0, symName: __ZNSt3__111make_uniqueB8ne190107I16llm_build_falconJRK11llama_modelRK16llm_graph_paramsRP11ggml_cgraphEEENS_11__unique_ifIT_E15__unique_singleEDpOT0_, symObjAddr: 0x1BEB0, symBinAddr: 0x6A36C, symSize: 0x70 }
  - { offset: 0x26FB54, size: 0x8, addend: 0x0, symName: __ZNSt3__111make_uniqueB8ne190107I15llm_build_rwkv7JRK11llama_modelRK16llm_graph_paramsRP11ggml_cgraphEEENS_11__unique_ifIT_E15__unique_singleEDpOT0_, symObjAddr: 0x1EED0, symBinAddr: 0x6D38C, symSize: 0x70 }
  - { offset: 0x26FCA9, size: 0x8, addend: 0x0, symName: __ZNSt3__111make_uniqueB8ne190107I14llm_build_grokJRK11llama_modelRK16llm_graph_paramsRP11ggml_cgraphEEENS_11__unique_ifIT_E15__unique_singleEDpOT0_, symObjAddr: 0x1BFC8, symBinAddr: 0x6A484, symSize: 0x70 }
  - { offset: 0x26FDFE, size: 0x8, addend: 0x0, symName: __ZNSt3__111make_uniqueB8ne190107I17llm_build_chatglmJRK11llama_modelRK16llm_graph_paramsRP11ggml_cgraphEEENS_11__unique_ifIT_E15__unique_singleEDpOT0_, symObjAddr: 0x1E4F8, symBinAddr: 0x6C9B4, symSize: 0x70 }
  - { offset: 0x26FF53, size: 0x8, addend: 0x0, symName: __ZNSt3__111make_uniqueB8ne190107I18llm_build_stablelmJRK11llama_modelRK16llm_graph_paramsRP11ggml_cgraphEEENS_11__unique_ifIT_E15__unique_singleEDpOT0_, symObjAddr: 0x1C540, symBinAddr: 0x6A9FC, symSize: 0x70 }
  - { offset: 0x2700A8, size: 0x8, addend: 0x0, symName: __ZNSt3__111make_uniqueB8ne190107I17llm_build_qwen2vlJRK11llama_modelRK16llm_graph_paramsRP11ggml_cgraphEEENS_11__unique_ifIT_E15__unique_singleEDpOT0_, symObjAddr: 0x1C888, symBinAddr: 0x6AD44, symSize: 0x70 }
  - { offset: 0x2701FD, size: 0x8, addend: 0x0, symName: __ZNSt3__111make_uniqueB8ne190107I15llm_build_bloomJRK11llama_modelRK16llm_graph_paramsRP11ggml_cgraphEEENS_11__unique_ifIT_E15__unique_singleEDpOT0_, symObjAddr: 0x1C310, symBinAddr: 0x6A7CC, symSize: 0x70 }
  - { offset: 0x270352, size: 0x8, addend: 0x0, symName: __ZNSt3__111make_uniqueB8ne190107I19llm_build_codeshellJRK11llama_modelRK16llm_graph_paramsRP11ggml_cgraphEEENS_11__unique_ifIT_E15__unique_singleEDpOT0_, symObjAddr: 0x1CE00, symBinAddr: 0x6B2BC, symSize: 0x70 }
  - { offset: 0x2704A7, size: 0x8, addend: 0x0, symName: __ZNSt3__111make_uniqueB8ne190107I16llm_build_arcticJRK11llama_modelRK16llm_graph_paramsRP11ggml_cgraphEEENS_11__unique_ifIT_E15__unique_singleEDpOT0_, symObjAddr: 0x1E1B0, symBinAddr: 0x6C66C, symSize: 0x70 }
  - { offset: 0x2705FC, size: 0x8, addend: 0x0, symName: __ZNSt3__111make_uniqueB8ne190107I15llm_build_gemmaJRK11llama_modelRK16llm_graph_paramsRP11ggml_cgraphEEENS_11__unique_ifIT_E15__unique_singleEDpOT0_, symObjAddr: 0x1D260, symBinAddr: 0x6B71C, symSize: 0x70 }
  - { offset: 0x270751, size: 0x8, addend: 0x0, symName: __ZNSt3__111make_uniqueB8ne190107I16llm_build_gemma2JRK11llama_modelRK16llm_graph_paramsRP11ggml_cgraphEEENS_11__unique_ifIT_E15__unique_singleEDpOT0_, symObjAddr: 0x1D378, symBinAddr: 0x6B834, symSize: 0x70 }
  - { offset: 0x2708A6, size: 0x8, addend: 0x0, symName: __ZNSt3__111make_uniqueB8ne190107I18llm_build_baichuanJRK11llama_modelRK16llm_graph_paramsRP11ggml_cgraphEEENS_11__unique_ifIT_E15__unique_singleEDpOT0_, symObjAddr: 0x1BD98, symBinAddr: 0x6A254, symSize: 0x70 }
  - { offset: 0x2709FB, size: 0x8, addend: 0x0, symName: __ZNSt3__111make_uniqueB8ne190107I14llm_build_deciJRK11llama_modelRK16llm_graph_paramsRP11ggml_cgraphEEENS_11__unique_ifIT_E15__unique_singleEDpOT0_, symObjAddr: 0x1BC80, symBinAddr: 0x6A13C, symSize: 0x70 }
  - { offset: 0x270B50, size: 0x8, addend: 0x0, symName: __ZNSt3__111make_uniqueB8ne190107I16llm_build_exaoneJRK11llama_modelRK16llm_graph_paramsRP11ggml_cgraphEEENS_11__unique_ifIT_E15__unique_singleEDpOT0_, symObjAddr: 0x1EB88, symBinAddr: 0x6D044, symSize: 0x70 }
  - { offset: 0x270CA5, size: 0x8, addend: 0x0, symName: __ZNSt3__111make_uniqueB8ne190107I19llm_build_internlm2JRK11llama_modelRK16llm_graph_paramsRP11ggml_cgraphEEENS_11__unique_ifIT_E15__unique_singleEDpOT0_, symObjAddr: 0x1D030, symBinAddr: 0x6B4EC, symSize: 0x70 }
  - { offset: 0x270DFA, size: 0x8, addend: 0x0, symName: __ZNSt3__111make_uniqueB8ne190107I18llm_build_nemotronJRK11llama_modelRK16llm_graph_paramsRP11ggml_cgraphEEENS_11__unique_ifIT_E15__unique_singleEDpOT0_, symObjAddr: 0x1EA70, symBinAddr: 0x6CF2C, symSize: 0x70 }
  - { offset: 0x270F4F, size: 0x8, addend: 0x0, symName: __ZNSt3__111make_uniqueB8ne190107I18llm_build_minicpm3JRK11llama_modelRK16llm_graph_paramsRP11ggml_cgraphEEENS_11__unique_ifIT_E15__unique_singleEDpOT0_, symObjAddr: 0x1D148, symBinAddr: 0x6B604, symSize: 0x70 }
  - { offset: 0x2710A4, size: 0x8, addend: 0x0, symName: __ZNSt3__111make_uniqueB8ne190107I14llm_build_gpt2JRK11llama_modelRK16llm_graph_paramsRP11ggml_cgraphEEENS_11__unique_ifIT_E15__unique_singleEDpOT0_, symObjAddr: 0x1CCE8, symBinAddr: 0x6B1A4, symSize: 0x70 }
  - { offset: 0x2711F9, size: 0x8, addend: 0x0, symName: __ZNSt3__111make_uniqueB8ne190107I16llm_build_gemma3JRK11llama_modelRK16llm_graph_paramsRP11ggml_cgraphEEENS_11__unique_ifIT_E15__unique_singleEDpOT0_, symObjAddr: 0x1D490, symBinAddr: 0x6B94C, symSize: 0x70 }
  - { offset: 0x27134E, size: 0x8, addend: 0x0, symName: __ZNSt3__111make_uniqueB8ne190107I17llm_build_gptneoxJRK11llama_modelRK16llm_graph_paramsRP11ggml_cgraphEEENS_11__unique_ifIT_E15__unique_singleEDpOT0_, symObjAddr: 0x1E098, symBinAddr: 0x6C554, symSize: 0x70 }
  - { offset: 0x2714A3, size: 0x8, addend: 0x0, symName: __ZNSt3__111make_uniqueB8ne190107I14llm_build_jaisJRK11llama_modelRK16llm_graph_paramsRP11ggml_cgraphEEENS_11__unique_ifIT_E15__unique_singleEDpOT0_, symObjAddr: 0x1E958, symBinAddr: 0x6CE14, symSize: 0x70 }
  - { offset: 0x2715F8, size: 0x8, addend: 0x0, symName: __ZNSt3__111make_uniqueB8ne190107I14llm_build_qwenJRK11llama_modelRK16llm_graph_paramsRP11ggml_cgraphEEENS_11__unique_ifIT_E15__unique_singleEDpOT0_, symObjAddr: 0x1C658, symBinAddr: 0x6AB14, symSize: 0x70 }
  - { offset: 0x27174D, size: 0x8, addend: 0x0, symName: __ZNSt3__111make_uniqueB8ne190107I19llm_build_starcoderJRK11llama_modelRK16llm_graph_paramsRP11ggml_cgraphEEENS_11__unique_ifIT_E15__unique_singleEDpOT0_, symObjAddr: 0x1C0E0, symBinAddr: 0x6A59C, symSize: 0x70 }
  - { offset: 0x2718A2, size: 0x8, addend: 0x0, symName: __ZNSt3__111make_uniqueB8ne190107I14llm_build_phi2JRK11llama_modelRK16llm_graph_paramsRP11ggml_cgraphEEENS_11__unique_ifIT_E15__unique_singleEDpOT0_, symObjAddr: 0x1CAB8, symBinAddr: 0x6AF74, symSize: 0x70 }
  - { offset: 0x2719F7, size: 0x8, addend: 0x0, symName: __ZNSt3__111make_uniqueB8ne190107I15llm_build_orionJRK11llama_modelRK16llm_graph_paramsRP11ggml_cgraphEEENS_11__unique_ifIT_E15__unique_singleEDpOT0_, symObjAddr: 0x1CF18, symBinAddr: 0x6B3D4, symSize: 0x70 }
  - { offset: 0x271B4C, size: 0x8, addend: 0x0, symName: __ZNSt3__111make_uniqueB8ne190107I16llm_build_bitnetJRK11llama_modelRK16llm_graph_paramsRP11ggml_cgraphEEENS_11__unique_ifIT_E15__unique_singleEDpOT0_, symObjAddr: 0x1E610, symBinAddr: 0x6CACC, symSize: 0x70 }
  - { offset: 0x271CA1, size: 0x8, addend: 0x0, symName: __ZNSt3__111make_uniqueB8ne190107I15llm_build_plamoJRK11llama_modelRK16llm_graph_paramsRP11ggml_cgraphEEENS_11__unique_ifIT_E15__unique_singleEDpOT0_, symObjAddr: 0x1CBD0, symBinAddr: 0x6B08C, symSize: 0x70 }
  - { offset: 0x271DF6, size: 0x8, addend: 0x0, symName: __ZNSt3__111make_uniqueB8ne190107I15llm_build_olmo2JRK11llama_modelRK16llm_graph_paramsRP11ggml_cgraphEEENS_11__unique_ifIT_E15__unique_singleEDpOT0_, symObjAddr: 0x1DD50, symBinAddr: 0x6C20C, symSize: 0x70 }
  - { offset: 0x271F4B, size: 0x8, addend: 0x0, symName: __ZNSt3__111make_uniqueB8ne190107I18llm_build_deepseekJRK11llama_modelRK16llm_graph_paramsRP11ggml_cgraphEEENS_11__unique_ifIT_E15__unique_singleEDpOT0_, symObjAddr: 0x1E2C8, symBinAddr: 0x6C784, symSize: 0x70 }
  - { offset: 0x2720A0, size: 0x8, addend: 0x0, symName: __ZNSt3__111make_uniqueB8ne190107I15llm_build_rwkv6JRK11llama_modelRK16llm_graph_paramsRP11ggml_cgraphEEENS_11__unique_ifIT_E15__unique_singleEDpOT0_, symObjAddr: 0x1ECA0, symBinAddr: 0x6D15C, symSize: 0x70 }
  - { offset: 0x2721F5, size: 0x8, addend: 0x0, symName: __ZNSt3__111make_uniqueB8ne190107I15llm_build_olmoeJRK11llama_modelRK16llm_graph_paramsRP11ggml_cgraphEEENS_11__unique_ifIT_E15__unique_singleEDpOT0_, symObjAddr: 0x1DE68, symBinAddr: 0x6C324, symSize: 0x70 }
  - { offset: 0x27234A, size: 0x8, addend: 0x0, symName: __ZNSt3__111make_uniqueB8ne190107I16llm_build_arwkv7JRK11llama_modelRK16llm_graph_paramsRP11ggml_cgraphEEENS_11__unique_ifIT_E15__unique_singleEDpOT0_, symObjAddr: 0x1EFE8, symBinAddr: 0x6D4A4, symSize: 0x70 }
  - { offset: 0x27249F, size: 0x8, addend: 0x0, symName: __ZNSt3__111make_uniqueB8ne190107I16llm_build_t5_decJRK11llama_modelRK16llm_graph_paramsRP11ggml_cgraphEEENS_11__unique_ifIT_E15__unique_singleEDpOT0_, symObjAddr: 0x1E840, symBinAddr: 0x6CCFC, symSize: 0x70 }
  - { offset: 0x27BB6B, size: 0x8, addend: 0x0, symName: __ZNK11llama_model10print_infoEv, symObjAddr: 0x19728, symBinAddr: 0x67BE4, symSize: 0xE10 }
  - { offset: 0x27E6E0, size: 0x8, addend: 0x0, symName: __ZNK11llama_model13create_memoryEv, symObjAddr: 0x1AC38, symBinAddr: 0x690F4, symSize: 0x144 }
  - { offset: 0x282F1E, size: 0x8, addend: 0x0, symName: __Z13llm_type_name8llm_type, symObjAddr: 0x0, symBinAddr: 0x4E4CC, symSize: 0x28 }
  - { offset: 0x282FBE, size: 0x8, addend: 0x0, symName: __ZNSt3__13mapI23llama_rope_scaling_typePKcNS_4lessIS1_EENS_9allocatorINS_4pairIKS1_S3_EEEEED1B8ne190107Ev, symObjAddr: 0x28, symBinAddr: 0x4E4F4, symSize: 0x28 }
  - { offset: 0x283072, size: 0x8, addend: 0x0, symName: __ZNSt3__16__treeINS_12__value_typeI23llama_rope_scaling_typePKcEENS_19__map_value_compareIS2_S5_NS_4lessIS2_EELb1EEENS_9allocatorIS5_EEE7destroyEPNS_11__tree_nodeIS5_PvEE, symObjAddr: 0x20604, symBinAddr: 0x6E268, symSize: 0x48 }
  - { offset: 0x283A57, size: 0x8, addend: 0x0, symName: __ZN11llama_modelC2ERK18llama_model_params, symObjAddr: 0x50, symBinAddr: 0x4E51C, symSize: 0x20C }
  - { offset: 0x284334, size: 0x8, addend: 0x0, symName: __ZNSt3__16vectorINS_4pairINS_12basic_stringIcNS_11char_traitsIcEENS_9allocatorIcEEEEP11ggml_tensorEENS5_ISA_EEED1B8ne190107Ev, symObjAddr: 0x25C, symBinAddr: 0x4E728, symSize: 0x80 }
  - { offset: 0x284651, size: 0x8, addend: 0x0, symName: __ZNSt3__113unordered_mapINS_12basic_stringIcNS_11char_traitsIcEENS_9allocatorIcEEEES6_NS_4hashIS6_EENS_8equal_toIS6_EENS4_INS_4pairIKS6_S6_EEEEED1B8ne190107Ev, symObjAddr: 0x2DC, symBinAddr: 0x4E7A8, symSize: 0xA0 }
  - { offset: 0x284FC8, size: 0x8, addend: 0x0, symName: __ZN11llama_modelC1ERK18llama_model_params, symObjAddr: 0x37C, symBinAddr: 0x4E848, symSize: 0x4 }
  - { offset: 0x285005, size: 0x8, addend: 0x0, symName: __ZN11llama_modelC1ERK18llama_model_params, symObjAddr: 0x37C, symBinAddr: 0x4E848, symSize: 0x4 }
  - { offset: 0x2850F5, size: 0x8, addend: 0x0, symName: __ZN11llama_modelD2Ev, symObjAddr: 0x380, symBinAddr: 0x4E84C, symSize: 0x178 }
  - { offset: 0x285F33, size: 0x8, addend: 0x0, symName: __ZN11llama_model4implD2Ev, symObjAddr: 0x2064C, symBinAddr: 0x6E2B0, symSize: 0x22C }
  - { offset: 0x287003, size: 0x8, addend: 0x0, symName: __ZN11llama_modelD1Ev, symObjAddr: 0x4F8, symBinAddr: 0x4E9C4, symSize: 0x4 }
  - { offset: 0x287026, size: 0x8, addend: 0x0, symName: __ZN11llama_modelD1Ev, symObjAddr: 0x4F8, symBinAddr: 0x4E9C4, symSize: 0x4 }
  - { offset: 0x287054, size: 0x8, addend: 0x0, symName: __ZN11llama_model10load_statsER18llama_model_loader, symObjAddr: 0x4FC, symBinAddr: 0x4E9C8, symSize: 0x10 }
  - { offset: 0x28708C, size: 0x8, addend: 0x0, symName: __ZN11llama_model10load_statsER18llama_model_loader, symObjAddr: 0x4FC, symBinAddr: 0x4E9C8, symSize: 0x10 }
  - { offset: 0x2870FB, size: 0x8, addend: 0x0, symName: __ZN11llama_model9load_archER18llama_model_loader, symObjAddr: 0x50C, symBinAddr: 0x4E9D8, symSize: 0x188 }
  - { offset: 0x287951, size: 0x8, addend: 0x0, symName: __ZN11llama_model12load_hparamsER18llama_model_loader, symObjAddr: 0x694, symBinAddr: 0x4EB60, symSize: 0x2454 }
  - { offset: 0x289C8B, size: 0x8, addend: 0x0, symName: __ZNSt3__112__hash_tableINS_17__hash_value_typeINS_12basic_stringIcNS_11char_traitsIcEENS_9allocatorIcEEEES7_EENS_22__unordered_map_hasherIS7_S8_NS_4hashIS7_EENS_8equal_toIS7_EELb1EEENS_21__unordered_map_equalIS7_S8_SD_SB_Lb1EEENS5_IS8_EEE21__emplace_unique_implIJRPKcRKS7_EEENS_4pairINS_15__hash_iteratorIPNS_11__hash_nodeIS8_PvEEEEbEEDpOT_, symObjAddr: 0x20908, symBinAddr: 0x6E538, symSize: 0x154 }
  - { offset: 0x28A5D0, size: 0x8, addend: 0x0, symName: _llama_model_rope_type, symObjAddr: 0x2C40, symBinAddr: 0x5110C, symSize: 0x60 }
  - { offset: 0x28A5FE, size: 0x8, addend: 0x0, symName: __ZN11llama_model10load_vocabER18llama_model_loader, symObjAddr: 0x2CA0, symBinAddr: 0x5116C, symSize: 0x4C }
  - { offset: 0x28A644, size: 0x8, addend: 0x0, symName: __ZNSt3__13mapI23llama_rope_scaling_typePKcNS_4lessIS1_EENS_9allocatorINS_4pairIKS1_S3_EEEEEC2B8ne190107ESt16initializer_listIS9_ERKS5_, symObjAddr: 0x20364, symBinAddr: 0x6DFC8, symSize: 0xF0 }
  - { offset: 0x28A672, size: 0x8, addend: 0x0, symName: __ZNK11llama_model9arch_nameEv, symObjAddr: 0x2AE8, symBinAddr: 0x50FB4, symSize: 0xAC }
  - { offset: 0x28A8D4, size: 0x8, addend: 0x0, symName: __ZNK11llama_model9type_nameEv, symObjAddr: 0x2B94, symBinAddr: 0x51060, symSize: 0xAC }
  - { offset: 0x28A8E6, size: 0x8, addend: 0x0, symName: __ZNK11llama_model9type_nameEv, symObjAddr: 0x2B94, symBinAddr: 0x51060, symSize: 0xAC }
  - { offset: 0x28AB48, size: 0x8, addend: 0x0, symName: _llama_model_rope_type, symObjAddr: 0x2C40, symBinAddr: 0x5110C, symSize: 0x60 }
  - { offset: 0x28AB5A, size: 0x8, addend: 0x0, symName: __ZN11llama_model10load_vocabER18llama_model_loader, symObjAddr: 0x2CA0, symBinAddr: 0x5116C, symSize: 0x4C }
  - { offset: 0x28BA90, size: 0x8, addend: 0x0, symName: __ZN11llama_model12load_tensorsER18llama_model_loader, symObjAddr: 0x2CEC, symBinAddr: 0x511B8, symSize: 0x156D0 }
  - { offset: 0x2AE501, size: 0x8, addend: 0x0, symName: __ZNSt3__16vectorINS_4pairIP19ggml_backend_deviceP24ggml_backend_buffer_typeEENS_9allocatorIS6_EEE18__insert_with_sizeB8ne190107INS_11__wrap_iterIPS6_EESD_EESD_NSB_IPKS6_EET_T0_l, symObjAddr: 0x21690, symBinAddr: 0x6EDE8, symSize: 0x364 }
  - { offset: 0x2AEE39, size: 0x8, addend: 0x0, symName: __ZNSt3__16vectorIN11llama_model4impl9layer_devENS_9allocatorIS3_EEE8__appendEm, symObjAddr: 0x21A08, symBinAddr: 0x6F14C, symSize: 0x128 }
  - { offset: 0x2AF25F, size: 0x8, addend: 0x0, symName: __ZNKSt3__16vectorIN11llama_model4impl9layer_devENS_9allocatorIS3_EEE20__throw_length_errorB8ne190107Ev, symObjAddr: 0x21B30, symBinAddr: 0x6F274, symSize: 0x14 }
  - { offset: 0x2AF279, size: 0x8, addend: 0x0, symName: '__ZZN11llama_model12load_tensorsER18llama_model_loaderENK3$_1clEi', symObjAddr: 0x183D0, symBinAddr: 0x6689C, symSize: 0x1C0 }
  - { offset: 0x2AF5A3, size: 0x8, addend: 0x0, symName: '__ZZN11llama_model12load_tensorsER18llama_model_loaderENK3$_3clERK11LLM_TN_IMPLRKSt16initializer_listIxEi', symObjAddr: 0x18590, symBinAddr: 0x66A5C, symSize: 0xF4C }
  - { offset: 0x2AF5BB, size: 0x8, addend: 0x0, symName: __ZNSt3__16vectorI11llama_layerNS_9allocatorIS1_EEE8__appendEm, symObjAddr: 0x21BA0, symBinAddr: 0x6F29C, symSize: 0x1B8 }
  - { offset: 0x2AFA0F, size: 0x8, addend: 0x0, symName: __ZNKSt3__16vectorI11llama_layerNS_9allocatorIS1_EEE20__throw_length_errorB8ne190107Ev, symObjAddr: 0x21D58, symBinAddr: 0x6F454, symSize: 0x14 }
  - { offset: 0x2AFA42, size: 0x8, addend: 0x0, symName: '__ZZN11llama_model12load_tensorsER18llama_model_loaderENK3$_3clERK11LLM_TN_IMPLRKSt16initializer_listIxEi', symObjAddr: 0x18590, symBinAddr: 0x66A5C, symSize: 0xF4C }
  - { offset: 0x2B2005, size: 0x8, addend: 0x0, symName: __ZNSt3__16vectorINS_4pairIP12ggml_contextNS_13unordered_mapIjP19ggml_backend_bufferNS_4hashIjEENS_8equal_toIjEENS_9allocatorINS1_IKjS6_EEEEEEEENSB_ISG_EEE7reserveEm, symObjAddr: 0x194EC, symBinAddr: 0x679A8, symSize: 0xF4 }
  - { offset: 0x2B23F2, size: 0x8, addend: 0x0, symName: __ZNSt3__112__hash_tableINS_17__hash_value_typeIjP19ggml_backend_bufferEENS_22__unordered_map_hasherIjS4_NS_4hashIjEENS_8equal_toIjEELb1EEENS_21__unordered_map_equalIjS4_S9_S7_Lb1EEENS_9allocatorIS4_EEE11__do_rehashILb1EEEvm, symObjAddr: 0x21F94, symBinAddr: 0x6F668, symSize: 0x1DC }
  - { offset: 0x2B2898, size: 0x8, addend: 0x0, symName: __ZNSt3__112__hash_tableINS_17__hash_value_typeIjP19ggml_backend_bufferEENS_22__unordered_map_hasherIjS4_NS_4hashIjEENS_8equal_toIjEELb1EEENS_21__unordered_map_equalIjS4_S9_S7_Lb1EEENS_9allocatorIS4_EEE25__emplace_unique_key_argsIjJRjRS3_EEENS_4pairINS_15__hash_iteratorIPNS_11__hash_nodeIS4_PvEEEEbEERKT_DpOT0_, symObjAddr: 0x22170, symBinAddr: 0x6F844, symSize: 0x304 }
  - { offset: 0x2B28D6, size: 0x8, addend: 0x0, symName: __ZNSt3__112__hash_tableINS_17__hash_value_typeIjP19ggml_backend_bufferEENS_22__unordered_map_hasherIjS4_NS_4hashIjEENS_8equal_toIjEELb1EEENS_21__unordered_map_equalIjS4_S9_S7_Lb1EEENS_9allocatorIS4_EEE25__emplace_unique_key_argsIjJRjRS3_EEENS_4pairINS_15__hash_iteratorIPNS_11__hash_nodeIS4_PvEEEEbEERKT_DpOT0_, symObjAddr: 0x22170, symBinAddr: 0x6F844, symSize: 0x304 }
  - { offset: 0x2B30E5, size: 0x8, addend: 0x0, symName: __ZNSt3__113unordered_mapIjP19ggml_backend_bufferNS_4hashIjEENS_8equal_toIjEENS_9allocatorINS_4pairIKjS2_EEEEEC2ERKSC_, symObjAddr: 0x225D4, symBinAddr: 0x6FC94, symSize: 0x140 }
  - { offset: 0x2B34D3, size: 0x8, addend: 0x0, symName: __ZNSt3__16vectorINS_4pairIP12ggml_contextNS_13unordered_mapIjP19ggml_backend_bufferNS_4hashIjEENS_8equal_toIjEENS_9allocatorINS1_IKjS6_EEEEEEEENSB_ISG_EEE24__emplace_back_slow_pathIJRS3_RSF_EEEPSG_DpOT_, symObjAddr: 0x22488, symBinAddr: 0x6FB48, symSize: 0x14C }
  - { offset: 0x2B3A3F, size: 0x8, addend: 0x0, symName: __ZNSt3__16vectorINS_4pairINS_12basic_stringIcNS_11char_traitsIcEENS_9allocatorIcEEEEP11ggml_tensorEENS5_ISA_EEE24__emplace_back_slow_pathIJPKcRS9_EEEPSA_DpOT_, symObjAddr: 0x22A18, symBinAddr: 0x700D8, symSize: 0x198 }
  - { offset: 0x2B4234, size: 0x8, addend: 0x0, symName: __ZNSt3__112__hash_tableINS_17__hash_value_typeIjP19ggml_backend_bufferEENS_22__unordered_map_hasherIjS4_NS_4hashIjEENS_8equal_toIjEELb1EEENS_21__unordered_map_equalIjS4_S9_S7_Lb1EEENS_9allocatorIS4_EEED1Ev, symObjAddr: 0x21F40, symBinAddr: 0x6F614, symSize: 0x54 }
  - { offset: 0x2B423F, size: 0x8, addend: 0x0, symName: __ZNKSt3__16vectorINS_4pairIP19ggml_backend_deviceP24ggml_backend_buffer_typeEENS_9allocatorIS6_EEE20__throw_length_errorB8ne190107Ev, symObjAddr: 0x1FB6C, symBinAddr: 0x6DFA0, symSize: 0x14 }
  - { offset: 0x2B428C, size: 0x8, addend: 0x0, symName: __ZNKSt3__16vectorINS_4pairIP12ggml_contextNS_13unordered_mapIjP19ggml_backend_bufferNS_4hashIjEENS_8equal_toIjEENS_9allocatorINS1_IKjS6_EEEEEEEENSB_ISG_EEE20__throw_length_errorB8ne190107Ev, symObjAddr: 0x21D80, symBinAddr: 0x6F468, symSize: 0x14 }
  - { offset: 0x2B42AF, size: 0x8, addend: 0x0, symName: __ZNSt3__16vectorINS_4pairIP12ggml_contextNS_13unordered_mapIjP19ggml_backend_bufferNS_4hashIjEENS_8equal_toIjEENS_9allocatorINS1_IKjS6_EEEEEEEENSB_ISG_EEE24__emplace_back_slow_pathIJRS3_RSF_EEEPSG_DpOT_, symObjAddr: 0x22488, symBinAddr: 0x6FB48, symSize: 0x14C }
  - { offset: 0x2B42D2, size: 0x8, addend: 0x0, symName: __ZNSt3__16vectorIN11llama_model4impl9layer_devENS_9allocatorIS3_EEE8__appendEm, symObjAddr: 0x21A08, symBinAddr: 0x6F14C, symSize: 0x128 }
  - { offset: 0x2B42DD, size: 0x8, addend: 0x0, symName: __ZNSt3__113unordered_mapIjP19ggml_backend_bufferNS_4hashIjEENS_8equal_toIjEENS_9allocatorINS_4pairIKjS2_EEEEED1B8ne190107Ev, symObjAddr: 0x195E0, symBinAddr: 0x67A9C, symSize: 0x54 }
  - { offset: 0x2B45D5, size: 0x8, addend: 0x0, symName: __ZNSt3__16vectorINS_4pairIP12ggml_contextNS_13unordered_mapIjP19ggml_backend_bufferNS_4hashIjEENS_8equal_toIjEENS_9allocatorINS1_IKjS6_EEEEEEEENSB_ISG_EEED1B8ne190107Ev, symObjAddr: 0x19634, symBinAddr: 0x67AF0, symSize: 0x9C }
  - { offset: 0x2B4AE3, size: 0x8, addend: 0x0, symName: __ZNK11llama_model9n_devicesEv, symObjAddr: 0x183BC, symBinAddr: 0x66888, symSize: 0x14 }
  - { offset: 0x2B4B07, size: 0x8, addend: 0x0, symName: __ZNK11llama_model9n_devicesEv, symObjAddr: 0x183BC, symBinAddr: 0x66888, symSize: 0x14 }
  - { offset: 0x2B4C1B, size: 0x8, addend: 0x0, symName: __ZNKSt3__16vectorIP19ggml_backend_deviceNS_9allocatorIS2_EEE20__throw_out_of_rangeB8ne190107Ev, symObjAddr: 0x1FC1C, symBinAddr: 0x6DFB4, symSize: 0x14 }
  - { offset: 0x2B5CF0, size: 0x8, addend: 0x0, symName: __ZNKSt3__16vectorIN11llama_model4impl9layer_devENS_9allocatorIS3_EEE20__throw_out_of_rangeB8ne190107Ev, symObjAddr: 0x21B8C, symBinAddr: 0x6F288, symSize: 0x14 }
  - { offset: 0x2B5D1A, size: 0x8, addend: 0x0, symName: __ZNSt3__16vectorI11llama_layerNS_9allocatorIS1_EEE8__appendEm, symObjAddr: 0x21BA0, symBinAddr: 0x6F29C, symSize: 0x1B8 }
  - { offset: 0x2B5FB0, size: 0x8, addend: 0x0, symName: __ZNKSt3__16vectorINS_4pairIP12ggml_contextNS_13unordered_mapIjP19ggml_backend_bufferNS_4hashIjEENS_8equal_toIjEENS_9allocatorINS1_IKjS6_EEEEEEEENSB_ISG_EEE20__throw_length_errorB8ne190107Ev, symObjAddr: 0x21D80, symBinAddr: 0x6F468, symSize: 0x14 }
  - { offset: 0x2B5FDA, size: 0x8, addend: 0x0, symName: __ZNSt3__114__split_bufferINS_4pairIP12ggml_contextNS_13unordered_mapIjP19ggml_backend_bufferNS_4hashIjEENS_8equal_toIjEENS_9allocatorINS1_IKjS6_EEEEEEEERNSB_ISG_EEED1Ev, symObjAddr: 0x21D94, symBinAddr: 0x6F47C, symSize: 0x90 }
  - { offset: 0x2B5FE5, size: 0x8, addend: 0x0, symName: __ZNSt3__114__split_bufferINS_4pairIP12ggml_contextNS_13unordered_mapIjP19ggml_backend_bufferNS_4hashIjEENS_8equal_toIjEENS_9allocatorINS1_IKjS6_EEEEEEEERNSB_ISG_EEED1Ev, symObjAddr: 0x21D94, symBinAddr: 0x6F47C, symSize: 0x90 }
  - { offset: 0x2B652C, size: 0x8, addend: 0x0, symName: __ZNK11llama_model4descEv, symObjAddr: 0x196D0, symBinAddr: 0x67B8C, symSize: 0x2C }
  - { offset: 0x2B6550, size: 0x8, addend: 0x0, symName: __ZNK11llama_model4descEv, symObjAddr: 0x196D0, symBinAddr: 0x67B8C, symSize: 0x2C }
  - { offset: 0x2B66DF, size: 0x8, addend: 0x0, symName: __ZNSt3__16vectorINS_4pairIP19ggml_backend_deviceP24ggml_backend_buffer_typeEENS_9allocatorIS6_EEE18__insert_with_sizeB8ne190107INS_11__wrap_iterIPS6_EESD_EESD_NSB_IPKS6_EET_T0_l, symObjAddr: 0x21690, symBinAddr: 0x6EDE8, symSize: 0x364 }
  - { offset: 0x2B66F0, size: 0x8, addend: 0x0, symName: __ZNK11llama_model4sizeEv, symObjAddr: 0x196FC, symBinAddr: 0x67BB8, symSize: 0xC }
  - { offset: 0x2B6714, size: 0x8, addend: 0x0, symName: __ZNK11llama_model4sizeEv, symObjAddr: 0x196FC, symBinAddr: 0x67BB8, symSize: 0xC }
  - { offset: 0x2B6748, size: 0x8, addend: 0x0, symName: __ZNK11llama_model9n_tensorsEv, symObjAddr: 0x19708, symBinAddr: 0x67BC4, symSize: 0x14 }
  - { offset: 0x2B6774, size: 0x8, addend: 0x0, symName: __ZNK11llama_model9n_tensorsEv, symObjAddr: 0x19708, symBinAddr: 0x67BC4, symSize: 0x14 }
  - { offset: 0x2B6792, size: 0x8, addend: 0x0, symName: __ZNK11llama_model10n_elementsEv, symObjAddr: 0x1971C, symBinAddr: 0x67BD8, symSize: 0xC }
  - { offset: 0x2B67B6, size: 0x8, addend: 0x0, symName: __ZNK11llama_model10n_elementsEv, symObjAddr: 0x1971C, symBinAddr: 0x67BD8, symSize: 0xC }
  - { offset: 0x2B7532, size: 0x8, addend: 0x0, symName: '__ZZNK11llama_model10print_infoEvENK3$_0clERKNSt3__18functionIFjjEEEj', symObjAddr: 0x1A538, symBinAddr: 0x689F4, symSize: 0x300 }
  - { offset: 0x2B86EE, size: 0x8, addend: 0x0, symName: __ZNK11llama_model9dev_layerEi, symObjAddr: 0x1A838, symBinAddr: 0x68CF4, symSize: 0x30 }
  - { offset: 0x2B872A, size: 0x8, addend: 0x0, symName: __ZNK11llama_model9dev_layerEi, symObjAddr: 0x1A838, symBinAddr: 0x68CF4, symSize: 0x30 }
  - { offset: 0x2B8782, size: 0x8, addend: 0x0, symName: __ZNK11llama_model10dev_outputEv, symObjAddr: 0x1A868, symBinAddr: 0x68D24, symSize: 0xC }
  - { offset: 0x2B878D, size: 0x8, addend: 0x0, symName: __ZNK11llama_model10dev_outputEv, symObjAddr: 0x1A868, symBinAddr: 0x68D24, symSize: 0xC }
  - { offset: 0x2B87B9, size: 0x8, addend: 0x0, symName: __ZNK11llama_model10dev_outputEv, symObjAddr: 0x1A868, symBinAddr: 0x68D24, symSize: 0xC }
  - { offset: 0x2B8853, size: 0x8, addend: 0x0, symName: __ZNK11llama_model11select_buftEi, symObjAddr: 0x1A874, symBinAddr: 0x68D30, symSize: 0x2E4 }
  - { offset: 0x2B91E2, size: 0x8, addend: 0x0, symName: __ZNK11llama_model10get_tensorEPKc, symObjAddr: 0x1AB58, symBinAddr: 0x69014, symSize: 0xE0 }
  - { offset: 0x2B9AB2, size: 0x8, addend: 0x0, symName: __ZNK11llama_model11build_graphERK16llm_graph_paramsP11ggml_cgraph14llm_graph_type, symObjAddr: 0x1AD7C, symBinAddr: 0x69238, symSize: 0xF04 }
  - { offset: 0x2BB414, size: 0x8, addend: 0x0, symName: __ZN15llm_build_llamaC2ERK11llama_modelRK16llm_graph_paramsP11ggml_cgraph, symObjAddr: 0x23290, symBinAddr: 0x70950, symSize: 0x74C }
  - { offset: 0x2BBA10, size: 0x8, addend: 0x0, symName: __ZN14llm_build_bertC2ERK11llama_modelRK16llm_graph_paramsP11ggml_cgraph, symObjAddr: 0x25D40, symBinAddr: 0x73400, symSize: 0x780 }
  - { offset: 0x2BC11B, size: 0x8, addend: 0x0, symName: __ZN14llm_build_phi3C2ERK11llama_modelRK16llm_graph_paramsP11ggml_cgraph, symObjAddr: 0x295B4, symBinAddr: 0x76C74, symSize: 0x730 }
  - { offset: 0x2BC7A3, size: 0x8, addend: 0x0, symName: __ZNSt3__110unique_ptrI17llm_graph_contextNS_14default_deleteIS1_EEEaSB8ne190107I26llm_build_wavtokenizer_decNS2_IS6_EEvvEERS4_ONS0_IT_T0_EE, symObjAddr: 0x1F288, symBinAddr: 0x6D744, symSize: 0x58 }
  - { offset: 0x2BC942, size: 0x8, addend: 0x0, symName: __ZNSt3__110unique_ptrI26llm_build_wavtokenizer_decNS_14default_deleteIS1_EEED1B8ne190107Ev, symObjAddr: 0x1F2E0, symBinAddr: 0x6D79C, symSize: 0x50 }
  - { offset: 0x2BCAD8, size: 0x8, addend: 0x0, symName: __ZNSt3__110unique_ptrI17llm_graph_contextNS_14default_deleteIS1_EEEaSB8ne190107I20llm_build_bailingmoeNS2_IS6_EEvvEERS4_ONS0_IT_T0_EE, symObjAddr: 0x1F4B8, symBinAddr: 0x6D974, symSize: 0x58 }
  - { offset: 0x2BCC77, size: 0x8, addend: 0x0, symName: __ZNSt3__110unique_ptrI20llm_build_bailingmoeNS_14default_deleteIS1_EEED1B8ne190107Ev, symObjAddr: 0x1F510, symBinAddr: 0x6D9CC, symSize: 0x50 }
  - { offset: 0x2BCE0D, size: 0x8, addend: 0x0, symName: __ZNSt3__110unique_ptrI17llm_graph_contextNS_14default_deleteIS1_EEEaSB8ne190107I14llm_build_olmoNS2_IS6_EEvvEERS4_ONS0_IT_T0_EE, symObjAddr: 0x1DCA8, symBinAddr: 0x6C164, symSize: 0x58 }
  - { offset: 0x2BCFAC, size: 0x8, addend: 0x0, symName: __ZNSt3__110unique_ptrI14llm_build_olmoNS_14default_deleteIS1_EEED1B8ne190107Ev, symObjAddr: 0x1DD00, symBinAddr: 0x6C1BC, symSize: 0x50 }
  - { offset: 0x2BD142, size: 0x8, addend: 0x0, symName: __ZNSt3__110unique_ptrI17llm_graph_contextNS_14default_deleteIS1_EEEaSB8ne190107I19llm_build_deepseek2NS2_IS6_EEvvEERS4_ONS0_IT_T0_EE, symObjAddr: 0x1E450, symBinAddr: 0x6C90C, symSize: 0x58 }
  - { offset: 0x2BD2E1, size: 0x8, addend: 0x0, symName: __ZNSt3__110unique_ptrI19llm_build_deepseek2NS_14default_deleteIS1_EEED1B8ne190107Ev, symObjAddr: 0x1E4A8, symBinAddr: 0x6C964, symSize: 0x50 }
  - { offset: 0x2BD477, size: 0x8, addend: 0x0, symName: __ZNSt3__110unique_ptrI17llm_graph_contextNS_14default_deleteIS1_EEEaSB8ne190107I17llm_build_openelmNS2_IS6_EEvvEERS4_ONS0_IT_T0_EE, symObjAddr: 0x1DFF0, symBinAddr: 0x6C4AC, symSize: 0x58 }
  - { offset: 0x2BD616, size: 0x8, addend: 0x0, symName: __ZNSt3__110unique_ptrI17llm_build_openelmNS_14default_deleteIS1_EEED1B8ne190107Ev, symObjAddr: 0x1E048, symBinAddr: 0x6C504, symSize: 0x50 }
  - { offset: 0x2BD7AC, size: 0x8, addend: 0x0, symName: __ZNSt3__110unique_ptrI17llm_graph_contextNS_14default_deleteIS1_EEEaSB8ne190107I14llm_build_dbrxNS2_IS6_EEvvEERS4_ONS0_IT_T0_EE, symObjAddr: 0x1DB90, symBinAddr: 0x6C04C, symSize: 0x58 }
  - { offset: 0x2BD94B, size: 0x8, addend: 0x0, symName: __ZNSt3__110unique_ptrI14llm_build_dbrxNS_14default_deleteIS1_EEED1B8ne190107Ev, symObjAddr: 0x1DBE8, symBinAddr: 0x6C0A4, symSize: 0x50 }
  - { offset: 0x2BDAE1, size: 0x8, addend: 0x0, symName: __ZNSt3__110unique_ptrI17llm_graph_contextNS_14default_deleteIS1_EEEaSB8ne190107I19llm_build_chameleonNS2_IS6_EEvvEERS4_ONS0_IT_T0_EE, symObjAddr: 0x1F170, symBinAddr: 0x6D62C, symSize: 0x58 }
  - { offset: 0x2BDC80, size: 0x8, addend: 0x0, symName: __ZNSt3__110unique_ptrI19llm_build_chameleonNS_14default_deleteIS1_EEED1B8ne190107Ev, symObjAddr: 0x1F1C8, symBinAddr: 0x6D684, symSize: 0x50 }
  - { offset: 0x2BDE16, size: 0x8, addend: 0x0, symName: __ZNSt3__110unique_ptrI17llm_graph_contextNS_14default_deleteIS1_EEEaSB8ne190107I13llm_build_plmNS2_IS6_EEvvEERS4_ONS0_IT_T0_EE, symObjAddr: 0x1F3A0, symBinAddr: 0x6D85C, symSize: 0x58 }
  - { offset: 0x2BDFB5, size: 0x8, addend: 0x0, symName: __ZNSt3__110unique_ptrI13llm_build_plmNS_14default_deleteIS1_EEED1B8ne190107Ev, symObjAddr: 0x1F3F8, symBinAddr: 0x6D8B4, symSize: 0x50 }
  - { offset: 0x2BE14B, size: 0x8, addend: 0x0, symName: __ZNSt3__110unique_ptrI17llm_graph_contextNS_14default_deleteIS1_EEEaSB8ne190107I16llm_build_xverseNS2_IS6_EEvvEERS4_ONS0_IT_T0_EE, symObjAddr: 0x1D848, symBinAddr: 0x6BD04, symSize: 0x58 }
  - { offset: 0x2BE2EA, size: 0x8, addend: 0x0, symName: __ZNSt3__110unique_ptrI16llm_build_xverseNS_14default_deleteIS1_EEED1B8ne190107Ev, symObjAddr: 0x1D8A0, symBinAddr: 0x6BD5C, symSize: 0x50 }
  - { offset: 0x2BE480, size: 0x8, addend: 0x0, symName: __ZNSt3__110unique_ptrI17llm_graph_contextNS_14default_deleteIS1_EEEaSB8ne190107I15llm_build_mambaNS2_IS6_EEvvEERS4_ONS0_IT_T0_EE, symObjAddr: 0x1D730, symBinAddr: 0x6BBEC, symSize: 0x58 }
  - { offset: 0x2BE61F, size: 0x8, addend: 0x0, symName: __ZNSt3__110unique_ptrI15llm_build_mambaNS_14default_deleteIS1_EEED1B8ne190107Ev, symObjAddr: 0x1D788, symBinAddr: 0x6BC44, symSize: 0x50 }
  - { offset: 0x2BE7B5, size: 0x8, addend: 0x0, symName: __ZNSt3__110unique_ptrI17llm_graph_contextNS_14default_deleteIS1_EEEaSB8ne190107I19llm_build_command_rNS2_IS6_EEvvEERS4_ONS0_IT_T0_EE, symObjAddr: 0x1D960, symBinAddr: 0x6BE1C, symSize: 0x58 }
  - { offset: 0x2BE954, size: 0x8, addend: 0x0, symName: __ZNSt3__110unique_ptrI19llm_build_command_rNS_14default_deleteIS1_EEED1B8ne190107Ev, symObjAddr: 0x1D9B8, symBinAddr: 0x6BE74, symSize: 0x50 }
  - { offset: 0x2BEAEA, size: 0x8, addend: 0x0, symName: __ZNSt3__110unique_ptrI17llm_graph_contextNS_14default_deleteIS1_EEEaSB8ne190107I20llm_build_rwkv6qwen2NS2_IS6_EEvvEERS4_ONS0_IT_T0_EE, symObjAddr: 0x1EE28, symBinAddr: 0x6D2E4, symSize: 0x58 }
  - { offset: 0x2BEC89, size: 0x8, addend: 0x0, symName: __ZNSt3__110unique_ptrI20llm_build_rwkv6qwen2NS_14default_deleteIS1_EEED1B8ne190107Ev, symObjAddr: 0x1EE80, symBinAddr: 0x6D33C, symSize: 0x50 }
  - { offset: 0x2BEE3C, size: 0x8, addend: 0x0, symName: __ZNSt3__110unique_ptrI17llm_graph_contextNS_14default_deleteIS1_EEEaSB8ne190107I17llm_build_cohere2NS2_IS6_EEvvEERS4_ONS0_IT_T0_EE, symObjAddr: 0x1DA78, symBinAddr: 0x6BF34, symSize: 0x58 }
  - { offset: 0x2BEFDB, size: 0x8, addend: 0x0, symName: __ZNSt3__110unique_ptrI17llm_build_cohere2NS_14default_deleteIS1_EEED1B8ne190107Ev, symObjAddr: 0x1DAD0, symBinAddr: 0x6BF8C, symSize: 0x50 }
  - { offset: 0x2BF171, size: 0x8, addend: 0x0, symName: __ZNSt3__110unique_ptrI17llm_graph_contextNS_14default_deleteIS1_EEEaSB8ne190107I18llm_build_qwen2moeNS2_IS6_EEvvEERS4_ONS0_IT_T0_EE, symObjAddr: 0x1CA10, symBinAddr: 0x6AECC, symSize: 0x58 }
  - { offset: 0x2BF310, size: 0x8, addend: 0x0, symName: __ZNSt3__110unique_ptrI18llm_build_qwen2moeNS_14default_deleteIS1_EEED1B8ne190107Ev, symObjAddr: 0x1CA68, symBinAddr: 0x6AF24, symSize: 0x50 }
  - { offset: 0x2BF4A6, size: 0x8, addend: 0x0, symName: __ZNSt3__110unique_ptrI17llm_graph_contextNS_14default_deleteIS1_EEEaSB8ne190107I20llm_build_starcoder2NS2_IS6_EEvvEERS4_ONS0_IT_T0_EE, symObjAddr: 0x1D618, symBinAddr: 0x6BAD4, symSize: 0x58 }
  - { offset: 0x2BF645, size: 0x8, addend: 0x0, symName: __ZNSt3__110unique_ptrI20llm_build_starcoder2NS_14default_deleteIS1_EEED1B8ne190107Ev, symObjAddr: 0x1D670, symBinAddr: 0x6BB2C, symSize: 0x50 }
  - { offset: 0x2BF7DB, size: 0x8, addend: 0x0, symName: __ZNSt3__110unique_ptrI17llm_graph_contextNS_14default_deleteIS1_EEEaSB8ne190107I13llm_build_mptNS2_IS6_EEvvEERS4_ONS0_IT_T0_EE, symObjAddr: 0x1C498, symBinAddr: 0x6A954, symSize: 0x58 }
  - { offset: 0x2BF97A, size: 0x8, addend: 0x0, symName: __ZNSt3__110unique_ptrI13llm_build_mptNS_14default_deleteIS1_EEED1B8ne190107Ev, symObjAddr: 0x1C4F0, symBinAddr: 0x6A9AC, symSize: 0x50 }
  - { offset: 0x2BFB10, size: 0x8, addend: 0x0, symName: __ZNSt3__110unique_ptrI17llm_graph_contextNS_14default_deleteIS1_EEEaSB8ne190107I15llm_build_qwen2NS2_IS6_EEvvEERS4_ONS0_IT_T0_EE, symObjAddr: 0x1C7E0, symBinAddr: 0x6AC9C, symSize: 0x58 }
  - { offset: 0x2BFCAF, size: 0x8, addend: 0x0, symName: __ZNSt3__110unique_ptrI15llm_build_qwen2NS_14default_deleteIS1_EEED1B8ne190107Ev, symObjAddr: 0x1C838, symBinAddr: 0x6ACF4, symSize: 0x50 }
  - { offset: 0x2BFE45, size: 0x8, addend: 0x0, symName: __ZNSt3__110unique_ptrI17llm_graph_contextNS_14default_deleteIS1_EEEaSB8ne190107I16llm_build_refactNS2_IS6_EEvvEERS4_ONS0_IT_T0_EE, symObjAddr: 0x1C268, symBinAddr: 0x6A724, symSize: 0x58 }
  - { offset: 0x2BFFE4, size: 0x8, addend: 0x0, symName: __ZNSt3__110unique_ptrI16llm_build_refactNS_14default_deleteIS1_EEED1B8ne190107Ev, symObjAddr: 0x1C2C0, symBinAddr: 0x6A77C, symSize: 0x50 }
  - { offset: 0x2C017A, size: 0x8, addend: 0x0, symName: __ZNSt3__110unique_ptrI17llm_graph_contextNS_14default_deleteIS1_EEEaSB8ne190107I16llm_build_falconNS2_IS6_EEvvEERS4_ONS0_IT_T0_EE, symObjAddr: 0x1BF20, symBinAddr: 0x6A3DC, symSize: 0x58 }
  - { offset: 0x2C0319, size: 0x8, addend: 0x0, symName: __ZNSt3__110unique_ptrI16llm_build_falconNS_14default_deleteIS1_EEED1B8ne190107Ev, symObjAddr: 0x1BF78, symBinAddr: 0x6A434, symSize: 0x50 }
  - { offset: 0x2C04AF, size: 0x8, addend: 0x0, symName: __ZNSt3__110unique_ptrI17llm_graph_contextNS_14default_deleteIS1_EEEaSB8ne190107I15llm_build_rwkv7NS2_IS6_EEvvEERS4_ONS0_IT_T0_EE, symObjAddr: 0x1EF40, symBinAddr: 0x6D3FC, symSize: 0x58 }
  - { offset: 0x2C064E, size: 0x8, addend: 0x0, symName: __ZNSt3__110unique_ptrI15llm_build_rwkv7NS_14default_deleteIS1_EEED1B8ne190107Ev, symObjAddr: 0x1EF98, symBinAddr: 0x6D454, symSize: 0x50 }
  - { offset: 0x2C0801, size: 0x8, addend: 0x0, symName: __ZNSt3__110unique_ptrI17llm_graph_contextNS_14default_deleteIS1_EEEaSB8ne190107I14llm_build_grokNS2_IS6_EEvvEERS4_ONS0_IT_T0_EE, symObjAddr: 0x1C038, symBinAddr: 0x6A4F4, symSize: 0x58 }
  - { offset: 0x2C09A0, size: 0x8, addend: 0x0, symName: __ZNSt3__110unique_ptrI14llm_build_grokNS_14default_deleteIS1_EEED1B8ne190107Ev, symObjAddr: 0x1C090, symBinAddr: 0x6A54C, symSize: 0x50 }
  - { offset: 0x2C0B36, size: 0x8, addend: 0x0, symName: __ZNSt3__110unique_ptrI17llm_graph_contextNS_14default_deleteIS1_EEEaSB8ne190107I17llm_build_chatglmNS2_IS6_EEvvEERS4_ONS0_IT_T0_EE, symObjAddr: 0x1E568, symBinAddr: 0x6CA24, symSize: 0x58 }
  - { offset: 0x2C0CD5, size: 0x8, addend: 0x0, symName: __ZNSt3__110unique_ptrI17llm_build_chatglmNS_14default_deleteIS1_EEED1B8ne190107Ev, symObjAddr: 0x1E5C0, symBinAddr: 0x6CA7C, symSize: 0x50 }
  - { offset: 0x2C0E6B, size: 0x8, addend: 0x0, symName: __ZNSt3__110unique_ptrI17llm_graph_contextNS_14default_deleteIS1_EEEaSB8ne190107I18llm_build_stablelmNS2_IS6_EEvvEERS4_ONS0_IT_T0_EE, symObjAddr: 0x1C5B0, symBinAddr: 0x6AA6C, symSize: 0x58 }
  - { offset: 0x2C100A, size: 0x8, addend: 0x0, symName: __ZNSt3__110unique_ptrI18llm_build_stablelmNS_14default_deleteIS1_EEED1B8ne190107Ev, symObjAddr: 0x1C608, symBinAddr: 0x6AAC4, symSize: 0x50 }
  - { offset: 0x2C11A0, size: 0x8, addend: 0x0, symName: __ZNSt3__110unique_ptrI17llm_graph_contextNS_14default_deleteIS1_EEEaSB8ne190107I17llm_build_qwen2vlNS2_IS6_EEvvEERS4_ONS0_IT_T0_EE, symObjAddr: 0x1C8F8, symBinAddr: 0x6ADB4, symSize: 0x58 }
  - { offset: 0x2C133F, size: 0x8, addend: 0x0, symName: __ZNSt3__110unique_ptrI17llm_build_qwen2vlNS_14default_deleteIS1_EEED1B8ne190107Ev, symObjAddr: 0x1C950, symBinAddr: 0x6AE0C, symSize: 0x50 }
  - { offset: 0x2C14D5, size: 0x8, addend: 0x0, symName: __ZNSt3__110unique_ptrI17llm_graph_contextNS_14default_deleteIS1_EEEaSB8ne190107I15llm_build_bloomNS2_IS6_EEvvEERS4_ONS0_IT_T0_EE, symObjAddr: 0x1C380, symBinAddr: 0x6A83C, symSize: 0x58 }
  - { offset: 0x2C1674, size: 0x8, addend: 0x0, symName: __ZNSt3__110unique_ptrI15llm_build_bloomNS_14default_deleteIS1_EEED1B8ne190107Ev, symObjAddr: 0x1C3D8, symBinAddr: 0x6A894, symSize: 0x50 }
  - { offset: 0x2C180A, size: 0x8, addend: 0x0, symName: __ZNSt3__110unique_ptrI17llm_graph_contextNS_14default_deleteIS1_EEEaSB8ne190107I19llm_build_codeshellNS2_IS6_EEvvEERS4_ONS0_IT_T0_EE, symObjAddr: 0x1CE70, symBinAddr: 0x6B32C, symSize: 0x58 }
  - { offset: 0x2C19A9, size: 0x8, addend: 0x0, symName: __ZNSt3__110unique_ptrI19llm_build_codeshellNS_14default_deleteIS1_EEED1B8ne190107Ev, symObjAddr: 0x1CEC8, symBinAddr: 0x6B384, symSize: 0x50 }
  - { offset: 0x2C1B3F, size: 0x8, addend: 0x0, symName: __ZNSt3__110unique_ptrI17llm_graph_contextNS_14default_deleteIS1_EEEaSB8ne190107I16llm_build_arcticNS2_IS6_EEvvEERS4_ONS0_IT_T0_EE, symObjAddr: 0x1E220, symBinAddr: 0x6C6DC, symSize: 0x58 }
  - { offset: 0x2C1CDE, size: 0x8, addend: 0x0, symName: __ZNSt3__110unique_ptrI16llm_build_arcticNS_14default_deleteIS1_EEED1B8ne190107Ev, symObjAddr: 0x1E278, symBinAddr: 0x6C734, symSize: 0x50 }
  - { offset: 0x2C1E74, size: 0x8, addend: 0x0, symName: __ZNSt3__110unique_ptrI17llm_graph_contextNS_14default_deleteIS1_EEEaSB8ne190107I15llm_build_gemmaNS2_IS6_EEvvEERS4_ONS0_IT_T0_EE, symObjAddr: 0x1D2D0, symBinAddr: 0x6B78C, symSize: 0x58 }
  - { offset: 0x2C2013, size: 0x8, addend: 0x0, symName: __ZNSt3__110unique_ptrI15llm_build_gemmaNS_14default_deleteIS1_EEED1B8ne190107Ev, symObjAddr: 0x1D328, symBinAddr: 0x6B7E4, symSize: 0x50 }
  - { offset: 0x2C21A9, size: 0x8, addend: 0x0, symName: __ZNSt3__110unique_ptrI17llm_graph_contextNS_14default_deleteIS1_EEEaSB8ne190107I16llm_build_gemma2NS2_IS6_EEvvEERS4_ONS0_IT_T0_EE, symObjAddr: 0x1D3E8, symBinAddr: 0x6B8A4, symSize: 0x58 }
  - { offset: 0x2C2348, size: 0x8, addend: 0x0, symName: __ZNSt3__110unique_ptrI16llm_build_gemma2NS_14default_deleteIS1_EEED1B8ne190107Ev, symObjAddr: 0x1D440, symBinAddr: 0x6B8FC, symSize: 0x50 }
  - { offset: 0x2C24DE, size: 0x8, addend: 0x0, symName: __ZNSt3__110unique_ptrI17llm_graph_contextNS_14default_deleteIS1_EEEaSB8ne190107I18llm_build_baichuanNS2_IS6_EEvvEERS4_ONS0_IT_T0_EE, symObjAddr: 0x1BE08, symBinAddr: 0x6A2C4, symSize: 0x58 }
  - { offset: 0x2C267D, size: 0x8, addend: 0x0, symName: __ZNSt3__110unique_ptrI18llm_build_baichuanNS_14default_deleteIS1_EEED1B8ne190107Ev, symObjAddr: 0x1BE60, symBinAddr: 0x6A31C, symSize: 0x50 }
  - { offset: 0x2C2813, size: 0x8, addend: 0x0, symName: __ZNSt3__110unique_ptrI17llm_graph_contextNS_14default_deleteIS1_EEEaSB8ne190107I14llm_build_deciNS2_IS6_EEvvEERS4_ONS0_IT_T0_EE, symObjAddr: 0x1BCF0, symBinAddr: 0x6A1AC, symSize: 0x58 }
  - { offset: 0x2C29B2, size: 0x8, addend: 0x0, symName: __ZNSt3__110unique_ptrI14llm_build_deciNS_14default_deleteIS1_EEED1B8ne190107Ev, symObjAddr: 0x1BD48, symBinAddr: 0x6A204, symSize: 0x50 }
  - { offset: 0x2C2B48, size: 0x8, addend: 0x0, symName: __ZNSt3__110unique_ptrI17llm_graph_contextNS_14default_deleteIS1_EEEaSB8ne190107I16llm_build_exaoneNS2_IS6_EEvvEERS4_ONS0_IT_T0_EE, symObjAddr: 0x1EBF8, symBinAddr: 0x6D0B4, symSize: 0x58 }
  - { offset: 0x2C2CE7, size: 0x8, addend: 0x0, symName: __ZNSt3__110unique_ptrI16llm_build_exaoneNS_14default_deleteIS1_EEED1B8ne190107Ev, symObjAddr: 0x1EC50, symBinAddr: 0x6D10C, symSize: 0x50 }
  - { offset: 0x2C2E7D, size: 0x8, addend: 0x0, symName: __ZNSt3__110unique_ptrI17llm_graph_contextNS_14default_deleteIS1_EEEaSB8ne190107I19llm_build_internlm2NS2_IS6_EEvvEERS4_ONS0_IT_T0_EE, symObjAddr: 0x1D0A0, symBinAddr: 0x6B55C, symSize: 0x58 }
  - { offset: 0x2C301C, size: 0x8, addend: 0x0, symName: __ZNSt3__110unique_ptrI19llm_build_internlm2NS_14default_deleteIS1_EEED1B8ne190107Ev, symObjAddr: 0x1D0F8, symBinAddr: 0x6B5B4, symSize: 0x50 }
  - { offset: 0x2C31B2, size: 0x8, addend: 0x0, symName: __ZNSt3__110unique_ptrI17llm_graph_contextNS_14default_deleteIS1_EEEaSB8ne190107I18llm_build_nemotronNS2_IS6_EEvvEERS4_ONS0_IT_T0_EE, symObjAddr: 0x1EAE0, symBinAddr: 0x6CF9C, symSize: 0x58 }
  - { offset: 0x2C3351, size: 0x8, addend: 0x0, symName: __ZNSt3__110unique_ptrI18llm_build_nemotronNS_14default_deleteIS1_EEED1B8ne190107Ev, symObjAddr: 0x1EB38, symBinAddr: 0x6CFF4, symSize: 0x50 }
  - { offset: 0x2C34E7, size: 0x8, addend: 0x0, symName: __ZNSt3__110unique_ptrI17llm_graph_contextNS_14default_deleteIS1_EEEaSB8ne190107I18llm_build_minicpm3NS2_IS6_EEvvEERS4_ONS0_IT_T0_EE, symObjAddr: 0x1D1B8, symBinAddr: 0x6B674, symSize: 0x58 }
  - { offset: 0x2C3686, size: 0x8, addend: 0x0, symName: __ZNSt3__110unique_ptrI18llm_build_minicpm3NS_14default_deleteIS1_EEED1B8ne190107Ev, symObjAddr: 0x1D210, symBinAddr: 0x6B6CC, symSize: 0x50 }
  - { offset: 0x2C381C, size: 0x8, addend: 0x0, symName: __ZNSt3__110unique_ptrI17llm_graph_contextNS_14default_deleteIS1_EEEaSB8ne190107I14llm_build_gpt2NS2_IS6_EEvvEERS4_ONS0_IT_T0_EE, symObjAddr: 0x1CD58, symBinAddr: 0x6B214, symSize: 0x58 }
  - { offset: 0x2C39BB, size: 0x8, addend: 0x0, symName: __ZNSt3__110unique_ptrI14llm_build_gpt2NS_14default_deleteIS1_EEED1B8ne190107Ev, symObjAddr: 0x1CDB0, symBinAddr: 0x6B26C, symSize: 0x50 }
  - { offset: 0x2C3B51, size: 0x8, addend: 0x0, symName: __ZNSt3__110unique_ptrI17llm_graph_contextNS_14default_deleteIS1_EEEaSB8ne190107I16llm_build_gemma3NS2_IS6_EEvvEERS4_ONS0_IT_T0_EE, symObjAddr: 0x1D500, symBinAddr: 0x6B9BC, symSize: 0x58 }
  - { offset: 0x2C3CF0, size: 0x8, addend: 0x0, symName: __ZNSt3__110unique_ptrI16llm_build_gemma3NS_14default_deleteIS1_EEED1B8ne190107Ev, symObjAddr: 0x1D558, symBinAddr: 0x6BA14, symSize: 0x50 }
  - { offset: 0x2C3E86, size: 0x8, addend: 0x0, symName: __ZNSt3__110unique_ptrI17llm_graph_contextNS_14default_deleteIS1_EEEaSB8ne190107I17llm_build_gptneoxNS2_IS6_EEvvEERS4_ONS0_IT_T0_EE, symObjAddr: 0x1E108, symBinAddr: 0x6C5C4, symSize: 0x58 }
  - { offset: 0x2C4025, size: 0x8, addend: 0x0, symName: __ZNSt3__110unique_ptrI17llm_build_gptneoxNS_14default_deleteIS1_EEED1B8ne190107Ev, symObjAddr: 0x1E160, symBinAddr: 0x6C61C, symSize: 0x50 }
  - { offset: 0x2C41BB, size: 0x8, addend: 0x0, symName: __ZNSt3__110unique_ptrI17llm_graph_contextNS_14default_deleteIS1_EEEaSB8ne190107I14llm_build_jaisNS2_IS6_EEvvEERS4_ONS0_IT_T0_EE, symObjAddr: 0x1E9C8, symBinAddr: 0x6CE84, symSize: 0x58 }
  - { offset: 0x2C435A, size: 0x8, addend: 0x0, symName: __ZNSt3__110unique_ptrI14llm_build_jaisNS_14default_deleteIS1_EEED1B8ne190107Ev, symObjAddr: 0x1EA20, symBinAddr: 0x6CEDC, symSize: 0x50 }
  - { offset: 0x2C44F0, size: 0x8, addend: 0x0, symName: __ZNSt3__110unique_ptrI17llm_graph_contextNS_14default_deleteIS1_EEEaSB8ne190107I14llm_build_qwenNS2_IS6_EEvvEERS4_ONS0_IT_T0_EE, symObjAddr: 0x1C6C8, symBinAddr: 0x6AB84, symSize: 0x58 }
  - { offset: 0x2C468F, size: 0x8, addend: 0x0, symName: __ZNSt3__110unique_ptrI14llm_build_qwenNS_14default_deleteIS1_EEED1B8ne190107Ev, symObjAddr: 0x1C720, symBinAddr: 0x6ABDC, symSize: 0x50 }
  - { offset: 0x2C4825, size: 0x8, addend: 0x0, symName: __ZNSt3__110unique_ptrI17llm_graph_contextNS_14default_deleteIS1_EEEaSB8ne190107I19llm_build_starcoderNS2_IS6_EEvvEERS4_ONS0_IT_T0_EE, symObjAddr: 0x1C150, symBinAddr: 0x6A60C, symSize: 0x58 }
  - { offset: 0x2C49C4, size: 0x8, addend: 0x0, symName: __ZNSt3__110unique_ptrI19llm_build_starcoderNS_14default_deleteIS1_EEED1B8ne190107Ev, symObjAddr: 0x1C1A8, symBinAddr: 0x6A664, symSize: 0x50 }
  - { offset: 0x2C4B5A, size: 0x8, addend: 0x0, symName: __ZNSt3__110unique_ptrI17llm_graph_contextNS_14default_deleteIS1_EEEaSB8ne190107I14llm_build_phi2NS2_IS6_EEvvEERS4_ONS0_IT_T0_EE, symObjAddr: 0x1CB28, symBinAddr: 0x6AFE4, symSize: 0x58 }
  - { offset: 0x2C4CF9, size: 0x8, addend: 0x0, symName: __ZNSt3__110unique_ptrI14llm_build_phi2NS_14default_deleteIS1_EEED1B8ne190107Ev, symObjAddr: 0x1CB80, symBinAddr: 0x6B03C, symSize: 0x50 }
  - { offset: 0x2C4E8F, size: 0x8, addend: 0x0, symName: __ZNSt3__110unique_ptrI17llm_graph_contextNS_14default_deleteIS1_EEEaSB8ne190107I15llm_build_orionNS2_IS6_EEvvEERS4_ONS0_IT_T0_EE, symObjAddr: 0x1CF88, symBinAddr: 0x6B444, symSize: 0x58 }
  - { offset: 0x2C502E, size: 0x8, addend: 0x0, symName: __ZNSt3__110unique_ptrI15llm_build_orionNS_14default_deleteIS1_EEED1B8ne190107Ev, symObjAddr: 0x1CFE0, symBinAddr: 0x6B49C, symSize: 0x50 }
  - { offset: 0x2C51C4, size: 0x8, addend: 0x0, symName: __ZNSt3__110unique_ptrI17llm_graph_contextNS_14default_deleteIS1_EEEaSB8ne190107I16llm_build_bitnetNS2_IS6_EEvvEERS4_ONS0_IT_T0_EE, symObjAddr: 0x1E680, symBinAddr: 0x6CB3C, symSize: 0x58 }
  - { offset: 0x2C5363, size: 0x8, addend: 0x0, symName: __ZNSt3__110unique_ptrI16llm_build_bitnetNS_14default_deleteIS1_EEED1B8ne190107Ev, symObjAddr: 0x1E6D8, symBinAddr: 0x6CB94, symSize: 0x50 }
  - { offset: 0x2C54F9, size: 0x8, addend: 0x0, symName: __ZNSt3__110unique_ptrI17llm_graph_contextNS_14default_deleteIS1_EEEaSB8ne190107I15llm_build_plamoNS2_IS6_EEvvEERS4_ONS0_IT_T0_EE, symObjAddr: 0x1CC40, symBinAddr: 0x6B0FC, symSize: 0x58 }
  - { offset: 0x2C5698, size: 0x8, addend: 0x0, symName: __ZNSt3__110unique_ptrI15llm_build_plamoNS_14default_deleteIS1_EEED1B8ne190107Ev, symObjAddr: 0x1CC98, symBinAddr: 0x6B154, symSize: 0x50 }
  - { offset: 0x2C582E, size: 0x8, addend: 0x0, symName: __ZNSt3__110unique_ptrI17llm_graph_contextNS_14default_deleteIS1_EEEaSB8ne190107I15llm_build_olmo2NS2_IS6_EEvvEERS4_ONS0_IT_T0_EE, symObjAddr: 0x1DDC0, symBinAddr: 0x6C27C, symSize: 0x58 }
  - { offset: 0x2C59CD, size: 0x8, addend: 0x0, symName: __ZNSt3__110unique_ptrI15llm_build_olmo2NS_14default_deleteIS1_EEED1B8ne190107Ev, symObjAddr: 0x1DE18, symBinAddr: 0x6C2D4, symSize: 0x50 }
  - { offset: 0x2C5B63, size: 0x8, addend: 0x0, symName: __ZNSt3__110unique_ptrI17llm_graph_contextNS_14default_deleteIS1_EEEaSB8ne190107I18llm_build_deepseekNS2_IS6_EEvvEERS4_ONS0_IT_T0_EE, symObjAddr: 0x1E338, symBinAddr: 0x6C7F4, symSize: 0x58 }
  - { offset: 0x2C5D02, size: 0x8, addend: 0x0, symName: __ZNSt3__110unique_ptrI18llm_build_deepseekNS_14default_deleteIS1_EEED1B8ne190107Ev, symObjAddr: 0x1E390, symBinAddr: 0x6C84C, symSize: 0x50 }
  - { offset: 0x2C5E98, size: 0x8, addend: 0x0, symName: __ZNSt3__110unique_ptrI17llm_graph_contextNS_14default_deleteIS1_EEEaSB8ne190107I15llm_build_rwkv6NS2_IS6_EEvvEERS4_ONS0_IT_T0_EE, symObjAddr: 0x1ED10, symBinAddr: 0x6D1CC, symSize: 0x58 }
  - { offset: 0x2C6037, size: 0x8, addend: 0x0, symName: __ZNSt3__110unique_ptrI15llm_build_rwkv6NS_14default_deleteIS1_EEED1B8ne190107Ev, symObjAddr: 0x1ED68, symBinAddr: 0x6D224, symSize: 0x50 }
  - { offset: 0x2C61EA, size: 0x8, addend: 0x0, symName: __ZNSt3__110unique_ptrI17llm_graph_contextNS_14default_deleteIS1_EEEaSB8ne190107I15llm_build_olmoeNS2_IS6_EEvvEERS4_ONS0_IT_T0_EE, symObjAddr: 0x1DED8, symBinAddr: 0x6C394, symSize: 0x58 }
  - { offset: 0x2C6389, size: 0x8, addend: 0x0, symName: __ZNSt3__110unique_ptrI15llm_build_olmoeNS_14default_deleteIS1_EEED1B8ne190107Ev, symObjAddr: 0x1DF30, symBinAddr: 0x6C3EC, symSize: 0x50 }
  - { offset: 0x2C651F, size: 0x8, addend: 0x0, symName: __ZNSt3__110unique_ptrI17llm_graph_contextNS_14default_deleteIS1_EEEaSB8ne190107I16llm_build_t5_encNS2_IS6_EEvvEERS4_ONS0_IT_T0_EE, symObjAddr: 0x1E798, symBinAddr: 0x6CC54, symSize: 0x58 }
  - { offset: 0x2C66BE, size: 0x8, addend: 0x0, symName: __ZNSt3__110unique_ptrI16llm_build_t5_encNS_14default_deleteIS1_EEED1B8ne190107Ev, symObjAddr: 0x1E7F0, symBinAddr: 0x6CCAC, symSize: 0x50 }
  - { offset: 0x2C6854, size: 0x8, addend: 0x0, symName: __ZNSt3__110unique_ptrI17llm_graph_contextNS_14default_deleteIS1_EEEaSB8ne190107I16llm_build_arwkv7NS2_IS6_EEvvEERS4_ONS0_IT_T0_EE, symObjAddr: 0x1F058, symBinAddr: 0x6D514, symSize: 0x58 }
  - { offset: 0x2C69F3, size: 0x8, addend: 0x0, symName: __ZNSt3__110unique_ptrI16llm_build_arwkv7NS_14default_deleteIS1_EEED1B8ne190107Ev, symObjAddr: 0x1F0B0, symBinAddr: 0x6D56C, symSize: 0x50 }
  - { offset: 0x2C6BA6, size: 0x8, addend: 0x0, symName: __ZNSt3__110unique_ptrI17llm_graph_contextNS_14default_deleteIS1_EEEaSB8ne190107I16llm_build_t5_decNS2_IS6_EEvvEERS4_ONS0_IT_T0_EE, symObjAddr: 0x1E8B0, symBinAddr: 0x6CD6C, symSize: 0x58 }
  - { offset: 0x2C6D45, size: 0x8, addend: 0x0, symName: __ZNSt3__110unique_ptrI16llm_build_t5_decNS_14default_deleteIS1_EEED1B8ne190107Ev, symObjAddr: 0x1E908, symBinAddr: 0x6CDC4, symSize: 0x50 }
  - { offset: 0x2C6EDB, size: 0x8, addend: 0x0, symName: __ZNSt3__110unique_ptrI17llm_graph_contextNS_14default_deleteIS1_EEED1B8ne190107Ev, symObjAddr: 0x1F560, symBinAddr: 0x6DA1C, symSize: 0x50 }
  - { offset: 0x2C71A6, size: 0x8, addend: 0x0, symName: __ZN14llm_build_deciC2ERK11llama_modelRK16llm_graph_paramsP11ggml_cgraph, symObjAddr: 0x239DC, symBinAddr: 0x7109C, symSize: 0x778 }
  - { offset: 0x2C7ABE, size: 0x8, addend: 0x0, symName: __ZN18llm_build_baichuanC2ERK11llama_modelRK16llm_graph_paramsP11ggml_cgraph, symObjAddr: 0x24154, symBinAddr: 0x71814, symSize: 0x584 }
  - { offset: 0x2C815A, size: 0x8, addend: 0x0, symName: __ZN16llm_build_falconC2ERK11llama_modelRK16llm_graph_paramsP11ggml_cgraph, symObjAddr: 0x246D8, symBinAddr: 0x71D98, symSize: 0x58C }
  - { offset: 0x2C884F, size: 0x8, addend: 0x0, symName: __ZN14llm_build_grokC2ERK11llama_modelRK16llm_graph_paramsP11ggml_cgraph, symObjAddr: 0x24C64, symBinAddr: 0x72324, symSize: 0x694 }
  - { offset: 0x2C8FD3, size: 0x8, addend: 0x0, symName: __ZN19llm_build_starcoderC2ERK11llama_modelRK16llm_graph_paramsP11ggml_cgraph, symObjAddr: 0x252F8, symBinAddr: 0x729B8, symSize: 0x5A0 }
  - { offset: 0x2C96ED, size: 0x8, addend: 0x0, symName: __ZN16llm_build_refactC2ERK11llama_modelRK16llm_graph_paramsP11ggml_cgraph, symObjAddr: 0x25898, symBinAddr: 0x72F58, symSize: 0x4A8 }
  - { offset: 0x2C9D2F, size: 0x8, addend: 0x0, symName: __ZN15llm_build_bloomC2ERK11llama_modelRK16llm_graph_paramsP11ggml_cgraph, symObjAddr: 0x264C0, symBinAddr: 0x73B80, symSize: 0x56C }
  - { offset: 0x2CA3FB, size: 0x8, addend: 0x0, symName: __ZN13llm_build_mptC2ERK11llama_modelRK16llm_graph_paramsP11ggml_cgraph, symObjAddr: 0x26A2C, symBinAddr: 0x740EC, symSize: 0x6AC }
  - { offset: 0x2CAB87, size: 0x8, addend: 0x0, symName: __ZN18llm_build_stablelmC2ERK11llama_modelRK16llm_graph_paramsP11ggml_cgraph, symObjAddr: 0x270D8, symBinAddr: 0x74798, symSize: 0x668 }
  - { offset: 0x2CB2F7, size: 0x8, addend: 0x0, symName: __ZN14llm_build_qwenC2ERK11llama_modelRK16llm_graph_paramsP11ggml_cgraph, symObjAddr: 0x27740, symBinAddr: 0x74E00, symSize: 0x574 }
  - { offset: 0x2CBA01, size: 0x8, addend: 0x0, symName: __ZN15llm_build_qwen2C2ERK11llama_modelRK16llm_graph_paramsP11ggml_cgraph, symObjAddr: 0x27CB4, symBinAddr: 0x75374, symSize: 0x57C }
  - { offset: 0x2CC129, size: 0x8, addend: 0x0, symName: __ZN17llm_build_qwen2vlC2ERK11llama_modelRK16llm_graph_paramsP11ggml_cgraph, symObjAddr: 0x28230, symBinAddr: 0x758F0, symSize: 0x5C0 }
  - { offset: 0x2CC9CE, size: 0x8, addend: 0x0, symName: __ZN18llm_build_qwen2moeC2ERK11llama_modelRK16llm_graph_paramsP11ggml_cgraph, symObjAddr: 0x287F0, symBinAddr: 0x75EB0, symSize: 0x710 }
  - { offset: 0x2CD1F7, size: 0x8, addend: 0x0, symName: __ZN14llm_build_phi2C2ERK11llama_modelRK16llm_graph_paramsP11ggml_cgraph, symObjAddr: 0x28F00, symBinAddr: 0x765C0, symSize: 0x6B4 }
  - { offset: 0x2CDA39, size: 0x8, addend: 0x0, symName: __ZN15llm_build_plamoC2ERK11llama_modelRK16llm_graph_paramsP11ggml_cgraph, symObjAddr: 0x29CE4, symBinAddr: 0x773A4, symSize: 0x4E8 }
  - { offset: 0x2CE0AC, size: 0x8, addend: 0x0, symName: __ZN14llm_build_gpt2C2ERK11llama_modelRK16llm_graph_paramsP11ggml_cgraph, symObjAddr: 0x2A1CC, symBinAddr: 0x7788C, symSize: 0x598 }
  - { offset: 0x2CE7C6, size: 0x8, addend: 0x0, symName: __ZN19llm_build_codeshellC2ERK11llama_modelRK16llm_graph_paramsP11ggml_cgraph, symObjAddr: 0x2A764, symBinAddr: 0x77E24, symSize: 0x5C0 }
  - { offset: 0x2CEEDA, size: 0x8, addend: 0x0, symName: __ZN15llm_build_orionC2ERK11llama_modelRK16llm_graph_paramsP11ggml_cgraph, symObjAddr: 0x2AD24, symBinAddr: 0x783E4, symSize: 0x530 }
  - { offset: 0x2CF563, size: 0x8, addend: 0x0, symName: __ZN19llm_build_internlm2C2ERK11llama_modelRK16llm_graph_paramsP11ggml_cgraph, symObjAddr: 0x2B254, symBinAddr: 0x78914, symSize: 0x5DC }
  - { offset: 0x2CFC80, size: 0x8, addend: 0x0, symName: __ZN18llm_build_minicpm3C2ERK11llama_modelRK16llm_graph_paramsP11ggml_cgraph, symObjAddr: 0x2B830, symBinAddr: 0x78EF0, symSize: 0xA98 }
  - { offset: 0x2D082F, size: 0x8, addend: 0x0, symName: __ZN15llm_build_gemmaC2ERK11llama_modelRK16llm_graph_paramsP11ggml_cgraph, symObjAddr: 0x2C2C8, symBinAddr: 0x79988, symSize: 0x53C }
  - { offset: 0x2D0EC3, size: 0x8, addend: 0x0, symName: __ZN16llm_build_gemma2C2ERK11llama_modelRK16llm_graph_paramsP11ggml_cgraph, symObjAddr: 0x2C804, symBinAddr: 0x79EC4, symSize: 0x63C }
  - { offset: 0x2D15DB, size: 0x8, addend: 0x0, symName: __ZN16llm_build_gemma3C2ERK11llama_modelRK16llm_graph_paramsP11ggml_cgraph, symObjAddr: 0x2CE40, symBinAddr: 0x7A500, symSize: 0x65C }
  - { offset: 0x2D1D35, size: 0x8, addend: 0x0, symName: __ZN20llm_build_starcoder2C2ERK11llama_modelRK16llm_graph_paramsP11ggml_cgraph, symObjAddr: 0x2D49C, symBinAddr: 0x7AB5C, symSize: 0x5DC }
  - { offset: 0x2D2452, size: 0x8, addend: 0x0, symName: __ZN15llm_build_mambaC2ERK11llama_modelRK16llm_graph_paramsP11ggml_cgraph, symObjAddr: 0x2DA78, symBinAddr: 0x7B138, symSize: 0x238 }
  - { offset: 0x2D28F8, size: 0x8, addend: 0x0, symName: __ZN16llm_build_xverseC2ERK11llama_modelRK16llm_graph_paramsP11ggml_cgraph, symObjAddr: 0x2E2E4, symBinAddr: 0x7B9A4, symSize: 0x534 }
  - { offset: 0x2D2F81, size: 0x8, addend: 0x0, symName: __ZN19llm_build_command_rC2ERK11llama_modelRK16llm_graph_paramsP11ggml_cgraph, symObjAddr: 0x2E818, symBinAddr: 0x7BED8, symSize: 0x628 }
  - { offset: 0x2D370C, size: 0x8, addend: 0x0, symName: __ZN17llm_build_cohere2C2ERK11llama_modelRK16llm_graph_paramsP11ggml_cgraph, symObjAddr: 0x2EE40, symBinAddr: 0x7C500, symSize: 0x61C }
  - { offset: 0x2D3EEB, size: 0x8, addend: 0x0, symName: __ZN14llm_build_dbrxC2ERK11llama_modelRK16llm_graph_paramsP11ggml_cgraph, symObjAddr: 0x2F45C, symBinAddr: 0x7CB1C, symSize: 0x5D0 }
  - { offset: 0x2D45E4, size: 0x8, addend: 0x0, symName: __ZN14llm_build_olmoC2ERK11llama_modelRK16llm_graph_paramsP11ggml_cgraph, symObjAddr: 0x2FA2C, symBinAddr: 0x7D0EC, symSize: 0x600 }
  - { offset: 0x2D4C62, size: 0x8, addend: 0x0, symName: __ZN15llm_build_olmo2C2ERK11llama_modelRK16llm_graph_paramsP11ggml_cgraph, symObjAddr: 0x3002C, symBinAddr: 0x7D6EC, symSize: 0x5D0 }
  - { offset: 0x2D5340, size: 0x8, addend: 0x0, symName: __ZN15llm_build_olmoeC2ERK11llama_modelRK16llm_graph_paramsP11ggml_cgraph, symObjAddr: 0x305FC, symBinAddr: 0x7DCBC, symSize: 0x5B0 }
  - { offset: 0x2D5A1B, size: 0x8, addend: 0x0, symName: __ZN17llm_build_openelmC2ERK11llama_modelRK16llm_graph_paramsP11ggml_cgraph, symObjAddr: 0x30BAC, symBinAddr: 0x7E26C, symSize: 0x62C }
  - { offset: 0x2D6155, size: 0x8, addend: 0x0, symName: __ZN17llm_build_gptneoxC2ERK11llama_modelRK16llm_graph_paramsP11ggml_cgraph, symObjAddr: 0x311D8, symBinAddr: 0x7E898, symSize: 0x6C8 }
  - { offset: 0x2D6907, size: 0x8, addend: 0x0, symName: __ZN16llm_build_arcticC2ERK11llama_modelRK16llm_graph_paramsP11ggml_cgraph, symObjAddr: 0x318A0, symBinAddr: 0x7EF60, symSize: 0x618 }
  - { offset: 0x2D7008, size: 0x8, addend: 0x0, symName: __ZN18llm_build_deepseekC2ERK11llama_modelRK16llm_graph_paramsP11ggml_cgraph, symObjAddr: 0x31EB8, symBinAddr: 0x7F578, symSize: 0x728 }
  - { offset: 0x2D7820, size: 0x8, addend: 0x0, symName: __ZN19llm_build_deepseek2C2ERK11llama_modelRK16llm_graph_paramsP11ggml_cgraph, symObjAddr: 0x325E0, symBinAddr: 0x7FCA0, symSize: 0xB14 }
  - { offset: 0x2D8345, size: 0x8, addend: 0x0, symName: __ZN17llm_build_chatglmC2ERK11llama_modelRK16llm_graph_paramsP11ggml_cgraph, symObjAddr: 0x330F4, symBinAddr: 0x807B4, symSize: 0x638 }
  - { offset: 0x2D8B4B, size: 0x8, addend: 0x0, symName: __ZN16llm_build_bitnetC2ERK11llama_modelRK16llm_graph_paramsP11ggml_cgraph, symObjAddr: 0x3372C, symBinAddr: 0x80DEC, symSize: 0x74C }
  - { offset: 0x2D942B, size: 0x8, addend: 0x0, symName: __ZN16llm_build_t5_encC2ERK11llama_modelRK16llm_graph_paramsP11ggml_cgraph, symObjAddr: 0x33E78, symBinAddr: 0x81538, symSize: 0x4B0 }
  - { offset: 0x2D9AA5, size: 0x8, addend: 0x0, symName: __ZN16llm_build_t5_decC2ERK11llama_modelRK16llm_graph_paramsP11ggml_cgraph, symObjAddr: 0x34328, symBinAddr: 0x819E8, symSize: 0x6D8 }
  - { offset: 0x2DA303, size: 0x8, addend: 0x0, symName: __ZN14llm_build_jaisC2ERK11llama_modelRK16llm_graph_paramsP11ggml_cgraph, symObjAddr: 0x34A00, symBinAddr: 0x820C0, symSize: 0x510 }
  - { offset: 0x2DA9CE, size: 0x8, addend: 0x0, symName: __ZN18llm_build_nemotronC2ERK11llama_modelRK16llm_graph_paramsP11ggml_cgraph, symObjAddr: 0x34F10, symBinAddr: 0x825D0, symSize: 0x5C0 }
  - { offset: 0x2DB0EC, size: 0x8, addend: 0x0, symName: __ZN16llm_build_exaoneC2ERK11llama_modelRK16llm_graph_paramsP11ggml_cgraph, symObjAddr: 0x354D0, symBinAddr: 0x82B90, symSize: 0x638 }
  - { offset: 0x2DB896, size: 0x8, addend: 0x0, symName: __ZN15llm_build_rwkv6C2ERK11llama_modelRK16llm_graph_paramsP11ggml_cgraph, symObjAddr: 0x35B08, symBinAddr: 0x831C8, symSize: 0x5E8 }
  - { offset: 0x2DC1AA, size: 0x8, addend: 0x0, symName: __ZN20llm_build_rwkv6qwen2C2ERK11llama_modelRK16llm_graph_paramsP11ggml_cgraph, symObjAddr: 0x36BAC, symBinAddr: 0x8426C, symSize: 0x48C }
  - { offset: 0x2DC8D7, size: 0x8, addend: 0x0, symName: __ZN15llm_build_rwkv7C2ERK11llama_modelRK16llm_graph_paramsP11ggml_cgraph, symObjAddr: 0x37038, symBinAddr: 0x846F8, symSize: 0x600 }
  - { offset: 0x2DD1D6, size: 0x8, addend: 0x0, symName: __ZN16llm_build_arwkv7C2ERK11llama_modelRK16llm_graph_paramsP11ggml_cgraph, symObjAddr: 0x37E20, symBinAddr: 0x854E0, symSize: 0x494 }
  - { offset: 0x2DD915, size: 0x8, addend: 0x0, symName: __ZN19llm_build_chameleonC2ERK11llama_modelRK16llm_graph_paramsP11ggml_cgraph, symObjAddr: 0x382B4, symBinAddr: 0x85974, symSize: 0x824 }
  - { offset: 0x2DE1D6, size: 0x8, addend: 0x0, symName: __ZN26llm_build_wavtokenizer_decC2ERK11llama_modelRK16llm_graph_paramsP11ggml_cgraph, symObjAddr: 0x38AD8, symBinAddr: 0x86198, symSize: 0x61C }
  - { offset: 0x2DE9FF, size: 0x8, addend: 0x0, symName: __ZN13llm_build_plmC2ERK11llama_modelRK16llm_graph_paramsP11ggml_cgraph, symObjAddr: 0x390F4, symBinAddr: 0x867B4, symSize: 0x8C8 }
  - { offset: 0x2DF3F7, size: 0x8, addend: 0x0, symName: __ZN20llm_build_bailingmoeC2ERK11llama_modelRK16llm_graph_paramsP11ggml_cgraph, symObjAddr: 0x399BC, symBinAddr: 0x8707C, symSize: 0x658 }
  - { offset: 0x2DFA73, size: 0x8, addend: 0x0, symName: _llama_model_default_params, symObjAddr: 0x1F5B0, symBinAddr: 0x6DA6C, symSize: 0x24 }
  - { offset: 0x2DFA9F, size: 0x8, addend: 0x0, symName: _llama_model_get_vocab, symObjAddr: 0x1F5D4, symBinAddr: 0x6DA90, symSize: 0xC }
  - { offset: 0x2DFAFF, size: 0x8, addend: 0x0, symName: _llama_free_model, symObjAddr: 0x1F5E0, symBinAddr: 0x6DA9C, symSize: 0x20 }
  - { offset: 0x2DFB27, size: 0x8, addend: 0x0, symName: _llama_free_model, symObjAddr: 0x1F5E0, symBinAddr: 0x6DA9C, symSize: 0x20 }
  - { offset: 0x2DFB6D, size: 0x8, addend: 0x0, symName: _llama_model_free, symObjAddr: 0x1F600, symBinAddr: 0x6DABC, symSize: 0x20 }
  - { offset: 0x2DFBB4, size: 0x8, addend: 0x0, symName: _llama_model_n_ctx_train, symObjAddr: 0x1F620, symBinAddr: 0x6DADC, symSize: 0x8 }
  - { offset: 0x2DFBD2, size: 0x8, addend: 0x0, symName: _llama_model_n_embd, symObjAddr: 0x1F628, symBinAddr: 0x6DAE4, symSize: 0x8 }
  - { offset: 0x2DFBF0, size: 0x8, addend: 0x0, symName: _llama_model_n_layer, symObjAddr: 0x1F630, symBinAddr: 0x6DAEC, symSize: 0x8 }
  - { offset: 0x2DFC0E, size: 0x8, addend: 0x0, symName: _llama_model_n_head, symObjAddr: 0x1F638, symBinAddr: 0x6DAF4, symSize: 0xC }
  - { offset: 0x2DFC2C, size: 0x8, addend: 0x0, symName: _llama_model_n_head_kv, symObjAddr: 0x1F644, symBinAddr: 0x6DB00, symSize: 0xC }
  - { offset: 0x2DFC73, size: 0x8, addend: 0x0, symName: _llama_n_ctx_train, symObjAddr: 0x1F650, symBinAddr: 0x6DB0C, symSize: 0x8 }
  - { offset: 0x2DFCA1, size: 0x8, addend: 0x0, symName: _llama_n_ctx_train, symObjAddr: 0x1F650, symBinAddr: 0x6DB0C, symSize: 0x8 }
  - { offset: 0x2DFCD7, size: 0x8, addend: 0x0, symName: _llama_n_embd, symObjAddr: 0x1F658, symBinAddr: 0x6DB14, symSize: 0x8 }
  - { offset: 0x2DFD05, size: 0x8, addend: 0x0, symName: _llama_n_embd, symObjAddr: 0x1F658, symBinAddr: 0x6DB14, symSize: 0x8 }
  - { offset: 0x2DFD3B, size: 0x8, addend: 0x0, symName: _llama_n_layer, symObjAddr: 0x1F660, symBinAddr: 0x6DB1C, symSize: 0x8 }
  - { offset: 0x2DFD69, size: 0x8, addend: 0x0, symName: _llama_n_layer, symObjAddr: 0x1F660, symBinAddr: 0x6DB1C, symSize: 0x8 }
  - { offset: 0x2DFD9F, size: 0x8, addend: 0x0, symName: _llama_n_head, symObjAddr: 0x1F668, symBinAddr: 0x6DB24, symSize: 0xC }
  - { offset: 0x2DFDCD, size: 0x8, addend: 0x0, symName: _llama_n_head, symObjAddr: 0x1F668, symBinAddr: 0x6DB24, symSize: 0xC }
  - { offset: 0x2DFDEA, size: 0x8, addend: 0x0, symName: _llama_model_rope_freq_scale_train, symObjAddr: 0x1F674, symBinAddr: 0x6DB30, symSize: 0x8 }
  - { offset: 0x2DFE3B, size: 0x8, addend: 0x0, symName: _llama_model_meta_val_str, symObjAddr: 0x1F67C, symBinAddr: 0x6DB38, symSize: 0x154 }
  - { offset: 0x2E045F, size: 0x8, addend: 0x0, symName: __ZNKSt3__112__hash_tableINS_17__hash_value_typeINS_12basic_stringIcNS_11char_traitsIcEENS_9allocatorIcEEEES7_EENS_22__unordered_map_hasherIS7_S8_NS_4hashIS7_EENS_8equal_toIS7_EELb1EEENS_21__unordered_map_equalIS7_S8_SD_SB_Lb1EEENS5_IS8_EEE4findIS7_EENS_21__hash_const_iteratorIPNS_11__hash_nodeIS8_PvEEEERKT_, symObjAddr: 0x3A014, symBinAddr: 0x876D4, symSize: 0x1B4 }
  - { offset: 0x2E07D5, size: 0x8, addend: 0x0, symName: _llama_model_meta_count, symObjAddr: 0x1F7D0, symBinAddr: 0x6DC8C, symSize: 0x8 }
  - { offset: 0x2E0803, size: 0x8, addend: 0x0, symName: _llama_model_meta_count, symObjAddr: 0x1F7D0, symBinAddr: 0x6DC8C, symSize: 0x8 }
  - { offset: 0x2E0822, size: 0x8, addend: 0x0, symName: _llama_model_meta_count, symObjAddr: 0x1F7D0, symBinAddr: 0x6DC8C, symSize: 0x8 }
  - { offset: 0x2E08A5, size: 0x8, addend: 0x0, symName: _llama_model_meta_key_by_index, symObjAddr: 0x1F7D8, symBinAddr: 0x6DC94, symSize: 0x84 }
  - { offset: 0x2E0A79, size: 0x8, addend: 0x0, symName: _llama_model_meta_val_str_by_index, symObjAddr: 0x1F85C, symBinAddr: 0x6DD18, symSize: 0x84 }
  - { offset: 0x2E0C66, size: 0x8, addend: 0x0, symName: _llama_model_desc, symObjAddr: 0x1F8E0, symBinAddr: 0x6DD9C, symSize: 0xB4 }
  - { offset: 0x2E0F5A, size: 0x8, addend: 0x0, symName: _llama_model_size, symObjAddr: 0x1F994, symBinAddr: 0x6DE50, symSize: 0xC }
  - { offset: 0x2E0F88, size: 0x8, addend: 0x0, symName: _llama_model_size, symObjAddr: 0x1F994, symBinAddr: 0x6DE50, symSize: 0xC }
  - { offset: 0x2E0FA4, size: 0x8, addend: 0x0, symName: _llama_model_size, symObjAddr: 0x1F994, symBinAddr: 0x6DE50, symSize: 0xC }
  - { offset: 0x2E0FC3, size: 0x8, addend: 0x0, symName: _llama_model_chat_template, symObjAddr: 0x1F9A0, symBinAddr: 0x6DE5C, symSize: 0xE0 }
  - { offset: 0x2E134B, size: 0x8, addend: 0x0, symName: _llama_model_n_params, symObjAddr: 0x1FA80, symBinAddr: 0x6DF3C, symSize: 0xC }
  - { offset: 0x2E1379, size: 0x8, addend: 0x0, symName: _llama_model_n_params, symObjAddr: 0x1FA80, symBinAddr: 0x6DF3C, symSize: 0xC }
  - { offset: 0x2E1395, size: 0x8, addend: 0x0, symName: _llama_model_n_params, symObjAddr: 0x1FA80, symBinAddr: 0x6DF3C, symSize: 0xC }
  - { offset: 0x2E13B4, size: 0x8, addend: 0x0, symName: _llama_model_has_encoder, symObjAddr: 0x1FA8C, symBinAddr: 0x6DF48, symSize: 0x14 }
  - { offset: 0x2E13E0, size: 0x8, addend: 0x0, symName: _llama_model_has_decoder, symObjAddr: 0x1FAA0, symBinAddr: 0x6DF5C, symSize: 0x10 }
  - { offset: 0x2E140C, size: 0x8, addend: 0x0, symName: _llama_model_decoder_start_token, symObjAddr: 0x1FAB0, symBinAddr: 0x6DF6C, symSize: 0x8 }
  - { offset: 0x2E1438, size: 0x8, addend: 0x0, symName: _llama_model_is_recurrent, symObjAddr: 0x1FAB8, symBinAddr: 0x6DF74, symSize: 0x20 }
  - { offset: 0x2E1464, size: 0x8, addend: 0x0, symName: __Z29llama_internal_get_tensor_mapPK11llama_model, symObjAddr: 0x1FAD8, symBinAddr: 0x6DF94, symSize: 0xC }
  - { offset: 0x2E1DB4, size: 0x8, addend: 0x0, symName: __ZNSt3__13mapI23llama_rope_scaling_typePKcNS_4lessIS1_EENS_9allocatorINS_4pairIKS1_S3_EEEEEC2B8ne190107ESt16initializer_listIS9_ERKS5_, symObjAddr: 0x20364, symBinAddr: 0x6DFC8, symSize: 0xF0 }
  - { offset: 0x2E218B, size: 0x8, addend: 0x0, symName: __ZNSt3__16__treeINS_12__value_typeI23llama_rope_scaling_typePKcEENS_19__map_value_compareIS2_S5_NS_4lessIS2_EELb1EEENS_9allocatorIS5_EEE12__find_equalIS2_EERPNS_16__tree_node_baseIPvEENS_21__tree_const_iteratorIS5_PNS_11__tree_nodeIS5_SF_EElEERPNS_15__tree_end_nodeISH_EESI_RKT_, symObjAddr: 0x20454, symBinAddr: 0x6E0B8, symSize: 0x1B0 }
  - { offset: 0x2E21EE, size: 0x8, addend: 0x0, symName: __ZNSt3__16__treeINS_12__value_typeI23llama_rope_scaling_typePKcEENS_19__map_value_compareIS2_S5_NS_4lessIS2_EELb1EEENS_9allocatorIS5_EEE12__find_equalIS2_EERPNS_16__tree_node_baseIPvEENS_21__tree_const_iteratorIS5_PNS_11__tree_nodeIS5_SF_EElEERPNS_15__tree_end_nodeISH_EESI_RKT_, symObjAddr: 0x20454, symBinAddr: 0x6E0B8, symSize: 0x1B0 }
  - { offset: 0x2E220A, size: 0x8, addend: 0x0, symName: __ZNSt3__16__treeINS_12__value_typeI23llama_rope_scaling_typePKcEENS_19__map_value_compareIS2_S5_NS_4lessIS2_EELb1EEENS_9allocatorIS5_EEE12__find_equalIS2_EERPNS_16__tree_node_baseIPvEENS_21__tree_const_iteratorIS5_PNS_11__tree_nodeIS5_SF_EElEERPNS_15__tree_end_nodeISH_EESI_RKT_, symObjAddr: 0x20454, symBinAddr: 0x6E0B8, symSize: 0x1B0 }
  - { offset: 0x2E2C05, size: 0x8, addend: 0x0, symName: __ZNSt3__16__treeINS_12__value_typeIP19ggml_backend_deviceNS_6vectorINS_4pairIS3_P24ggml_backend_buffer_typeEENS_9allocatorIS8_EEEEEENS_19__map_value_compareIS3_SC_NS_4lessIS3_EELb1EEENS9_ISC_EEE7destroyEPNS_11__tree_nodeISC_PvEE, symObjAddr: 0x20878, symBinAddr: 0x6E4DC, symSize: 0x5C }
  - { offset: 0x2E3475, size: 0x8, addend: 0x0, symName: __ZNSt3__14pairIKNS_12basic_stringIcNS_11char_traitsIcEENS_9allocatorIcEEEES6_EC2B8ne190107IRPKcRS7_TnNS_9enable_ifIXclsr10_CheckArgsE23__is_pair_constructibleIT_T0_EEEiE4typeELi0EEEOSF_OSG_, symObjAddr: 0x20C24, symBinAddr: 0x6E854, symSize: 0x114 }
  - { offset: 0x2E3EF8, size: 0x8, addend: 0x0, symName: __ZNSt3__112__hash_tableINS_17__hash_value_typeINS_12basic_stringIcNS_11char_traitsIcEENS_9allocatorIcEEEES7_EENS_22__unordered_map_hasherIS7_S8_NS_4hashIS7_EENS_8equal_toIS7_EELb1EEENS_21__unordered_map_equalIS7_S8_SD_SB_Lb1EEENS5_IS8_EEE20__node_insert_uniqueEPNS_11__hash_nodeIS8_PvEE, symObjAddr: 0x20A5C, symBinAddr: 0x6E68C, symSize: 0x148 }
  - { offset: 0x2E41B8, size: 0x8, addend: 0x0, symName: __ZNSt3__110unique_ptrINS_11__hash_nodeINS_17__hash_value_typeINS_12basic_stringIcNS_11char_traitsIcEENS_9allocatorIcEEEES8_EEPvEENS_22__hash_node_destructorINS6_ISB_EEEEED1B8ne190107Ev, symObjAddr: 0x20BA4, symBinAddr: 0x6E7D4, symSize: 0x80 }
  - { offset: 0x2E4671, size: 0x8, addend: 0x0, symName: __ZNSt3__112__hash_tableINS_17__hash_value_typeINS_12basic_stringIcNS_11char_traitsIcEENS_9allocatorIcEEEES7_EENS_22__unordered_map_hasherIS7_S8_NS_4hashIS7_EENS_8equal_toIS7_EELb1EEENS_21__unordered_map_equalIS7_S8_SD_SB_Lb1EEENS5_IS8_EEE28__node_insert_unique_prepareB8ne190107EmRS8_, symObjAddr: 0x21184, symBinAddr: 0x6E968, symSize: 0x2A4 }
  - { offset: 0x2E4CE7, size: 0x8, addend: 0x0, symName: __ZNSt3__112__hash_tableINS_17__hash_value_typeINS_12basic_stringIcNS_11char_traitsIcEENS_9allocatorIcEEEES7_EENS_22__unordered_map_hasherIS7_S8_NS_4hashIS7_EENS_8equal_toIS7_EELb1EEENS_21__unordered_map_equalIS7_S8_SD_SB_Lb1EEENS5_IS8_EEE11__do_rehashILb1EEEvm, symObjAddr: 0x21428, symBinAddr: 0x6EC0C, symSize: 0x1DC }
  - { offset: 0x2E5940, size: 0x8, addend: 0x0, symName: __ZNKSt3__16vectorIN11llama_model4impl9layer_devENS_9allocatorIS3_EEE20__throw_length_errorB8ne190107Ev, symObjAddr: 0x21B30, symBinAddr: 0x6F274, symSize: 0x14 }
  - { offset: 0x2E5C99, size: 0x8, addend: 0x0, symName: __ZNKSt3__16vectorI11llama_layerNS_9allocatorIS1_EEE20__throw_length_errorB8ne190107Ev, symObjAddr: 0x21D58, symBinAddr: 0x6F454, symSize: 0x14 }
  - { offset: 0x2E6060, size: 0x8, addend: 0x0, symName: __ZNSt3__112__hash_tableINS_17__hash_value_typeIjP19ggml_backend_bufferEENS_22__unordered_map_hasherIjS4_NS_4hashIjEENS_8equal_toIjEELb1EEENS_21__unordered_map_equalIjS4_S9_S7_Lb1EEENS_9allocatorIS4_EEED1Ev, symObjAddr: 0x21F40, symBinAddr: 0x6F614, symSize: 0x54 }
  - { offset: 0x2E69EE, size: 0x8, addend: 0x0, symName: __ZNSt3__112__hash_tableINS_17__hash_value_typeIjP19ggml_backend_bufferEENS_22__unordered_map_hasherIjS4_NS_4hashIjEENS_8equal_toIjEELb1EEENS_21__unordered_map_equalIjS4_S9_S7_Lb1EEENS_9allocatorIS4_EEE25__emplace_unique_key_argsIjJRKNS_4pairIKjS3_EEEEENSH_INS_15__hash_iteratorIPNS_11__hash_nodeIS4_PvEEEEbEERKT_DpOT0_, symObjAddr: 0x22714, symBinAddr: 0x6FDD4, symSize: 0x304 }
  - { offset: 0x2E73E1, size: 0x8, addend: 0x0, symName: __ZNKSt3__16vectorINS_4pairINS_12basic_stringIcNS_11char_traitsIcEENS_9allocatorIcEEEEP11ggml_tensorEENS5_ISA_EEE20__throw_length_errorB8ne190107Ev, symObjAddr: 0x22C24, symBinAddr: 0x702E4, symSize: 0x14 }
  - { offset: 0x2E740B, size: 0x8, addend: 0x0, symName: '__ZNSt3__110__function6__funcIZNK11llama_model10print_infoEvE3$_1NS_9allocatorIS3_EEFjjEED1Ev', symObjAddr: 0x22C38, symBinAddr: 0x702F8, symSize: 0x4 }
  - { offset: 0x2E7416, size: 0x8, addend: 0x0, symName: __ZNSt3__114__split_bufferINS_4pairINS_12basic_stringIcNS_11char_traitsIcEENS_9allocatorIcEEEEP11ggml_tensorEERNS5_ISA_EEED1Ev, symObjAddr: 0x22BB0, symBinAddr: 0x70270, symSize: 0x74 }
  - { offset: 0x2E7746, size: 0x8, addend: 0x0, symName: '__ZNSt3__110__function6__funcIZNK11llama_model10print_infoEvE3$_1NS_9allocatorIS3_EEFjjEED1Ev', symObjAddr: 0x22C38, symBinAddr: 0x702F8, symSize: 0x4 }
  - { offset: 0x2E7771, size: 0x8, addend: 0x0, symName: '__ZNSt3__110__function6__funcIZNK11llama_model10print_infoEvE3$_1NS_9allocatorIS3_EEFjjEED0Ev', symObjAddr: 0x22C3C, symBinAddr: 0x702FC, symSize: 0x8 }
  - { offset: 0x2E7826, size: 0x8, addend: 0x0, symName: '__ZNKSt3__110__function6__funcIZNK11llama_model10print_infoEvE3$_1NS_9allocatorIS3_EEFjjEE7__cloneEv', symObjAddr: 0x22C44, symBinAddr: 0x70304, symSize: 0x34 }
  - { offset: 0x2E7970, size: 0x8, addend: 0x0, symName: '__ZNKSt3__110__function6__funcIZNK11llama_model10print_infoEvE3$_1NS_9allocatorIS3_EEFjjEE7__cloneEPNS0_6__baseIS6_EE', symObjAddr: 0x22C78, symBinAddr: 0x70338, symSize: 0x14 }
  - { offset: 0x2E79DD, size: 0x8, addend: 0x0, symName: '__ZNSt3__110__function6__funcIZNK11llama_model10print_infoEvE3$_1NS_9allocatorIS3_EEFjjEE7destroyEv', symObjAddr: 0x22C8C, symBinAddr: 0x7034C, symSize: 0x4 }
  - { offset: 0x2E7A2C, size: 0x8, addend: 0x0, symName: '__ZNSt3__110__function6__funcIZNK11llama_model10print_infoEvE3$_1NS_9allocatorIS3_EEFjjEE18destroy_deallocateEv', symObjAddr: 0x22C90, symBinAddr: 0x70350, symSize: 0x8 }
  - { offset: 0x2E7A5F, size: 0x8, addend: 0x0, symName: '__ZNSt3__110__function6__funcIZNK11llama_model10print_infoEvE3$_1NS_9allocatorIS3_EEFjjEE18destroy_deallocateEv', symObjAddr: 0x22C90, symBinAddr: 0x70350, symSize: 0x8 }
  - { offset: 0x2E7A82, size: 0x8, addend: 0x0, symName: '__ZNSt3__110__function6__funcIZNK11llama_model10print_infoEvE3$_1NS_9allocatorIS3_EEFjjEE18destroy_deallocateEv', symObjAddr: 0x22C90, symBinAddr: 0x70350, symSize: 0x8 }
  - { offset: 0x2E7AAB, size: 0x8, addend: 0x0, symName: '__ZNSt3__110__function6__funcIZNK11llama_model10print_infoEvE3$_1NS_9allocatorIS3_EEFjjEE18destroy_deallocateEv', symObjAddr: 0x22C90, symBinAddr: 0x70350, symSize: 0x8 }
  - { offset: 0x2E7ACE, size: 0x8, addend: 0x0, symName: '__ZNSt3__110__function6__funcIZNK11llama_model10print_infoEvE3$_1NS_9allocatorIS3_EEFjjEE18destroy_deallocateEv', symObjAddr: 0x22C90, symBinAddr: 0x70350, symSize: 0x8 }
  - { offset: 0x2E7B79, size: 0x8, addend: 0x0, symName: '__ZNSt3__110__function6__funcIZNK11llama_model10print_infoEvE3$_1NS_9allocatorIS3_EEFjjEEclEOj', symObjAddr: 0x22C98, symBinAddr: 0x70358, symSize: 0x10 }
  - { offset: 0x2E7C64, size: 0x8, addend: 0x0, symName: '__ZNKSt3__110__function6__funcIZNK11llama_model10print_infoEvE3$_1NS_9allocatorIS3_EEFjjEE6targetERKSt9type_info', symObjAddr: 0x22CA8, symBinAddr: 0x70368, symSize: 0x64 }
  - { offset: 0x2E7D18, size: 0x8, addend: 0x0, symName: '__ZNKSt3__110__function6__funcIZNK11llama_model10print_infoEvE3$_1NS_9allocatorIS3_EEFjjEE11target_typeEv', symObjAddr: 0x22D0C, symBinAddr: 0x703CC, symSize: 0xC }
  - { offset: 0x2E7D3B, size: 0x8, addend: 0x0, symName: '__ZNSt3__110__function6__funcIZNK11llama_model10print_infoEvE3$_2NS_9allocatorIS3_EEFjjEED1Ev', symObjAddr: 0x22D18, symBinAddr: 0x703D8, symSize: 0x4 }
  - { offset: 0x2E7D66, size: 0x8, addend: 0x0, symName: '__ZNSt3__110__function6__funcIZNK11llama_model10print_infoEvE3$_2NS_9allocatorIS3_EEFjjEED0Ev', symObjAddr: 0x22D1C, symBinAddr: 0x703DC, symSize: 0x8 }
  - { offset: 0x2E7E1B, size: 0x8, addend: 0x0, symName: '__ZNKSt3__110__function6__funcIZNK11llama_model10print_infoEvE3$_2NS_9allocatorIS3_EEFjjEE7__cloneEv', symObjAddr: 0x22D24, symBinAddr: 0x703E4, symSize: 0x34 }
  - { offset: 0x2E7F65, size: 0x8, addend: 0x0, symName: '__ZNKSt3__110__function6__funcIZNK11llama_model10print_infoEvE3$_2NS_9allocatorIS3_EEFjjEE7__cloneEPNS0_6__baseIS6_EE', symObjAddr: 0x22D58, symBinAddr: 0x70418, symSize: 0x14 }
  - { offset: 0x2E7FD2, size: 0x8, addend: 0x0, symName: '__ZNSt3__110__function6__funcIZNK11llama_model10print_infoEvE3$_2NS_9allocatorIS3_EEFjjEE7destroyEv', symObjAddr: 0x22D6C, symBinAddr: 0x7042C, symSize: 0x4 }
  - { offset: 0x2E8021, size: 0x8, addend: 0x0, symName: '__ZNSt3__110__function6__funcIZNK11llama_model10print_infoEvE3$_2NS_9allocatorIS3_EEFjjEE18destroy_deallocateEv', symObjAddr: 0x22D70, symBinAddr: 0x70430, symSize: 0x8 }
  - { offset: 0x2E8054, size: 0x8, addend: 0x0, symName: '__ZNSt3__110__function6__funcIZNK11llama_model10print_infoEvE3$_2NS_9allocatorIS3_EEFjjEE18destroy_deallocateEv', symObjAddr: 0x22D70, symBinAddr: 0x70430, symSize: 0x8 }
  - { offset: 0x2E8077, size: 0x8, addend: 0x0, symName: '__ZNSt3__110__function6__funcIZNK11llama_model10print_infoEvE3$_2NS_9allocatorIS3_EEFjjEE18destroy_deallocateEv', symObjAddr: 0x22D70, symBinAddr: 0x70430, symSize: 0x8 }
  - { offset: 0x2E80A0, size: 0x8, addend: 0x0, symName: '__ZNSt3__110__function6__funcIZNK11llama_model10print_infoEvE3$_2NS_9allocatorIS3_EEFjjEE18destroy_deallocateEv', symObjAddr: 0x22D70, symBinAddr: 0x70430, symSize: 0x8 }
  - { offset: 0x2E80C3, size: 0x8, addend: 0x0, symName: '__ZNSt3__110__function6__funcIZNK11llama_model10print_infoEvE3$_2NS_9allocatorIS3_EEFjjEE18destroy_deallocateEv', symObjAddr: 0x22D70, symBinAddr: 0x70430, symSize: 0x8 }
  - { offset: 0x2E816E, size: 0x8, addend: 0x0, symName: '__ZNSt3__110__function6__funcIZNK11llama_model10print_infoEvE3$_2NS_9allocatorIS3_EEFjjEEclEOj', symObjAddr: 0x22D78, symBinAddr: 0x70438, symSize: 0x10 }
  - { offset: 0x2E8201, size: 0x8, addend: 0x0, symName: '__ZNKSt3__110__function6__funcIZNK11llama_model10print_infoEvE3$_2NS_9allocatorIS3_EEFjjEE6targetERKSt9type_info', symObjAddr: 0x22D88, symBinAddr: 0x70448, symSize: 0x64 }
  - { offset: 0x2E82B5, size: 0x8, addend: 0x0, symName: '__ZNKSt3__110__function6__funcIZNK11llama_model10print_infoEvE3$_2NS_9allocatorIS3_EEFjjEE11target_typeEv', symObjAddr: 0x22DEC, symBinAddr: 0x704AC, symSize: 0xC }
  - { offset: 0x2E82D8, size: 0x8, addend: 0x0, symName: '__ZNSt3__110__function6__funcIZNK11llama_model10print_infoEvE3$_3NS_9allocatorIS3_EEFjjEED1Ev', symObjAddr: 0x22DF8, symBinAddr: 0x704B8, symSize: 0x4 }
  - { offset: 0x2E8303, size: 0x8, addend: 0x0, symName: '__ZNSt3__110__function6__funcIZNK11llama_model10print_infoEvE3$_3NS_9allocatorIS3_EEFjjEED0Ev', symObjAddr: 0x22DFC, symBinAddr: 0x704BC, symSize: 0x8 }
  - { offset: 0x2E83B8, size: 0x8, addend: 0x0, symName: '__ZNKSt3__110__function6__funcIZNK11llama_model10print_infoEvE3$_3NS_9allocatorIS3_EEFjjEE7__cloneEv', symObjAddr: 0x22E04, symBinAddr: 0x704C4, symSize: 0x34 }
  - { offset: 0x2E8502, size: 0x8, addend: 0x0, symName: '__ZNKSt3__110__function6__funcIZNK11llama_model10print_infoEvE3$_3NS_9allocatorIS3_EEFjjEE7__cloneEPNS0_6__baseIS6_EE', symObjAddr: 0x22E38, symBinAddr: 0x704F8, symSize: 0x14 }
  - { offset: 0x2E856F, size: 0x8, addend: 0x0, symName: '__ZNSt3__110__function6__funcIZNK11llama_model10print_infoEvE3$_3NS_9allocatorIS3_EEFjjEE7destroyEv', symObjAddr: 0x22E4C, symBinAddr: 0x7050C, symSize: 0x4 }
  - { offset: 0x2E85BE, size: 0x8, addend: 0x0, symName: '__ZNSt3__110__function6__funcIZNK11llama_model10print_infoEvE3$_3NS_9allocatorIS3_EEFjjEE18destroy_deallocateEv', symObjAddr: 0x22E50, symBinAddr: 0x70510, symSize: 0x8 }
  - { offset: 0x2E85F1, size: 0x8, addend: 0x0, symName: '__ZNSt3__110__function6__funcIZNK11llama_model10print_infoEvE3$_3NS_9allocatorIS3_EEFjjEE18destroy_deallocateEv', symObjAddr: 0x22E50, symBinAddr: 0x70510, symSize: 0x8 }
  - { offset: 0x2E8614, size: 0x8, addend: 0x0, symName: '__ZNSt3__110__function6__funcIZNK11llama_model10print_infoEvE3$_3NS_9allocatorIS3_EEFjjEE18destroy_deallocateEv', symObjAddr: 0x22E50, symBinAddr: 0x70510, symSize: 0x8 }
  - { offset: 0x2E863D, size: 0x8, addend: 0x0, symName: '__ZNSt3__110__function6__funcIZNK11llama_model10print_infoEvE3$_3NS_9allocatorIS3_EEFjjEE18destroy_deallocateEv', symObjAddr: 0x22E50, symBinAddr: 0x70510, symSize: 0x8 }
  - { offset: 0x2E8660, size: 0x8, addend: 0x0, symName: '__ZNSt3__110__function6__funcIZNK11llama_model10print_infoEvE3$_3NS_9allocatorIS3_EEFjjEE18destroy_deallocateEv', symObjAddr: 0x22E50, symBinAddr: 0x70510, symSize: 0x8 }
  - { offset: 0x2E870B, size: 0x8, addend: 0x0, symName: '__ZNSt3__110__function6__funcIZNK11llama_model10print_infoEvE3$_3NS_9allocatorIS3_EEFjjEEclEOj', symObjAddr: 0x22E58, symBinAddr: 0x70518, symSize: 0x10 }
  - { offset: 0x2E879E, size: 0x8, addend: 0x0, symName: '__ZNKSt3__110__function6__funcIZNK11llama_model10print_infoEvE3$_3NS_9allocatorIS3_EEFjjEE6targetERKSt9type_info', symObjAddr: 0x22E68, symBinAddr: 0x70528, symSize: 0x64 }
  - { offset: 0x2E8852, size: 0x8, addend: 0x0, symName: '__ZNKSt3__110__function6__funcIZNK11llama_model10print_infoEvE3$_3NS_9allocatorIS3_EEFjjEE11target_typeEv', symObjAddr: 0x22ECC, symBinAddr: 0x7058C, symSize: 0xC }
  - { offset: 0x2E8875, size: 0x8, addend: 0x0, symName: '__ZNSt3__110__function6__funcIZNK11llama_model10print_infoEvE3$_4NS_9allocatorIS3_EEFjjEED1Ev', symObjAddr: 0x22ED8, symBinAddr: 0x70598, symSize: 0x4 }
  - { offset: 0x2E88A0, size: 0x8, addend: 0x0, symName: '__ZNSt3__110__function6__funcIZNK11llama_model10print_infoEvE3$_4NS_9allocatorIS3_EEFjjEED0Ev', symObjAddr: 0x22EDC, symBinAddr: 0x7059C, symSize: 0x8 }
  - { offset: 0x2E8955, size: 0x8, addend: 0x0, symName: '__ZNKSt3__110__function6__funcIZNK11llama_model10print_infoEvE3$_4NS_9allocatorIS3_EEFjjEE7__cloneEv', symObjAddr: 0x22EE4, symBinAddr: 0x705A4, symSize: 0x34 }
  - { offset: 0x2E8A9F, size: 0x8, addend: 0x0, symName: '__ZNKSt3__110__function6__funcIZNK11llama_model10print_infoEvE3$_4NS_9allocatorIS3_EEFjjEE7__cloneEPNS0_6__baseIS6_EE', symObjAddr: 0x22F18, symBinAddr: 0x705D8, symSize: 0x14 }
  - { offset: 0x2E8B0C, size: 0x8, addend: 0x0, symName: '__ZNSt3__110__function6__funcIZNK11llama_model10print_infoEvE3$_4NS_9allocatorIS3_EEFjjEE7destroyEv', symObjAddr: 0x22F2C, symBinAddr: 0x705EC, symSize: 0x4 }
  - { offset: 0x2E8B5B, size: 0x8, addend: 0x0, symName: '__ZNSt3__110__function6__funcIZNK11llama_model10print_infoEvE3$_4NS_9allocatorIS3_EEFjjEE18destroy_deallocateEv', symObjAddr: 0x22F30, symBinAddr: 0x705F0, symSize: 0x8 }
  - { offset: 0x2E8B8E, size: 0x8, addend: 0x0, symName: '__ZNSt3__110__function6__funcIZNK11llama_model10print_infoEvE3$_4NS_9allocatorIS3_EEFjjEE18destroy_deallocateEv', symObjAddr: 0x22F30, symBinAddr: 0x705F0, symSize: 0x8 }
  - { offset: 0x2E8BB1, size: 0x8, addend: 0x0, symName: '__ZNSt3__110__function6__funcIZNK11llama_model10print_infoEvE3$_4NS_9allocatorIS3_EEFjjEE18destroy_deallocateEv', symObjAddr: 0x22F30, symBinAddr: 0x705F0, symSize: 0x8 }
  - { offset: 0x2E8BDA, size: 0x8, addend: 0x0, symName: '__ZNSt3__110__function6__funcIZNK11llama_model10print_infoEvE3$_4NS_9allocatorIS3_EEFjjEE18destroy_deallocateEv', symObjAddr: 0x22F30, symBinAddr: 0x705F0, symSize: 0x8 }
  - { offset: 0x2E8BFD, size: 0x8, addend: 0x0, symName: '__ZNSt3__110__function6__funcIZNK11llama_model10print_infoEvE3$_4NS_9allocatorIS3_EEFjjEE18destroy_deallocateEv', symObjAddr: 0x22F30, symBinAddr: 0x705F0, symSize: 0x8 }
  - { offset: 0x2E8CA8, size: 0x8, addend: 0x0, symName: '__ZNSt3__110__function6__funcIZNK11llama_model10print_infoEvE3$_4NS_9allocatorIS3_EEFjjEEclEOj', symObjAddr: 0x22F38, symBinAddr: 0x705F8, symSize: 0x10 }
  - { offset: 0x2E8D3B, size: 0x8, addend: 0x0, symName: '__ZNKSt3__110__function6__funcIZNK11llama_model10print_infoEvE3$_4NS_9allocatorIS3_EEFjjEE6targetERKSt9type_info', symObjAddr: 0x22F48, symBinAddr: 0x70608, symSize: 0x64 }
  - { offset: 0x2E8DEF, size: 0x8, addend: 0x0, symName: '__ZNKSt3__110__function6__funcIZNK11llama_model10print_infoEvE3$_4NS_9allocatorIS3_EEFjjEE11target_typeEv', symObjAddr: 0x22FAC, symBinAddr: 0x7066C, symSize: 0xC }
  - { offset: 0x2E8E12, size: 0x8, addend: 0x0, symName: '__ZNSt3__110__function6__funcIZNK11llama_model10print_infoEvE3$_5NS_9allocatorIS3_EEFjjEED1Ev', symObjAddr: 0x22FB8, symBinAddr: 0x70678, symSize: 0x4 }
  - { offset: 0x2E8E3D, size: 0x8, addend: 0x0, symName: '__ZNSt3__110__function6__funcIZNK11llama_model10print_infoEvE3$_5NS_9allocatorIS3_EEFjjEED0Ev', symObjAddr: 0x22FBC, symBinAddr: 0x7067C, symSize: 0x8 }
  - { offset: 0x2E8EF2, size: 0x8, addend: 0x0, symName: '__ZNKSt3__110__function6__funcIZNK11llama_model10print_infoEvE3$_5NS_9allocatorIS3_EEFjjEE7__cloneEv', symObjAddr: 0x22FC4, symBinAddr: 0x70684, symSize: 0x34 }
  - { offset: 0x2E903C, size: 0x8, addend: 0x0, symName: '__ZNKSt3__110__function6__funcIZNK11llama_model10print_infoEvE3$_5NS_9allocatorIS3_EEFjjEE7__cloneEPNS0_6__baseIS6_EE', symObjAddr: 0x22FF8, symBinAddr: 0x706B8, symSize: 0x14 }
  - { offset: 0x2E90A9, size: 0x8, addend: 0x0, symName: '__ZNSt3__110__function6__funcIZNK11llama_model10print_infoEvE3$_5NS_9allocatorIS3_EEFjjEE7destroyEv', symObjAddr: 0x2300C, symBinAddr: 0x706CC, symSize: 0x4 }
  - { offset: 0x2E90F8, size: 0x8, addend: 0x0, symName: '__ZNSt3__110__function6__funcIZNK11llama_model10print_infoEvE3$_5NS_9allocatorIS3_EEFjjEE18destroy_deallocateEv', symObjAddr: 0x23010, symBinAddr: 0x706D0, symSize: 0x8 }
  - { offset: 0x2E912B, size: 0x8, addend: 0x0, symName: '__ZNSt3__110__function6__funcIZNK11llama_model10print_infoEvE3$_5NS_9allocatorIS3_EEFjjEE18destroy_deallocateEv', symObjAddr: 0x23010, symBinAddr: 0x706D0, symSize: 0x8 }
  - { offset: 0x2E914E, size: 0x8, addend: 0x0, symName: '__ZNSt3__110__function6__funcIZNK11llama_model10print_infoEvE3$_5NS_9allocatorIS3_EEFjjEE18destroy_deallocateEv', symObjAddr: 0x23010, symBinAddr: 0x706D0, symSize: 0x8 }
  - { offset: 0x2E9177, size: 0x8, addend: 0x0, symName: '__ZNSt3__110__function6__funcIZNK11llama_model10print_infoEvE3$_5NS_9allocatorIS3_EEFjjEE18destroy_deallocateEv', symObjAddr: 0x23010, symBinAddr: 0x706D0, symSize: 0x8 }
  - { offset: 0x2E919A, size: 0x8, addend: 0x0, symName: '__ZNSt3__110__function6__funcIZNK11llama_model10print_infoEvE3$_5NS_9allocatorIS3_EEFjjEE18destroy_deallocateEv', symObjAddr: 0x23010, symBinAddr: 0x706D0, symSize: 0x8 }
  - { offset: 0x2E9245, size: 0x8, addend: 0x0, symName: '__ZNSt3__110__function6__funcIZNK11llama_model10print_infoEvE3$_5NS_9allocatorIS3_EEFjjEEclEOj', symObjAddr: 0x23018, symBinAddr: 0x706D8, symSize: 0x10 }
  - { offset: 0x2E92D8, size: 0x8, addend: 0x0, symName: '__ZNKSt3__110__function6__funcIZNK11llama_model10print_infoEvE3$_5NS_9allocatorIS3_EEFjjEE6targetERKSt9type_info', symObjAddr: 0x23028, symBinAddr: 0x706E8, symSize: 0x64 }
  - { offset: 0x2E938C, size: 0x8, addend: 0x0, symName: '__ZNKSt3__110__function6__funcIZNK11llama_model10print_infoEvE3$_5NS_9allocatorIS3_EEFjjEE11target_typeEv', symObjAddr: 0x2308C, symBinAddr: 0x7074C, symSize: 0xC }
  - { offset: 0x2E93AF, size: 0x8, addend: 0x0, symName: '__ZNSt3__110__function6__funcIZNK11llama_model10print_infoEvE3$_6NS_9allocatorIS3_EEFjjEED1Ev', symObjAddr: 0x23098, symBinAddr: 0x70758, symSize: 0x4 }
  - { offset: 0x2E93DA, size: 0x8, addend: 0x0, symName: '__ZNSt3__110__function6__funcIZNK11llama_model10print_infoEvE3$_6NS_9allocatorIS3_EEFjjEED0Ev', symObjAddr: 0x2309C, symBinAddr: 0x7075C, symSize: 0x8 }
  - { offset: 0x2E948F, size: 0x8, addend: 0x0, symName: '__ZNKSt3__110__function6__funcIZNK11llama_model10print_infoEvE3$_6NS_9allocatorIS3_EEFjjEE7__cloneEv', symObjAddr: 0x230A4, symBinAddr: 0x70764, symSize: 0x34 }
  - { offset: 0x2E95D9, size: 0x8, addend: 0x0, symName: '__ZNKSt3__110__function6__funcIZNK11llama_model10print_infoEvE3$_6NS_9allocatorIS3_EEFjjEE7__cloneEPNS0_6__baseIS6_EE', symObjAddr: 0x230D8, symBinAddr: 0x70798, symSize: 0x14 }
  - { offset: 0x2E9646, size: 0x8, addend: 0x0, symName: '__ZNSt3__110__function6__funcIZNK11llama_model10print_infoEvE3$_6NS_9allocatorIS3_EEFjjEE7destroyEv', symObjAddr: 0x230EC, symBinAddr: 0x707AC, symSize: 0x4 }
  - { offset: 0x2E9695, size: 0x8, addend: 0x0, symName: '__ZNSt3__110__function6__funcIZNK11llama_model10print_infoEvE3$_6NS_9allocatorIS3_EEFjjEE18destroy_deallocateEv', symObjAddr: 0x230F0, symBinAddr: 0x707B0, symSize: 0x8 }
  - { offset: 0x2E96C8, size: 0x8, addend: 0x0, symName: '__ZNSt3__110__function6__funcIZNK11llama_model10print_infoEvE3$_6NS_9allocatorIS3_EEFjjEE18destroy_deallocateEv', symObjAddr: 0x230F0, symBinAddr: 0x707B0, symSize: 0x8 }
  - { offset: 0x2E96EB, size: 0x8, addend: 0x0, symName: '__ZNSt3__110__function6__funcIZNK11llama_model10print_infoEvE3$_6NS_9allocatorIS3_EEFjjEE18destroy_deallocateEv', symObjAddr: 0x230F0, symBinAddr: 0x707B0, symSize: 0x8 }
  - { offset: 0x2E9714, size: 0x8, addend: 0x0, symName: '__ZNSt3__110__function6__funcIZNK11llama_model10print_infoEvE3$_6NS_9allocatorIS3_EEFjjEE18destroy_deallocateEv', symObjAddr: 0x230F0, symBinAddr: 0x707B0, symSize: 0x8 }
  - { offset: 0x2E9737, size: 0x8, addend: 0x0, symName: '__ZNSt3__110__function6__funcIZNK11llama_model10print_infoEvE3$_6NS_9allocatorIS3_EEFjjEE18destroy_deallocateEv', symObjAddr: 0x230F0, symBinAddr: 0x707B0, symSize: 0x8 }
  - { offset: 0x2E97E2, size: 0x8, addend: 0x0, symName: '__ZNSt3__110__function6__funcIZNK11llama_model10print_infoEvE3$_6NS_9allocatorIS3_EEFjjEEclEOj', symObjAddr: 0x230F8, symBinAddr: 0x707B8, symSize: 0x10 }
  - { offset: 0x2E9875, size: 0x8, addend: 0x0, symName: '__ZNKSt3__110__function6__funcIZNK11llama_model10print_infoEvE3$_6NS_9allocatorIS3_EEFjjEE6targetERKSt9type_info', symObjAddr: 0x23108, symBinAddr: 0x707C8, symSize: 0x64 }
  - { offset: 0x2E9929, size: 0x8, addend: 0x0, symName: '__ZNKSt3__110__function6__funcIZNK11llama_model10print_infoEvE3$_6NS_9allocatorIS3_EEFjjEE11target_typeEv', symObjAddr: 0x2316C, symBinAddr: 0x7082C, symSize: 0xC }
  - { offset: 0x2E994C, size: 0x8, addend: 0x0, symName: '__ZNSt3__110__function6__funcIZNK11llama_model13create_memoryEvE3$_0NS_9allocatorIS3_EEFP11ggml_tensorjiEED1Ev', symObjAddr: 0x23178, symBinAddr: 0x70838, symSize: 0x4 }
  - { offset: 0x2E9977, size: 0x8, addend: 0x0, symName: '__ZNSt3__110__function6__funcIZNK11llama_model13create_memoryEvE3$_0NS_9allocatorIS3_EEFP11ggml_tensorjiEED0Ev', symObjAddr: 0x2317C, symBinAddr: 0x7083C, symSize: 0x8 }
  - { offset: 0x2E9A2C, size: 0x8, addend: 0x0, symName: '__ZNKSt3__110__function6__funcIZNK11llama_model13create_memoryEvE3$_0NS_9allocatorIS3_EEFP11ggml_tensorjiEE7__cloneEv', symObjAddr: 0x23184, symBinAddr: 0x70844, symSize: 0x34 }
  - { offset: 0x2E9B76, size: 0x8, addend: 0x0, symName: '__ZNKSt3__110__function6__funcIZNK11llama_model13create_memoryEvE3$_0NS_9allocatorIS3_EEFP11ggml_tensorjiEE7__cloneEPNS0_6__baseIS8_EE', symObjAddr: 0x231B8, symBinAddr: 0x70878, symSize: 0x14 }
  - { offset: 0x2E9BE3, size: 0x8, addend: 0x0, symName: '__ZNSt3__110__function6__funcIZNK11llama_model13create_memoryEvE3$_0NS_9allocatorIS3_EEFP11ggml_tensorjiEE7destroyEv', symObjAddr: 0x231CC, symBinAddr: 0x7088C, symSize: 0x4 }
  - { offset: 0x2E9C32, size: 0x8, addend: 0x0, symName: '__ZNSt3__110__function6__funcIZNK11llama_model13create_memoryEvE3$_0NS_9allocatorIS3_EEFP11ggml_tensorjiEE18destroy_deallocateEv', symObjAddr: 0x231D0, symBinAddr: 0x70890, symSize: 0x8 }
  - { offset: 0x2E9C65, size: 0x8, addend: 0x0, symName: '__ZNSt3__110__function6__funcIZNK11llama_model13create_memoryEvE3$_0NS_9allocatorIS3_EEFP11ggml_tensorjiEE18destroy_deallocateEv', symObjAddr: 0x231D0, symBinAddr: 0x70890, symSize: 0x8 }
  - { offset: 0x2E9C88, size: 0x8, addend: 0x0, symName: '__ZNSt3__110__function6__funcIZNK11llama_model13create_memoryEvE3$_0NS_9allocatorIS3_EEFP11ggml_tensorjiEE18destroy_deallocateEv', symObjAddr: 0x231D0, symBinAddr: 0x70890, symSize: 0x8 }
  - { offset: 0x2E9CB1, size: 0x8, addend: 0x0, symName: '__ZNSt3__110__function6__funcIZNK11llama_model13create_memoryEvE3$_0NS_9allocatorIS3_EEFP11ggml_tensorjiEE18destroy_deallocateEv', symObjAddr: 0x231D0, symBinAddr: 0x70890, symSize: 0x8 }
  - { offset: 0x2E9CD4, size: 0x8, addend: 0x0, symName: '__ZNSt3__110__function6__funcIZNK11llama_model13create_memoryEvE3$_0NS_9allocatorIS3_EEFP11ggml_tensorjiEE18destroy_deallocateEv', symObjAddr: 0x231D0, symBinAddr: 0x70890, symSize: 0x8 }
  - { offset: 0x2E9DCA, size: 0x8, addend: 0x0, symName: '__ZNSt3__110__function6__funcIZNK11llama_model13create_memoryEvE3$_0NS_9allocatorIS3_EEFP11ggml_tensorjiEEclEOjOi', symObjAddr: 0x231D8, symBinAddr: 0x70898, symSize: 0x48 }
  - { offset: 0x2E9E72, size: 0x8, addend: 0x0, symName: '__ZNKSt3__110__function6__funcIZNK11llama_model13create_memoryEvE3$_0NS_9allocatorIS3_EEFP11ggml_tensorjiEE6targetERKSt9type_info', symObjAddr: 0x23220, symBinAddr: 0x708E0, symSize: 0x64 }
  - { offset: 0x2E9F26, size: 0x8, addend: 0x0, symName: '__ZNKSt3__110__function6__funcIZNK11llama_model13create_memoryEvE3$_0NS_9allocatorIS3_EEFP11ggml_tensorjiEE11target_typeEv', symObjAddr: 0x23284, symBinAddr: 0x70944, symSize: 0xC }
  - { offset: 0x2EA20B, size: 0x8, addend: 0x0, symName: __ZNK15llm_build_mamba17build_mamba_layerEP11ggml_cgraphP11ggml_tensorS3_S3_RK12llama_ubatchi, symObjAddr: 0x2DCB0, symBinAddr: 0x7B370, symSize: 0x634 }
  - { offset: 0x2EA9F2, size: 0x8, addend: 0x0, symName: __ZN16llm_build_xverseC2ERK11llama_modelRK16llm_graph_paramsP11ggml_cgraph, symObjAddr: 0x2E2E4, symBinAddr: 0x7B9A4, symSize: 0x534 }
  - { offset: 0x2EAAE7, size: 0x8, addend: 0x0, symName: __ZNK20llm_build_rwkv6_base20build_rwkv6_time_mixEP11ggml_cgraphP11ggml_tensorS3_S3_S3_RK12llama_ubatchi, symObjAddr: 0x360F0, symBinAddr: 0x837B0, symSize: 0x998 }
  - { offset: 0x2EB6B1, size: 0x8, addend: 0x0, symName: __ZNK20llm_build_rwkv6_base23build_rwkv6_channel_mixEPK11llama_layerP11ggml_tensorS4_8llm_arch, symObjAddr: 0x36A88, symBinAddr: 0x84148, symSize: 0x124 }
  - { offset: 0x2EB6C4, size: 0x8, addend: 0x0, symName: __ZNK20llm_build_rwkv6_base23build_rwkv6_channel_mixEPK11llama_layerP11ggml_tensorS4_8llm_arch, symObjAddr: 0x36A88, symBinAddr: 0x84148, symSize: 0x124 }
  - { offset: 0x2EB85A, size: 0x8, addend: 0x0, symName: __ZN20llm_build_rwkv6qwen2C2ERK11llama_modelRK16llm_graph_paramsP11ggml_cgraph, symObjAddr: 0x36BAC, symBinAddr: 0x8426C, symSize: 0x48C }
  - { offset: 0x2EBA4B, size: 0x8, addend: 0x0, symName: __ZNK20llm_build_rwkv7_base20build_rwkv7_time_mixEP11ggml_cgraphP11ggml_tensorS3_S3_S3_RS3_RK12llama_ubatchi, symObjAddr: 0x37638, symBinAddr: 0x84CF8, symSize: 0x7E8 }
  - { offset: 0x2EE8DD, size: 0x8, addend: 0x0, symName: __ZL25llama_model_quantize_implRKNSt3__112basic_stringIcNS_11char_traitsIcEENS_9allocatorIcEEEES7_PK27llama_model_quantize_params, symObjAddr: 0x278, symBinAddr: 0x87B98, symSize: 0x4A54 }
  - { offset: 0x3113DF, size: 0x8, addend: 0x0, symName: '__ZNSt3__111__introsortINS_17_ClassicAlgPolicyERZL25llama_model_quantize_implRKNS_12basic_stringIcNS_11char_traitsIcEENS_9allocatorIcEEEES9_PK27llama_model_quantize_paramsE3$_0PPKN18llama_model_loader19llama_tensor_weightELb0EEEvT1_SK_T0_NS_15iterator_traitsISK_E15difference_typeEb', symObjAddr: 0x57D4, symBinAddr: 0x8CEB0, symSize: 0x9AC }
  - { offset: 0x311FC7, size: 0x8, addend: 0x0, symName: '__ZNSt3__127__insertion_sort_incompleteB8ne190107INS_17_ClassicAlgPolicyERZL25llama_model_quantize_implRKNS_12basic_stringIcNS_11char_traitsIcEENS_9allocatorIcEEEES9_PK27llama_model_quantize_paramsE3$_0PPKN18llama_model_loader19llama_tensor_weightEEEbT1_SK_T0_', symObjAddr: 0x63F0, symBinAddr: 0x8DACC, symSize: 0x284 }
  - { offset: 0x322FF0, size: 0x8, addend: 0x0, symName: '__ZNSt3__17__sort3B8ne190107INS_17_ClassicAlgPolicyERZL25llama_model_quantize_implRKNS_12basic_stringIcNS_11char_traitsIcEENS_9allocatorIcEEEES9_PK27llama_model_quantize_paramsE3$_0PPKN18llama_model_loader19llama_tensor_weightEEEjT1_SK_SK_T0_', symObjAddr: 0x6310, symBinAddr: 0x8D9EC, symSize: 0xE0 }
  - { offset: 0x323349, size: 0x8, addend: 0x0, symName: '__ZNSt3__124__sort5_maybe_branchlessB8ne190107INS_17_ClassicAlgPolicyERZL25llama_model_quantize_implRKNS_12basic_stringIcNS_11char_traitsIcEENS_9allocatorIcEEEES9_PK27llama_model_quantize_paramsE3$_0PPKN18llama_model_loader19llama_tensor_weightETnNS_9enable_ifIXntsr21__use_branchless_sortIT0_T1_EE5valueEiE4typeELi0EEEvSM_SM_SM_SM_SM_SL_', symObjAddr: 0x6180, symBinAddr: 0x8D85C, symSize: 0x190 }
  - { offset: 0x323C60, size: 0x8, addend: 0x0, symName: '__ZNSt3__114__thread_proxyB8ne190107INS_5tupleIJNS_10unique_ptrINS_15__thread_structENS_14default_deleteIS3_EEEEZL28llama_tensor_dequantize_implP11ggml_tensorRNS_6vectorI7no_initIfENS_9allocatorISB_EEEERNS9_INS_6threadENSC_ISG_EEEEmiE3$_09ggml_typePhPfmEEEEEPvSP_', symObjAddr: 0x71EC, symBinAddr: 0x8E3A0, symSize: 0xBC }
  - { offset: 0x3240A5, size: 0x8, addend: 0x0, symName: '__ZNSt3__114__thread_proxyB8ne190107INS_5tupleIJNS_10unique_ptrINS_15__thread_structENS_14default_deleteIS3_EEEEZL26llama_tensor_quantize_impl9ggml_typePKfPvxxxS9_RNS_6vectorINS_6threadENS_9allocatorISC_EEEEiE3$_0EEEEESA_SA_', symObjAddr: 0x7438, symBinAddr: 0x8E5AC, symSize: 0x80 }
  - { offset: 0x327BE5, size: 0x8, addend: 0x0, symName: _llama_model_quantize_default_params, symObjAddr: 0x0, symBinAddr: 0x87920, symSize: 0x2C }
  - { offset: 0x327E9B, size: 0x8, addend: 0x0, symName: _llama_model_quantize, symObjAddr: 0x2C, symBinAddr: 0x8794C, symSize: 0x24C }
  - { offset: 0x32E192, size: 0x8, addend: 0x0, symName: __ZNSt3__16vectorINS_6threadENS_9allocatorIS1_EEE7reserveEm, symObjAddr: 0x4DC0, symBinAddr: 0x8C5EC, symSize: 0x16C }
  - { offset: 0x32E595, size: 0x8, addend: 0x0, symName: '__ZZL25llama_model_quantize_implRKNSt3__112basic_stringIcNS_11char_traitsIcEENS_9allocatorIcEEEES7_PK27llama_model_quantize_paramsENK3$_2clEi', symObjAddr: 0x4F2C, symBinAddr: 0x8C758, symSize: 0x400 }
  - { offset: 0x32E5F6, size: 0x8, addend: 0x0, symName: '__ZZL25llama_model_quantize_implRKNSt3__112basic_stringIcNS_11char_traitsIcEENS_9allocatorIcEEEES7_PK27llama_model_quantize_paramsENK3$_2clEi', symObjAddr: 0x4F2C, symBinAddr: 0x8C758, symSize: 0x400 }
  - { offset: 0x32F589, size: 0x8, addend: 0x0, symName: '__ZZL25llama_model_quantize_implRKNSt3__112basic_stringIcNS_11char_traitsIcEENS_9allocatorIcEEEES7_PK27llama_model_quantize_paramsENK3$_1clEv', symObjAddr: 0x532C, symBinAddr: 0x8CB58, symSize: 0x214 }
  - { offset: 0x32FE7C, size: 0x8, addend: 0x0, symName: __ZNKSt3__112__hash_tableINS_17__hash_value_typeINS_12basic_stringIcNS_11char_traitsIcEENS_9allocatorIcEEEENS_6vectorIfNS5_IfEEEEEENS_22__unordered_map_hasherIS7_SB_NS_4hashIS7_EENS_8equal_toIS7_EELb1EEENS_21__unordered_map_equalIS7_SB_SG_SE_Lb1EEENS5_ISB_EEE4findIS7_EENS_21__hash_const_iteratorIPNS_11__hash_nodeISB_PvEEEERKT_, symObjAddr: 0x6AD4, symBinAddr: 0x8E0D4, symSize: 0x1B4 }
  - { offset: 0x3301B5, size: 0x8, addend: 0x0, symName: __ZNSt3__16vectorI7no_initIfENS_9allocatorIS2_EEE8__appendEm, symObjAddr: 0x70D4, symBinAddr: 0x8E288, symSize: 0x104 }
  - { offset: 0x33057D, size: 0x8, addend: 0x0, symName: __ZNKSt3__16vectorI7no_initIfENS_9allocatorIS2_EEE20__throw_length_errorB8ne190107Ev, symObjAddr: 0x71D8, symBinAddr: 0x8E38C, symSize: 0x14 }
  - { offset: 0x330701, size: 0x8, addend: 0x0, symName: '__ZZL21llama_tensor_get_typeR19quantize_state_impl9ggml_typePK11ggml_tensor11llama_ftypeENK3$_1clEiiPKc', symObjAddr: 0x6968, symBinAddr: 0x8DF68, symSize: 0x16C }
  - { offset: 0x330A84, size: 0x8, addend: 0x0, symName: __ZN18llama_model_loaderD2Ev, symObjAddr: 0x7508, symBinAddr: 0x8E67C, symSize: 0x1DC }
  - { offset: 0x331A1A, size: 0x8, addend: 0x0, symName: __ZNKSt3__16vectorINS_6threadENS_9allocatorIS1_EEE20__throw_length_errorB8ne190107Ev, symObjAddr: 0x6674, symBinAddr: 0x8DD50, symSize: 0x14 }
  - { offset: 0x331A44, size: 0x8, addend: 0x0, symName: __ZNSt3__114__split_bufferINS_6threadERNS_9allocatorIS1_EEED1Ev, symObjAddr: 0x6688, symBinAddr: 0x8DD64, symSize: 0x58 }
  - { offset: 0x331A81, size: 0x8, addend: 0x0, symName: __ZNKSt3__16vectorIPKN18llama_model_loader19llama_tensor_weightENS_9allocatorIS4_EEE20__throw_length_errorB8ne190107Ev, symObjAddr: 0x5724, symBinAddr: 0x8CE9C, symSize: 0x14 }
  - { offset: 0x331ACE, size: 0x8, addend: 0x0, symName: '__ZZL21llama_tensor_get_typeR19quantize_state_impl9ggml_typePK11ggml_tensor11llama_ftypeENK3$_1clEiiPKc', symObjAddr: 0x6968, symBinAddr: 0x8DF68, symSize: 0x16C }
  - { offset: 0x331AD9, size: 0x8, addend: 0x0, symName: __ZNSt3__128__exception_guard_exceptionsINS_6vectorINS_10unique_ptrI12gguf_context20gguf_context_deleterEENS_9allocatorIS5_EEE16__destroy_vectorEED1B8ne190107Ev, symObjAddr: 0x66E0, symBinAddr: 0x8DDBC, symSize: 0x8C }
  - { offset: 0x331D1B, size: 0x8, addend: 0x0, symName: '__ZNSt3__110unique_ptrINS_5tupleIJNS0_INS_15__thread_structENS_14default_deleteIS2_EEEEZL28llama_tensor_dequantize_implP11ggml_tensorRNS_6vectorI7no_initIfENS_9allocatorISA_EEEERNS8_INS_6threadENSB_ISF_EEEEmiE3$_09ggml_typePhPfmEEENS3_ISN_EEED1B8ne190107Ev', symObjAddr: 0x72A8, symBinAddr: 0x8E45C, symSize: 0x50 }
  - { offset: 0x331F1A, size: 0x8, addend: 0x0, symName: __ZNSt3__114__split_bufferINS_6threadERNS_9allocatorIS1_EEED1Ev, symObjAddr: 0x6688, symBinAddr: 0x8DD64, symSize: 0x58 }
  - { offset: 0x3320D5, size: 0x8, addend: 0x0, symName: '__ZNSt3__110unique_ptrINS_5tupleIJNS0_INS_15__thread_structENS_14default_deleteIS2_EEEEZL26llama_tensor_quantize_impl9ggml_typePKfPvxxxS8_RNS_6vectorINS_6threadENS_9allocatorISB_EEEEiE3$_0EEENS3_ISH_EEED1B8ne190107Ev', symObjAddr: 0x74B8, symBinAddr: 0x8E62C, symSize: 0x50 }
  - { offset: 0x33227D, size: 0x8, addend: 0x0, symName: __ZNSt3__114basic_ofstreamIcNS_11char_traitsIcEEED1Ev, symObjAddr: 0x5540, symBinAddr: 0x8CD6C, symSize: 0x58 }
  - { offset: 0x3322C5, size: 0x8, addend: 0x0, symName: __ZNSt3__16vectorINS_10unique_ptrI12gguf_context20gguf_context_deleterEENS_9allocatorIS4_EEED1B8ne190107Ev, symObjAddr: 0x5598, symBinAddr: 0x8CDC4, symSize: 0x78 }
  - { offset: 0x332507, size: 0x8, addend: 0x0, symName: __ZNSt3__16vectorINS_6threadENS_9allocatorIS1_EEED1B8ne190107Ev, symObjAddr: 0x5610, symBinAddr: 0x8CE3C, symSize: 0x60 }
  - { offset: 0x332EE1, size: 0x8, addend: 0x0, symName: __ZNSt3__114basic_ofstreamIcNS_11char_traitsIcEEEC1ERKNS_12basic_stringIcS2_NS_9allocatorIcEEEEj, symObjAddr: 0x676C, symBinAddr: 0x8DE48, symSize: 0x120 }
  - { offset: 0x3342DF, size: 0x8, addend: 0x0, symName: __ZNKSt3__16vectorI7no_initIfENS_9allocatorIS2_EEE20__throw_length_errorB8ne190107Ev, symObjAddr: 0x71D8, symBinAddr: 0x8E38C, symSize: 0x14 }
  - { offset: 0x334309, size: 0x8, addend: 0x0, symName: '__ZNSt3__114__thread_proxyB8ne190107INS_5tupleIJNS_10unique_ptrINS_15__thread_structENS_14default_deleteIS3_EEEEZL28llama_tensor_dequantize_implP11ggml_tensorRNS_6vectorI7no_initIfENS_9allocatorISB_EEEERNS9_INS_6threadENSC_ISG_EEEEmiE3$_09ggml_typePhPfmEEEEEPvSP_', symObjAddr: 0x71EC, symBinAddr: 0x8E3A0, symSize: 0xBC }
  - { offset: 0x33456B, size: 0x8, addend: 0x0, symName: '__ZZL26llama_tensor_quantize_impl9ggml_typePKfPvxxxS1_RNSt3__16vectorINS3_6threadENS3_9allocatorIS5_EEEEiENK3$_0clEv', symObjAddr: 0x7338, symBinAddr: 0x8E4AC, symSize: 0x100 }
  - { offset: 0x3371D0, size: 0x8, addend: 0x0, symName: __MergedGlobals, symObjAddr: 0x1C4E0, symBinAddr: 0x1F8490, symSize: 0x0 }
  - { offset: 0x33730D, size: 0x8, addend: 0x0, symName: __ZL22llama_sampler_greedy_i, symObjAddr: 0x1C210, symBinAddr: 0x1F81C0, symSize: 0x0 }
  - { offset: 0x33731B, size: 0x8, addend: 0x0, symName: __ZL12get_rng_seedj, symObjAddr: 0x71C, symBinAddr: 0x8EF74, symSize: 0x16C }
  - { offset: 0x337347, size: 0x8, addend: 0x0, symName: __MergedGlobals.151, symObjAddr: 0x2087D0, symBinAddr: 0x25F378, symSize: 0x0 }
  - { offset: 0x33775C, size: 0x8, addend: 0x0, symName: __MergedGlobals, symObjAddr: 0x1C4E0, symBinAddr: 0x1F8490, symSize: 0x0 }
  - { offset: 0x337779, size: 0x8, addend: 0x0, symName: __ZL23llama_sampler_softmax_i, symObjAddr: 0x1C240, symBinAddr: 0x1F81F0, symSize: 0x0 }
  - { offset: 0x337794, size: 0x8, addend: 0x0, symName: __ZL21llama_sampler_top_k_i, symObjAddr: 0x1C270, symBinAddr: 0x1F8220, symSize: 0x0 }
  - { offset: 0x3377AF, size: 0x8, addend: 0x0, symName: __ZL21llama_sampler_top_p_i, symObjAddr: 0x1C2A0, symBinAddr: 0x1F8250, symSize: 0x0 }
  - { offset: 0x3377CA, size: 0x8, addend: 0x0, symName: __ZL21llama_sampler_min_p_i, symObjAddr: 0x1C2D0, symBinAddr: 0x1F8280, symSize: 0x0 }
  - { offset: 0x3377E5, size: 0x8, addend: 0x0, symName: __ZL23llama_sampler_typical_i, symObjAddr: 0x1C300, symBinAddr: 0x1F82B0, symSize: 0x0 }
  - { offset: 0x34C99F, size: 0x8, addend: 0x0, symName: '__ZNSt3__111__introsortINS_17_ClassicAlgPolicyERZL26llama_sampler_softmax_implP22llama_token_data_arrayE3$_0P16llama_token_dataLb0EEEvT1_S8_T0_NS_15iterator_traitsIS8_E15difference_typeEb', symObjAddr: 0x3154, symBinAddr: 0x9199C, symSize: 0xEEC }
  - { offset: 0x34DF4B, size: 0x8, addend: 0x0, symName: '__ZNSt3__127__insertion_sort_incompleteB8ne190107INS_17_ClassicAlgPolicyERZL26llama_sampler_softmax_implP22llama_token_data_arrayE3$_0P16llama_token_dataEEbT1_S8_T0_', symObjAddr: 0x4040, symBinAddr: 0x92888, symSize: 0x488 }
  - { offset: 0x352FC7, size: 0x8, addend: 0x0, symName: '__ZNSt3__111__introsortINS_17_ClassicAlgPolicyERZL24llama_sampler_top_k_implP22llama_token_data_arrayiE3$_0P16llama_token_dataLb0EEEvT1_S8_T0_NS_15iterator_traitsIS8_E15difference_typeEb', symObjAddr: 0x5778, symBinAddr: 0x93F10, symSize: 0xCCC }
  - { offset: 0x354357, size: 0x8, addend: 0x0, symName: '__ZNSt3__127__insertion_sort_incompleteB8ne190107INS_17_ClassicAlgPolicyERZL24llama_sampler_top_k_implP22llama_token_data_arrayiE3$_0P16llama_token_dataEEbT1_S8_T0_', symObjAddr: 0x6444, symBinAddr: 0x94BDC, symSize: 0x488 }
  - { offset: 0x354AF7, size: 0x8, addend: 0x0, symName: '__ZNSt3__111__introsortINS_17_ClassicAlgPolicyERZL25llama_sampler_min_p_applyP13llama_samplerP22llama_token_data_arrayE3$_0P16llama_token_dataLb0EEEvT1_SA_T0_NS_15iterator_traitsISA_E15difference_typeEb', symObjAddr: 0x70B0, symBinAddr: 0x95848, symSize: 0xEEC }
  - { offset: 0x35605F, size: 0x8, addend: 0x0, symName: '__ZNSt3__127__insertion_sort_incompleteB8ne190107INS_17_ClassicAlgPolicyERZL25llama_sampler_min_p_applyP13llama_samplerP22llama_token_data_arrayE3$_0P16llama_token_dataEEbT1_SA_T0_', symObjAddr: 0x7F9C, symBinAddr: 0x96734, symSize: 0x488 }
  - { offset: 0x35884F, size: 0x8, addend: 0x0, symName: '__ZNSt3__111__introsortINS_17_ClassicAlgPolicyERZL27llama_sampler_typical_applyP13llama_samplerP22llama_token_data_arrayE3$_0PmLb0EEEvT1_S9_T0_NS_15iterator_traitsIS9_E15difference_typeEb', symObjAddr: 0x8E34, symBinAddr: 0x975B8, symSize: 0xAD8 }
  - { offset: 0x35A502, size: 0x8, addend: 0x0, symName: '__ZNSt3__127__insertion_sort_incompleteB8ne190107INS_17_ClassicAlgPolicyERZL27llama_sampler_typical_applyP13llama_samplerP22llama_token_data_arrayE3$_0PmEEbT1_S9_T0_', symObjAddr: 0x9AA8, symBinAddr: 0x9822C, symSize: 0x358 }
  - { offset: 0x3637FB, size: 0x8, addend: 0x0, symName: __ZNSt3__113regex_replaceB8ne190107INS_20back_insert_iteratorINS_12basic_stringIcNS_11char_traitsIcEENS_9allocatorIcEEEEEEPKcNS_12regex_traitsIcEEcEET_SD_T0_SE_RKNS_11basic_regexIT2_T1_EEPKSG_NS_15regex_constants15match_flag_typeE, symObjAddr: 0x14568, symBinAddr: 0x9D7D4, symSize: 0x29C }
  - { offset: 0x3662F9, size: 0x8, addend: 0x0, symName: '__ZNSt3__17__sort4B8ne190107INS_17_ClassicAlgPolicyERZL26llama_sampler_softmax_implP22llama_token_data_arrayE3$_0P16llama_token_dataEEvT1_S8_S8_S8_T0_', symObjAddr: 0x44C8, symBinAddr: 0x92D10, symSize: 0x180 }
  - { offset: 0x366FDE, size: 0x8, addend: 0x0, symName: '__ZNSt3__119__partial_sort_implB8ne190107INS_17_ClassicAlgPolicyERZL24llama_sampler_top_k_implP22llama_token_data_arrayiE3$_0P16llama_token_dataS7_EET1_S8_S8_T2_OT0_', symObjAddr: 0x5330, symBinAddr: 0x93ADC, symSize: 0x40C }
  - { offset: 0x367A5D, size: 0x8, addend: 0x0, symName: '__ZNSt3__17__sort4B8ne190107INS_17_ClassicAlgPolicyERZL24llama_sampler_top_k_implP22llama_token_data_arrayiE3$_0P16llama_token_dataEEvT1_S8_S8_S8_T0_', symObjAddr: 0x68CC, symBinAddr: 0x95064, symSize: 0x180 }
  - { offset: 0x368803, size: 0x8, addend: 0x0, symName: '__ZNSt3__17__sort4B8ne190107INS_17_ClassicAlgPolicyERZL25llama_sampler_min_p_applyP13llama_samplerP22llama_token_data_arrayE3$_0P16llama_token_dataEEvT1_SA_SA_SA_T0_', symObjAddr: 0x8424, symBinAddr: 0x96BBC, symSize: 0x180 }
  - { offset: 0x369A3D, size: 0x8, addend: 0x0, symName: '__ZNSt3__124__sort5_maybe_branchlessB8ne190107INS_17_ClassicAlgPolicyERZL27llama_sampler_typical_applyP13llama_samplerP22llama_token_data_arrayE3$_0PmTnNS_9enable_ifIXntsr21__use_branchless_sortIT0_T1_EE5valueEiE4typeELi0EEEvSB_SB_SB_SB_SB_SA_', symObjAddr: 0x990C, symBinAddr: 0x98090, symSize: 0x19C }
  - { offset: 0x369AAD, size: 0x8, addend: 0x0, symName: '__ZNSt3__124__sort5_maybe_branchlessB8ne190107INS_17_ClassicAlgPolicyERZL27llama_sampler_typical_applyP13llama_samplerP22llama_token_data_arrayE3$_0PmTnNS_9enable_ifIXntsr21__use_branchless_sortIT0_T1_EE5valueEiE4typeELi0EEEvSB_SB_SB_SB_SB_SA_', symObjAddr: 0x990C, symBinAddr: 0x98090, symSize: 0x19C }
  - { offset: 0x369AE5, size: 0x8, addend: 0x0, symName: '__ZNSt3__124__sort5_maybe_branchlessB8ne190107INS_17_ClassicAlgPolicyERZL27llama_sampler_typical_applyP13llama_samplerP22llama_token_data_arrayE3$_0PmTnNS_9enable_ifIXntsr21__use_branchless_sortIT0_T1_EE5valueEiE4typeELi0EEEvSB_SB_SB_SB_SB_SA_', symObjAddr: 0x990C, symBinAddr: 0x98090, symSize: 0x19C }
  - { offset: 0x36EAB6, size: 0x8, addend: 0x0, symName: __ZL20llama_sampler_temp_i, symObjAddr: 0x1C330, symBinAddr: 0x1F82E0, symSize: 0x0 }
  - { offset: 0x36EAD1, size: 0x8, addend: 0x0, symName: __ZL24llama_sampler_temp_ext_i, symObjAddr: 0x1C360, symBinAddr: 0x1F8310, symSize: 0x0 }
  - { offset: 0x36EAEC, size: 0x8, addend: 0x0, symName: __ZL19llama_sampler_xtc_i, symObjAddr: 0x1C390, symBinAddr: 0x1F8340, symSize: 0x0 }
  - { offset: 0x36EB07, size: 0x8, addend: 0x0, symName: __MergedGlobals, symObjAddr: 0x1C4E0, symBinAddr: 0x1F8490, symSize: 0x0 }
  - { offset: 0x36EB24, size: 0x8, addend: 0x0, symName: __MergedGlobals, symObjAddr: 0x1C4E0, symBinAddr: 0x1F8490, symSize: 0x0 }
  - { offset: 0x36EB35, size: 0x8, addend: 0x0, symName: __ZL31llama_sampler_init_grammar_implPK11llama_vocabPKcS3_bPS3_mPKimS4_m, symObjAddr: 0xCD8, symBinAddr: 0x8F530, symSize: 0x614 }
  - { offset: 0x36EB56, size: 0x8, addend: 0x0, symName: __MergedGlobals.151, symObjAddr: 0x2087D0, symBinAddr: 0x25F378, symSize: 0x0 }
  - { offset: 0x3709D5, size: 0x8, addend: 0x0, symName: __ZL23llama_sampler_grammar_i, symObjAddr: 0x1C4B0, symBinAddr: 0x1F8460, symSize: 0x0 }
  - { offset: 0x3709F0, size: 0x8, addend: 0x0, symName: __ZL25llama_sampler_penalties_i, symObjAddr: 0x1C3C0, symBinAddr: 0x1F8370, symSize: 0x0 }
  - { offset: 0x370A10, size: 0x8, addend: 0x0, symName: __ZL27llama_sampler_top_n_sigma_i, symObjAddr: 0x1C3F0, symBinAddr: 0x1F83A0, symSize: 0x0 }
  - { offset: 0x370A2B, size: 0x8, addend: 0x0, symName: __ZL19llama_sampler_dry_i, symObjAddr: 0x1C420, symBinAddr: 0x1F83D0, symSize: 0x0 }
  - { offset: 0x370A46, size: 0x8, addend: 0x0, symName: __ZL26llama_sampler_logit_bias_i, symObjAddr: 0x1C450, symBinAddr: 0x1F8400, symSize: 0x0 }
  - { offset: 0x370A61, size: 0x8, addend: 0x0, symName: __ZL22llama_sampler_infill_i, symObjAddr: 0x1C480, symBinAddr: 0x1F8430, symSize: 0x0 }
  - { offset: 0x371C5A, size: 0x8, addend: 0x0, symName: __ZL17llama_sample_distP22llama_token_data_arrayRNSt3__123mersenne_twister_engineIjLm32ELm624ELm397ELm31ELj2567483615ELm11ELj4294967295ELm7ELj2636928640ELm15ELj4022730752ELm18ELj1812433253EEE, symObjAddr: 0x2F60, symBinAddr: 0x917A8, symSize: 0x1F4 }
  - { offset: 0x373F2B, size: 0x8, addend: 0x0, symName: _llama_sampler_init, symObjAddr: 0x0, symBinAddr: 0x8E858, symSize: 0x2C }
  - { offset: 0x373F52, size: 0x8, addend: 0x0, symName: _llama_sampler_name, symObjAddr: 0x2C, symBinAddr: 0x8E884, symSize: 0x1C }
  - { offset: 0x373F8A, size: 0x8, addend: 0x0, symName: _llama_sampler_accept, symObjAddr: 0x48, symBinAddr: 0x8E8A0, symSize: 0x14 }
  - { offset: 0x373FB9, size: 0x8, addend: 0x0, symName: _llama_sampler_apply, symObjAddr: 0x5C, symBinAddr: 0x8E8B4, symSize: 0x40 }
  - { offset: 0x373FEE, size: 0x8, addend: 0x0, symName: _llama_sampler_reset, symObjAddr: 0x9C, symBinAddr: 0x8E8F4, symSize: 0x14 }
  - { offset: 0x37401C, size: 0x8, addend: 0x0, symName: _llama_sampler_reset, symObjAddr: 0x9C, symBinAddr: 0x8E8F4, symSize: 0x14 }
  - { offset: 0x37406B, size: 0x8, addend: 0x0, symName: _llama_sampler_clone, symObjAddr: 0xB0, symBinAddr: 0x8E908, symSize: 0x5C }
  - { offset: 0x3740BB, size: 0x8, addend: 0x0, symName: _llama_sampler_free, symObjAddr: 0x10C, symBinAddr: 0x8E964, symSize: 0x3C }
  - { offset: 0x3740CE, size: 0x8, addend: 0x0, symName: _llama_sampler_free, symObjAddr: 0x10C, symBinAddr: 0x8E964, symSize: 0x3C }
  - { offset: 0x374592, size: 0x8, addend: 0x0, symName: _llama_sampler_sample, symObjAddr: 0x148, symBinAddr: 0x8E9A0, symSize: 0x31C }
  - { offset: 0x374FC0, size: 0x8, addend: 0x0, symName: __ZNKSt3__16vectorI16llama_token_dataNS_9allocatorIS1_EEE20__throw_length_errorB8ne190107Ev, symObjAddr: 0x5750, symBinAddr: 0x93EE8, symSize: 0x14 }
  - { offset: 0x374FEA, size: 0x8, addend: 0x0, symName: __ZNKSt3__16vectorIP16llama_token_dataNS_9allocatorIS2_EEE20__throw_length_errorB8ne190107Ev, symObjAddr: 0x5764, symBinAddr: 0x93EFC, symSize: 0x14 }
  - { offset: 0x374FF5, size: 0x8, addend: 0x0, symName: _llama_sampler_chain_init, symObjAddr: 0x464, symBinAddr: 0x8ECBC, symSize: 0x50 }
  - { offset: 0x37536B, size: 0x8, addend: 0x0, symName: _llama_sampler_chain_add, symObjAddr: 0x4B4, symBinAddr: 0x8ED0C, symSize: 0xEC }
  - { offset: 0x375734, size: 0x8, addend: 0x0, symName: _llama_sampler_chain_get, symObjAddr: 0x5A0, symBinAddr: 0x8EDF8, symSize: 0x2C }
  - { offset: 0x37573F, size: 0x8, addend: 0x0, symName: __ZNKSt3__16vectorIP13llama_samplerNS_9allocatorIS2_EEE20__throw_length_errorB8ne190107Ev, symObjAddr: 0x1B2D4, symBinAddr: 0xA1D64, symSize: 0x14 }
  - { offset: 0x375774, size: 0x8, addend: 0x0, symName: _llama_sampler_chain_get, symObjAddr: 0x5A0, symBinAddr: 0x8EDF8, symSize: 0x2C }
  - { offset: 0x375910, size: 0x8, addend: 0x0, symName: _llama_sampler_chain_remove, symObjAddr: 0x5CC, symBinAddr: 0x8EE24, symSize: 0x88 }
  - { offset: 0x375B59, size: 0x8, addend: 0x0, symName: _llama_sampler_chain_n, symObjAddr: 0x654, symBinAddr: 0x8EEAC, symSize: 0x14 }
  - { offset: 0x375BB4, size: 0x8, addend: 0x0, symName: _llama_sampler_init_greedy, symObjAddr: 0x668, symBinAddr: 0x8EEC0, symSize: 0x24 }
  - { offset: 0x375C76, size: 0x8, addend: 0x0, symName: _llama_sampler_init_dist, symObjAddr: 0x68C, symBinAddr: 0x8EEE4, symSize: 0x90 }
  - { offset: 0x375F7F, size: 0x8, addend: 0x0, symName: __ZNSt3__113random_deviceC1B8ne190107Ev, symObjAddr: 0x2B84, symBinAddr: 0x913CC, symSize: 0xA8 }
  - { offset: 0x37633D, size: 0x8, addend: 0x0, symName: _llama_sampler_init_softmax, symObjAddr: 0x888, symBinAddr: 0x8F0E0, symSize: 0x24 }
  - { offset: 0x37637F, size: 0x8, addend: 0x0, symName: _llama_sampler_init_top_k, symObjAddr: 0x8AC, symBinAddr: 0x8F104, symSize: 0x40 }
  - { offset: 0x3763C3, size: 0x8, addend: 0x0, symName: _llama_sampler_init_top_p, symObjAddr: 0x8EC, symBinAddr: 0x8F144, symSize: 0x50 }
  - { offset: 0x376410, size: 0x8, addend: 0x0, symName: _llama_sampler_init_min_p, symObjAddr: 0x93C, symBinAddr: 0x8F194, symSize: 0x50 }
  - { offset: 0x37645D, size: 0x8, addend: 0x0, symName: _llama_sampler_init_typical, symObjAddr: 0x98C, symBinAddr: 0x8F1E4, symSize: 0x50 }
  - { offset: 0x3764AA, size: 0x8, addend: 0x0, symName: _llama_sampler_init_temp, symObjAddr: 0x9DC, symBinAddr: 0x8F234, symSize: 0x48 }
  - { offset: 0x3764EE, size: 0x8, addend: 0x0, symName: _llama_sampler_init_temp_ext, symObjAddr: 0xA24, symBinAddr: 0x8F27C, symSize: 0x5C }
  - { offset: 0x376544, size: 0x8, addend: 0x0, symName: _llama_sampler_init_xtc, symObjAddr: 0xA80, symBinAddr: 0x8F2D8, symSize: 0xB0 }
  - { offset: 0x37664D, size: 0x8, addend: 0x0, symName: _llama_sampler_init_mirostat, symObjAddr: 0xB30, symBinAddr: 0x8F388, symSize: 0xC8 }
  - { offset: 0x37675F, size: 0x8, addend: 0x0, symName: _llama_sampler_init_mirostat_v2, symObjAddr: 0xBF8, symBinAddr: 0x8F450, symSize: 0xAC }
  - { offset: 0x37685F, size: 0x8, addend: 0x0, symName: _llama_sampler_init_grammar, symObjAddr: 0xCA4, symBinAddr: 0x8F4FC, symSize: 0x34 }
  - { offset: 0x376CB6, size: 0x8, addend: 0x0, symName: __ZNSt3__111basic_regexIcNS_12regex_traitsIcEEEC2B8ne190107EPKcNS_15regex_constants18syntax_option_typeE, symObjAddr: 0xB524, symBinAddr: 0x99C4C, symSize: 0xC8 }
  - { offset: 0x376E93, size: 0x8, addend: 0x0, symName: _llama_sampler_init_grammar_lazy, symObjAddr: 0x12EC, symBinAddr: 0x8FB44, symSize: 0x34 }
  - { offset: 0x376F63, size: 0x8, addend: 0x0, symName: _llama_sampler_init_grammar_lazy_patterns, symObjAddr: 0x1320, symBinAddr: 0x8FB78, symSize: 0x34 }
  - { offset: 0x377408, size: 0x8, addend: 0x0, symName: _llama_sampler_init_penalties, symObjAddr: 0x1354, symBinAddr: 0x8FBAC, symSize: 0xE4 }
  - { offset: 0x3777EB, size: 0x8, addend: 0x0, symName: _llama_sampler_init_top_n_sigma, symObjAddr: 0x1438, symBinAddr: 0x8FC90, symSize: 0x48 }
  - { offset: 0x378F98, size: 0x8, addend: 0x0, symName: _llama_sampler_init_dry, symObjAddr: 0x1480, symBinAddr: 0x8FCD8, symSize: 0xB9C }
  - { offset: 0x37C93A, size: 0x8, addend: 0x0, symName: __ZNSt3__112__hash_tableINS_17__hash_value_typeIiNS_6vectorIiNS_9allocatorIiEEEEEENS_22__unordered_map_hasherIiS6_NS_4hashIiEENS_8equal_toIiEELb1EEENS_21__unordered_map_equalIiS6_SB_S9_Lb1EEENS3_IS6_EEE27__node_insert_multi_prepareEmRS6_, symObjAddr: 0x189E8, symBinAddr: 0x9F478, symSize: 0x2AC }
  - { offset: 0x37CBF9, size: 0x8, addend: 0x0, symName: __ZNSt3__112__hash_tableINS_17__hash_value_typeIiNS_6vectorIiNS_9allocatorIiEEEEEENS_22__unordered_map_hasherIiS6_NS_4hashIiEENS_8equal_toIiEELb1EEENS_21__unordered_map_equalIiS6_SB_S9_Lb1EEENS3_IS6_EEE19__node_insert_multiEPNS_11__hash_nodeIS6_PvEE, symObjAddr: 0x18858, symBinAddr: 0x9F2E8, symSize: 0x124 }
  - { offset: 0x37CE04, size: 0x8, addend: 0x0, symName: __ZNKSt3__16vectorI16llama_token_dataNS_9allocatorIS1_EEE20__throw_length_errorB8ne190107Ev, symObjAddr: 0x5750, symBinAddr: 0x93EE8, symSize: 0x14 }
  - { offset: 0x37CE0F, size: 0x8, addend: 0x0, symName: __ZNSt3__113unordered_mapIiiNS_4hashIiEENS_8equal_toIiEENS_9allocatorINS_4pairIKiiEEEEED1B8ne190107Ev, symObjAddr: 0x201C, symBinAddr: 0x90874, symSize: 0x54 }
  - { offset: 0x37D107, size: 0x8, addend: 0x0, symName: __ZNSt3__118unordered_multimapIiNS_6vectorIiNS_9allocatorIiEEEENS_4hashIiEENS_8equal_toIiEENS2_INS_4pairIKiS4_EEEEED1B8ne190107Ev, symObjAddr: 0x2070, symBinAddr: 0x908C8, symSize: 0x7C }
  - { offset: 0x37D5F2, size: 0x8, addend: 0x0, symName: __ZNSt3__110unique_ptrINS_11__hash_nodeINS_17__hash_value_typeIiNS_6vectorIiNS_9allocatorIiEEEEEEPvEENS_22__hash_node_destructorINS4_IS9_EEEEED1B8ne190107Ev, symObjAddr: 0x1897C, symBinAddr: 0x9F40C, symSize: 0x6C }
  - { offset: 0x37DD59, size: 0x8, addend: 0x0, symName: __Z30llama_sampler_init_dry_testingiffiiRKNSt3__16vectorINS0_IiNS_9allocatorIiEEEENS1_IS3_EEEE, symObjAddr: 0x20EC, symBinAddr: 0x90944, symSize: 0x298 }
  - { offset: 0x37EF62, size: 0x8, addend: 0x0, symName: _llama_sampler_init_logit_bias, symObjAddr: 0x2384, symBinAddr: 0x90BDC, symSize: 0xD0 }
  - { offset: 0x37F45B, size: 0x8, addend: 0x0, symName: __ZNKSt3__16vectorI16llama_logit_biasNS_9allocatorIS1_EEE20__throw_length_errorB8ne190107Ev, symObjAddr: 0x1AA70, symBinAddr: 0xA1500, symSize: 0x14 }
  - { offset: 0x37F485, size: 0x8, addend: 0x0, symName: __ZL25llama_sampler_infill_namePK13llama_sampler, symObjAddr: 0x1AA84, symBinAddr: 0xA1514, symSize: 0xC }
  - { offset: 0x37F676, size: 0x8, addend: 0x0, symName: _llama_sampler_init_infill, symObjAddr: 0x2454, symBinAddr: 0x90CAC, symSize: 0x144 }
  - { offset: 0x37FB54, size: 0x8, addend: 0x0, symName: _llama_sampler_get_seed, symObjAddr: 0x2598, symBinAddr: 0x90DF0, symSize: 0xBC }
  - { offset: 0x37FC76, size: 0x8, addend: 0x0, symName: _llama_perf_sampler, symObjAddr: 0x2654, symBinAddr: 0x90EAC, symSize: 0x70 }
  - { offset: 0x37FD03, size: 0x8, addend: 0x0, symName: _llama_perf_sampler_print, symObjAddr: 0x26C4, symBinAddr: 0x90F1C, symSize: 0xB8 }
  - { offset: 0x37FD6E, size: 0x8, addend: 0x0, symName: _llama_perf_sampler_print, symObjAddr: 0x26C4, symBinAddr: 0x90F1C, symSize: 0xB8 }
  - { offset: 0x37FE24, size: 0x8, addend: 0x0, symName: _llama_perf_sampler_reset, symObjAddr: 0x277C, symBinAddr: 0x90FD4, symSize: 0x58 }
  - { offset: 0x37FE37, size: 0x8, addend: 0x0, symName: _llama_perf_sampler_reset, symObjAddr: 0x277C, symBinAddr: 0x90FD4, symSize: 0x58 }
  - { offset: 0x37FE71, size: 0x8, addend: 0x0, symName: __ZL24llama_sampler_chain_namePK13llama_sampler, symObjAddr: 0x27D4, symBinAddr: 0x9102C, symSize: 0xC }
  - { offset: 0x37FE84, size: 0x8, addend: 0x0, symName: __ZL24llama_sampler_chain_namePK13llama_sampler, symObjAddr: 0x27D4, symBinAddr: 0x9102C, symSize: 0xC }
  - { offset: 0x37FEE0, size: 0x8, addend: 0x0, symName: __ZL26llama_sampler_chain_acceptP13llama_sampleri, symObjAddr: 0x27E0, symBinAddr: 0x91038, symSize: 0x98 }
  - { offset: 0x380001, size: 0x8, addend: 0x0, symName: __ZL25llama_sampler_chain_applyP13llama_samplerP22llama_token_data_array, symObjAddr: 0x2878, symBinAddr: 0x910D0, symSize: 0xC8 }
  - { offset: 0x380136, size: 0x8, addend: 0x0, symName: __ZL25llama_sampler_chain_resetP13llama_sampler, symObjAddr: 0x2940, symBinAddr: 0x91198, symSize: 0x58 }
  - { offset: 0x380292, size: 0x8, addend: 0x0, symName: __ZL25llama_sampler_chain_clonePK13llama_sampler, symObjAddr: 0x2998, symBinAddr: 0x911F0, symSize: 0xCC }
  - { offset: 0x3803FE, size: 0x8, addend: 0x0, symName: __ZL24llama_sampler_chain_freeP13llama_sampler, symObjAddr: 0x2A64, symBinAddr: 0x912BC, symSize: 0xA8 }
  - { offset: 0x3804CA, size: 0x8, addend: 0x0, symName: __ZL24llama_sampler_chain_freeP13llama_sampler, symObjAddr: 0x2A64, symBinAddr: 0x912BC, symSize: 0xA8 }
  - { offset: 0x38074E, size: 0x8, addend: 0x0, symName: __ZL25llama_sampler_greedy_namePK13llama_sampler, symObjAddr: 0x2B1C, symBinAddr: 0x91364, symSize: 0xC }
  - { offset: 0x380777, size: 0x8, addend: 0x0, symName: __ZL26llama_sampler_greedy_applyP13llama_samplerP22llama_token_data_array, symObjAddr: 0x2B28, symBinAddr: 0x91370, symSize: 0x5C }
  - { offset: 0x3807C9, size: 0x8, addend: 0x0, symName: __ZL23llama_sampler_dist_namePK13llama_sampler, symObjAddr: 0x2C2C, symBinAddr: 0x91474, symSize: 0xC }
  - { offset: 0x380853, size: 0x8, addend: 0x0, symName: __ZL24llama_sampler_dist_applyP13llama_samplerP22llama_token_data_array, symObjAddr: 0x2C38, symBinAddr: 0x91480, symSize: 0x1FC }
  - { offset: 0x3809A1, size: 0x8, addend: 0x0, symName: __ZL24llama_sampler_dist_resetP13llama_sampler, symObjAddr: 0x2E34, symBinAddr: 0x9167C, symSize: 0x64 }
  - { offset: 0x3809B4, size: 0x8, addend: 0x0, symName: __ZL24llama_sampler_dist_resetP13llama_sampler, symObjAddr: 0x2E34, symBinAddr: 0x9167C, symSize: 0x64 }
  - { offset: 0x380A5A, size: 0x8, addend: 0x0, symName: __ZL24llama_sampler_dist_clonePK13llama_sampler, symObjAddr: 0x2E98, symBinAddr: 0x916E0, symSize: 0xB4 }
  - { offset: 0x380BB3, size: 0x8, addend: 0x0, symName: __ZL23llama_sampler_dist_freeP13llama_sampler, symObjAddr: 0x2F4C, symBinAddr: 0x91794, symSize: 0x14 }
  - { offset: 0x381287, size: 0x8, addend: 0x0, symName: __ZNSt3__121discrete_distributionIiE10param_type6__initEv, symObjAddr: 0x4648, symBinAddr: 0x92E90, symSize: 0x220 }
  - { offset: 0x381924, size: 0x8, addend: 0x0, symName: __ZNSt3__121discrete_distributionIiEclINS_23mersenne_twister_engineIjLm32ELm624ELm397ELm31ELj2567483615ELm11ELj4294967295ELm7ELj2636928640ELm15ELj4022730752ELm18ELj1812433253EEEEEiRT_RKNS1_10param_typeE, symObjAddr: 0x49D4, symBinAddr: 0x93180, symSize: 0x164 }
  - { offset: 0x381979, size: 0x8, addend: 0x0, symName: __ZNSt3__121discrete_distributionIiEclINS_23mersenne_twister_engineIjLm32ELm624ELm397ELm31ELj2567483615ELm11ELj4294967295ELm7ELj2636928640ELm15ELj4022730752ELm18ELj1812433253EEEEEiRT_RKNS1_10param_typeE, symObjAddr: 0x49D4, symBinAddr: 0x93180, symSize: 0x164 }
  - { offset: 0x381C1E, size: 0x8, addend: 0x0, symName: __ZNKSt3__16vectorIdNS_9allocatorIdEEE20__throw_length_errorB8ne190107Ev, symObjAddr: 0x4868, symBinAddr: 0x930B0, symSize: 0x14 }
  - { offset: 0x381EB0, size: 0x8, addend: 0x0, symName: __ZNSt3__16vectorIdNS_9allocatorIdEEE13shrink_to_fitEv, symObjAddr: 0x4918, symBinAddr: 0x930C4, symSize: 0xBC }
  - { offset: 0x38239B, size: 0x8, addend: 0x0, symName: __ZL26llama_sampler_softmax_namePK13llama_sampler, symObjAddr: 0x4B38, symBinAddr: 0x932E4, symSize: 0xC }
  - { offset: 0x3823C4, size: 0x8, addend: 0x0, symName: __ZL27llama_sampler_softmax_applyP13llama_samplerP22llama_token_data_array, symObjAddr: 0x4B44, symBinAddr: 0x932F0, symSize: 0x1D8 }
  - { offset: 0x3824DB, size: 0x8, addend: 0x0, symName: __ZL24llama_sampler_top_k_namePK13llama_sampler, symObjAddr: 0x4D1C, symBinAddr: 0x934C8, symSize: 0xC }
  - { offset: 0x3824EE, size: 0x8, addend: 0x0, symName: __ZL24llama_sampler_top_k_namePK13llama_sampler, symObjAddr: 0x4D1C, symBinAddr: 0x934C8, symSize: 0xC }
  - { offset: 0x382517, size: 0x8, addend: 0x0, symName: __ZL25llama_sampler_top_k_applyP13llama_samplerP22llama_token_data_array, symObjAddr: 0x4D28, symBinAddr: 0x934D4, symSize: 0x14 }
  - { offset: 0x382579, size: 0x8, addend: 0x0, symName: __ZL24llama_sampler_top_k_implP22llama_token_data_arrayi, symObjAddr: 0x4D94, symBinAddr: 0x93540, symSize: 0x59C }
  - { offset: 0x383DCA, size: 0x8, addend: 0x0, symName: __ZL25llama_sampler_top_k_clonePK13llama_sampler, symObjAddr: 0x4D3C, symBinAddr: 0x934E8, symSize: 0x44 }
  - { offset: 0x383E4D, size: 0x8, addend: 0x0, symName: __ZL24llama_sampler_top_k_freeP13llama_sampler, symObjAddr: 0x4D80, symBinAddr: 0x9352C, symSize: 0x14 }
  - { offset: 0x3844AB, size: 0x8, addend: 0x0, symName: __ZNKSt3__16vectorIP16llama_token_dataNS_9allocatorIS2_EEE20__throw_length_errorB8ne190107Ev, symObjAddr: 0x5764, symBinAddr: 0x93EFC, symSize: 0x14 }
  - { offset: 0x3844D5, size: 0x8, addend: 0x0, symName: '__ZNSt3__111__introsortINS_17_ClassicAlgPolicyERZL24llama_sampler_top_k_implP22llama_token_data_arrayiE3$_0P16llama_token_dataLb0EEEvT1_S8_T0_NS_15iterator_traitsIS8_E15difference_typeEb', symObjAddr: 0x5778, symBinAddr: 0x93F10, symSize: 0xCCC }
  - { offset: 0x3844E0, size: 0x8, addend: 0x0, symName: __ZL24llama_sampler_top_p_namePK13llama_sampler, symObjAddr: 0x6A4C, symBinAddr: 0x951E4, symSize: 0xC }
  - { offset: 0x384509, size: 0x8, addend: 0x0, symName: __ZL25llama_sampler_top_p_applyP13llama_samplerP22llama_token_data_array, symObjAddr: 0x6A58, symBinAddr: 0x951F0, symSize: 0x240 }
  - { offset: 0x384676, size: 0x8, addend: 0x0, symName: __ZL25llama_sampler_top_p_clonePK13llama_sampler, symObjAddr: 0x6C98, symBinAddr: 0x95430, symSize: 0x54 }
  - { offset: 0x3846B0, size: 0x8, addend: 0x0, symName: __ZL25llama_sampler_top_p_clonePK13llama_sampler, symObjAddr: 0x6C98, symBinAddr: 0x95430, symSize: 0x54 }
  - { offset: 0x38473B, size: 0x8, addend: 0x0, symName: __ZL24llama_sampler_top_p_freeP13llama_sampler, symObjAddr: 0x6CEC, symBinAddr: 0x95484, symSize: 0x14 }
  - { offset: 0x384767, size: 0x8, addend: 0x0, symName: __ZL24llama_sampler_min_p_namePK13llama_sampler, symObjAddr: 0x6D00, symBinAddr: 0x95498, symSize: 0xC }
  - { offset: 0x384790, size: 0x8, addend: 0x0, symName: __ZL25llama_sampler_min_p_applyP13llama_samplerP22llama_token_data_array, symObjAddr: 0x6D0C, symBinAddr: 0x954A4, symSize: 0x33C }
  - { offset: 0x385311, size: 0x8, addend: 0x0, symName: __ZL25llama_sampler_min_p_clonePK13llama_sampler, symObjAddr: 0x7048, symBinAddr: 0x957E0, symSize: 0x54 }
  - { offset: 0x38539C, size: 0x8, addend: 0x0, symName: __ZL24llama_sampler_min_p_freeP13llama_sampler, symObjAddr: 0x709C, symBinAddr: 0x95834, symSize: 0x14 }
  - { offset: 0x3853C8, size: 0x8, addend: 0x0, symName: __ZL26llama_sampler_typical_namePK13llama_sampler, symObjAddr: 0x85A4, symBinAddr: 0x96D3C, symSize: 0xC }
  - { offset: 0x3858FC, size: 0x8, addend: 0x0, symName: __ZL27llama_sampler_typical_applyP13llama_samplerP22llama_token_data_array, symObjAddr: 0x85B0, symBinAddr: 0x96D48, symSize: 0x7F4 }
  - { offset: 0x38725D, size: 0x8, addend: 0x0, symName: __ZNKSt3__16vectorImNS_9allocatorImEEE20__throw_length_errorB8ne190107Ev, symObjAddr: 0x8E20, symBinAddr: 0x975A4, symSize: 0x14 }
  - { offset: 0x387268, size: 0x8, addend: 0x0, symName: __ZNKSt3__16vectorImNS_9allocatorImEEE20__throw_length_errorB8ne190107Ev, symObjAddr: 0x8E20, symBinAddr: 0x975A4, symSize: 0x14 }
  - { offset: 0x387292, size: 0x8, addend: 0x0, symName: '__ZNSt3__111__introsortINS_17_ClassicAlgPolicyERZL27llama_sampler_typical_applyP13llama_samplerP22llama_token_data_arrayE3$_0PmLb0EEEvT1_S9_T0_NS_15iterator_traitsIS9_E15difference_typeEb', symObjAddr: 0x8E34, symBinAddr: 0x975B8, symSize: 0xAD8 }
  - { offset: 0x3872C4, size: 0x8, addend: 0x0, symName: __ZL27llama_sampler_typical_clonePK13llama_sampler, symObjAddr: 0x8DA4, symBinAddr: 0x9753C, symSize: 0x54 }
  - { offset: 0x38734F, size: 0x8, addend: 0x0, symName: __ZL26llama_sampler_typical_freeP13llama_sampler, symObjAddr: 0x8DF8, symBinAddr: 0x97590, symSize: 0x14 }
  - { offset: 0x38743A, size: 0x8, addend: 0x0, symName: __ZL23llama_sampler_temp_namePK13llama_sampler, symObjAddr: 0x9E00, symBinAddr: 0x98584, symSize: 0xC }
  - { offset: 0x3874B9, size: 0x8, addend: 0x0, symName: __ZL24llama_sampler_temp_applyP13llama_samplerP22llama_token_data_array, symObjAddr: 0x9E0C, symBinAddr: 0x98590, symSize: 0x114 }
  - { offset: 0x38757A, size: 0x8, addend: 0x0, symName: __ZL24llama_sampler_temp_clonePK13llama_sampler, symObjAddr: 0x9F20, symBinAddr: 0x986A4, symSize: 0x4C }
  - { offset: 0x3875FE, size: 0x8, addend: 0x0, symName: __ZL23llama_sampler_temp_freeP13llama_sampler, symObjAddr: 0x9F6C, symBinAddr: 0x986F0, symSize: 0x14 }
  - { offset: 0x38762A, size: 0x8, addend: 0x0, symName: __ZL27llama_sampler_temp_ext_namePK13llama_sampler, symObjAddr: 0x9F80, symBinAddr: 0x98704, symSize: 0xC }
  - { offset: 0x387653, size: 0x8, addend: 0x0, symName: __ZL28llama_sampler_temp_ext_applyP13llama_samplerP22llama_token_data_array, symObjAddr: 0x9F8C, symBinAddr: 0x98710, symSize: 0x524 }
  - { offset: 0x387986, size: 0x8, addend: 0x0, symName: __ZL28llama_sampler_temp_ext_clonePK13llama_sampler, symObjAddr: 0xA4B0, symBinAddr: 0x98C34, symSize: 0x54 }
  - { offset: 0x387A0A, size: 0x8, addend: 0x0, symName: __ZL27llama_sampler_temp_ext_freeP13llama_sampler, symObjAddr: 0xA504, symBinAddr: 0x98C88, symSize: 0x14 }
  - { offset: 0x387A36, size: 0x8, addend: 0x0, symName: __ZL22llama_sampler_xtc_namePK13llama_sampler, symObjAddr: 0xA518, symBinAddr: 0x98C9C, symSize: 0xC }
  - { offset: 0x387AE6, size: 0x8, addend: 0x0, symName: __ZL22llama_sample_xtc_applyP13llama_samplerP22llama_token_data_array, symObjAddr: 0xA524, symBinAddr: 0x98CA8, symSize: 0x308 }
  - { offset: 0x387D18, size: 0x8, addend: 0x0, symName: __ZL23llama_sampler_xtc_resetP13llama_sampler, symObjAddr: 0xA82C, symBinAddr: 0x98FB0, symSize: 0x64 }
  - { offset: 0x387DE2, size: 0x8, addend: 0x0, symName: __ZL23llama_sampler_xtc_clonePK13llama_sampler, symObjAddr: 0xA890, symBinAddr: 0x99014, symSize: 0xD4 }
  - { offset: 0x387F42, size: 0x8, addend: 0x0, symName: __ZL22llama_sampler_xtc_freeP13llama_sampler, symObjAddr: 0xA964, symBinAddr: 0x990E8, symSize: 0x14 }
  - { offset: 0x387F6E, size: 0x8, addend: 0x0, symName: __ZL27llama_sampler_mirostat_namePK13llama_sampler, symObjAddr: 0xA978, symBinAddr: 0x990FC, symSize: 0xC }
  - { offset: 0x387F97, size: 0x8, addend: 0x0, symName: __ZL28llama_sampler_mirostat_applyP13llama_samplerP22llama_token_data_array, symObjAddr: 0xA984, symBinAddr: 0x99108, symSize: 0x464 }
  - { offset: 0x3882B2, size: 0x8, addend: 0x0, symName: __ZL28llama_sampler_mirostat_resetP13llama_sampler, symObjAddr: 0xADE8, symBinAddr: 0x9956C, symSize: 0x74 }
  - { offset: 0x3882C5, size: 0x8, addend: 0x0, symName: __ZL28llama_sampler_mirostat_resetP13llama_sampler, symObjAddr: 0xADE8, symBinAddr: 0x9956C, symSize: 0x74 }
  - { offset: 0x3883A4, size: 0x8, addend: 0x0, symName: __ZL28llama_sampler_mirostat_clonePK13llama_sampler, symObjAddr: 0xAE5C, symBinAddr: 0x995E0, symSize: 0xFC }
  - { offset: 0x38850D, size: 0x8, addend: 0x0, symName: __ZL27llama_sampler_mirostat_freeP13llama_sampler, symObjAddr: 0xAF58, symBinAddr: 0x996DC, symSize: 0x14 }
  - { offset: 0x388539, size: 0x8, addend: 0x0, symName: __ZL30llama_sampler_mirostat_v2_namePK13llama_sampler, symObjAddr: 0xAF6C, symBinAddr: 0x996F0, symSize: 0xC }
  - { offset: 0x388562, size: 0x8, addend: 0x0, symName: __ZL31llama_sampler_mirostat_v2_applyP13llama_samplerP22llama_token_data_array, symObjAddr: 0xAF78, symBinAddr: 0x996FC, symSize: 0x3EC }
  - { offset: 0x388876, size: 0x8, addend: 0x0, symName: __ZL31llama_sampler_mirostat_v2_resetP13llama_sampler, symObjAddr: 0xB364, symBinAddr: 0x99AE8, symSize: 0x74 }
  - { offset: 0x3888C8, size: 0x8, addend: 0x0, symName: __ZL31llama_sampler_mirostat_v2_resetP13llama_sampler, symObjAddr: 0xB364, symBinAddr: 0x99AE8, symSize: 0x74 }
  - { offset: 0x38898F, size: 0x8, addend: 0x0, symName: __ZL31llama_sampler_mirostat_v2_clonePK13llama_sampler, symObjAddr: 0xB3D8, symBinAddr: 0x99B5C, symSize: 0xDC }
  - { offset: 0x388AEB, size: 0x8, addend: 0x0, symName: __ZL30llama_sampler_mirostat_v2_freeP13llama_sampler, symObjAddr: 0xB4B4, symBinAddr: 0x99C38, symSize: 0x14 }
  - { offset: 0x388D3B, size: 0x8, addend: 0x0, symName: __ZNSt3__111basic_regexIcNS_12regex_traitsIcEEE7__parseIPKcEET_S7_S7_, symObjAddr: 0xB648, symBinAddr: 0x99D14, symSize: 0x340 }
  - { offset: 0x389B09, size: 0x8, addend: 0x0, symName: __ZNSt3__111basic_regexIcNS_12regex_traitsIcEEE13__parse_egrepIPKcEET_S7_S7_, symObjAddr: 0xC03C, symBinAddr: 0x9A6BC, symSize: 0x1B8 }
  - { offset: 0x38A048, size: 0x8, addend: 0x0, symName: __ZNSt3__111basic_regexIcNS_12regex_traitsIcEEE24__parse_extended_reg_expIPKcEET_S7_S7_, symObjAddr: 0xBD20, symBinAddr: 0x9A3A0, symSize: 0x164 }
  - { offset: 0x38A368, size: 0x8, addend: 0x0, symName: __ZNSt3__111basic_regexIcNS_12regex_traitsIcEEE12__parse_grepIPKcEET_S7_S7_, symObjAddr: 0xBE84, symBinAddr: 0x9A504, symSize: 0x1B8 }
  - { offset: 0x38A37C, size: 0x8, addend: 0x0, symName: __ZNSt3__111basic_regexIcNS_12regex_traitsIcEEE21__parse_basic_reg_expIPKcEET_S7_S7_, symObjAddr: 0xBB98, symBinAddr: 0x9A218, symSize: 0x188 }
  - { offset: 0x38A6D8, size: 0x8, addend: 0x0, symName: __ZNSt3__111basic_regexIcNS_12regex_traitsIcEEE24__parse_extended_reg_expIPKcEET_S7_S7_, symObjAddr: 0xBD20, symBinAddr: 0x9A3A0, symSize: 0x164 }
  - { offset: 0x38A6EC, size: 0x8, addend: 0x0, symName: __ZNSt3__111basic_regexIcNS_12regex_traitsIcEEE12__parse_grepIPKcEET_S7_S7_, symObjAddr: 0xBE84, symBinAddr: 0x9A504, symSize: 0x1B8 }
  - { offset: 0x38AC2B, size: 0x8, addend: 0x0, symName: __ZNSt3__111basic_regexIcNS_12regex_traitsIcEEE19__parse_alternativeIPKcEET_S7_S7_, symObjAddr: 0xC44C, symBinAddr: 0x9A874, symSize: 0xA0 }
  - { offset: 0x38ADCB, size: 0x8, addend: 0x0, symName: __ZNSt3__111basic_regexIcNS_12regex_traitsIcEEE16__parse_ecma_expIPKcEET_S7_S7_, symObjAddr: 0xB9D4, symBinAddr: 0x9A054, symSize: 0x1C4 }
  - { offset: 0x38B1C9, size: 0x8, addend: 0x0, symName: __ZNSt3__111basic_regexIcNS_12regex_traitsIcEEE12__parse_termIPKcEET_S7_S7_, symObjAddr: 0xC4EC, symBinAddr: 0x9A914, symSize: 0x94 }
  - { offset: 0x38B45B, size: 0x8, addend: 0x0, symName: __ZNSt3__111basic_regexIcNS_12regex_traitsIcEEE18__parse_nondupl_REIPKcEET_S7_S7_, symObjAddr: 0x13A64, symBinAddr: 0x9CE04, symSize: 0x20C }
  - { offset: 0x38B980, size: 0x8, addend: 0x0, symName: __ZNSt3__111basic_regexIcNS_12regex_traitsIcEEE22__parse_RE_dupl_symbolIPKcEET_S7_S7_PNS_16__owns_one_stateIcEEjj, symObjAddr: 0x13C70, symBinAddr: 0x9D010, symSize: 0x274 }
  - { offset: 0x38B994, size: 0x8, addend: 0x0, symName: __ZNSt3__111basic_regexIcNS_12regex_traitsIcEEE22__parse_RE_dupl_symbolIPKcEET_S7_S7_PNS_16__owns_one_stateIcEEjj, symObjAddr: 0x13C70, symBinAddr: 0x9D010, symSize: 0x274 }
  - { offset: 0x38BEEC, size: 0x8, addend: 0x0, symName: __ZNSt3__111basic_regexIcNS_12regex_traitsIcEEE32__parse_one_char_or_coll_elem_REIPKcEET_S7_S7_, symObjAddr: 0x13EE4, symBinAddr: 0x9D284, symSize: 0x124 }
  - { offset: 0x38BF43, size: 0x8, addend: 0x0, symName: __ZNSt3__111basic_regexIcNS_12regex_traitsIcEEE22__parse_ERE_expressionIPKcEET_S7_S7_, symObjAddr: 0x1413C, symBinAddr: 0x9D3A8, symSize: 0x208 }
  - { offset: 0x38C2CB, size: 0x8, addend: 0x0, symName: __ZNSt3__111basic_regexIcNS_12regex_traitsIcEEE33__parse_one_char_or_coll_elem_EREIPKcEET_S7_S7_, symObjAddr: 0x14344, symBinAddr: 0x9D5B0, symSize: 0x14C }
  - { offset: 0x38C395, size: 0x8, addend: 0x0, symName: __ZNSt3__111basic_regexIcNS_12regex_traitsIcEEE23__parse_ERE_dupl_symbolIPKcEET_S7_S7_PNS_16__owns_one_stateIcEEjj, symObjAddr: 0xCB44, symBinAddr: 0x9AF6C, symSize: 0x3E4 }
  - { offset: 0x38C934, size: 0x8, addend: 0x0, symName: __ZNSt3__111basic_regexIcNS_12regex_traitsIcEEE17__parse_assertionIPKcEET_S7_S7_, symObjAddr: 0xC580, symBinAddr: 0x9A9A8, symSize: 0x374 }
  - { offset: 0x38CF4A, size: 0x8, addend: 0x0, symName: __ZNSt3__111basic_regexIcNS_12regex_traitsIcEEE12__parse_atomIPKcEET_S7_S7_, symObjAddr: 0xC8F4, symBinAddr: 0x9AD1C, symSize: 0x250 }
  - { offset: 0x38D2AB, size: 0x8, addend: 0x0, symName: __ZNSt3__111basic_regexIcNS_12regex_traitsIcEEE23__parse_ERE_dupl_symbolIPKcEET_S7_S7_PNS_16__owns_one_stateIcEEjj, symObjAddr: 0xCB44, symBinAddr: 0x9AF6C, symSize: 0x3E4 }
  - { offset: 0x38D72A, size: 0x8, addend: 0x0, symName: __ZNSt3__111basic_regexIcNS_12regex_traitsIcEEE26__parse_bracket_expressionIPKcEET_S7_S7_, symObjAddr: 0xE858, symBinAddr: 0x9B4C8, symSize: 0x164 }
  - { offset: 0x38D8FE, size: 0x8, addend: 0x0, symName: __ZNSt3__111basic_regexIcNS_12regex_traitsIcEEE19__parse_atom_escapeIPKcEET_S7_S7_, symObjAddr: 0xE6E0, symBinAddr: 0x9B350, symSize: 0x178 }
  - { offset: 0x38DA6D, size: 0x8, addend: 0x0, symName: __ZNSt3__111basic_regexIcNS_12regex_traitsIcEEE26__parse_bracket_expressionIPKcEET_S7_S7_, symObjAddr: 0xE858, symBinAddr: 0x9B4C8, symSize: 0x164 }
  - { offset: 0x38DA81, size: 0x8, addend: 0x0, symName: __ZNSt3__111basic_regexIcNS_12regex_traitsIcEEE25__parse_pattern_characterIPKcEET_S7_S7_, symObjAddr: 0xEA08, symBinAddr: 0x9B62C, symSize: 0x7C }
  - { offset: 0x3925CF, size: 0x8, addend: 0x0, symName: __ZNSt3__111basic_regexIcNS_12regex_traitsIcEEE30__parse_character_class_escapeIPKcEET_S7_S7_, symObjAddr: 0xEB64, symBinAddr: 0x9B6A8, symSize: 0x274 }
  - { offset: 0x392A2A, size: 0x8, addend: 0x0, symName: __ZNSt3__111basic_regexIcNS_12regex_traitsIcEEE24__parse_character_escapeIPKcEET_S7_S7_PNS_12basic_stringIcNS_11char_traitsIcEENS_9allocatorIcEEEE, symObjAddr: 0xEDD8, symBinAddr: 0x9B91C, symSize: 0x40C }
  - { offset: 0x3935FA, size: 0x8, addend: 0x0, symName: __ZNSt3__111basic_regexIcNS_12regex_traitsIcEEE23__parse_expression_termIPKcEET_S7_S7_PNS_20__bracket_expressionIcS2_EE, symObjAddr: 0x110D4, symBinAddr: 0x9BD28, symSize: 0x568 }
  - { offset: 0x395F29, size: 0x8, addend: 0x0, symName: __ZNSt3__111basic_regexIcNS_12regex_traitsIcEEE25__parse_equivalence_classIPKcEET_S7_S7_PNS_20__bracket_expressionIcS2_EE, symObjAddr: 0x1163C, symBinAddr: 0x9C290, symSize: 0x280 }
  - { offset: 0x396A41, size: 0x8, addend: 0x0, symName: __ZNSt3__111basic_regexIcNS_12regex_traitsIcEEE18__parse_awk_escapeIPKcEET_S7_S7_PNS_12basic_stringIcNS_11char_traitsIcEENS_9allocatorIcEEEE, symObjAddr: 0x11B18, symBinAddr: 0x9C76C, symSize: 0x2E4 }
  - { offset: 0x396B66, size: 0x8, addend: 0x0, symName: __ZNSt3__111basic_regexIcNS_12regex_traitsIcEEE24__parse_collating_symbolIPKcEET_S7_S7_RNS_12basic_stringIcNS_11char_traitsIcEENS_9allocatorIcEEEE, symObjAddr: 0x118BC, symBinAddr: 0x9C510, symSize: 0xD8 }
  - { offset: 0x396F17, size: 0x8, addend: 0x0, symName: __ZNSt3__111basic_regexIcNS_12regex_traitsIcEEE20__parse_class_escapeIPKcEET_S7_S7_RNS_12basic_stringIcNS_11char_traitsIcEENS_9allocatorIcEEEEPNS_20__bracket_expressionIcS2_EE, symObjAddr: 0x11994, symBinAddr: 0x9C5E8, symSize: 0x184 }
  - { offset: 0x3974CE, size: 0x8, addend: 0x0, symName: __ZNKSt3__112regex_traitsIcE20__lookup_collatenameIPKcEENS_12basic_stringIcNS_11char_traitsIcEENS_9allocatorIcEEEET_SB_c, symObjAddr: 0x12498, symBinAddr: 0x9CA50, symSize: 0x254 }
  - { offset: 0x3980A5, size: 0x8, addend: 0x0, symName: __ZNKSt3__112regex_traitsIcE18__lookup_classnameIPKcEEjT_S5_bc, symObjAddr: 0x12B50, symBinAddr: 0x9CCA4, symSize: 0x160 }
  - { offset: 0x3987D6, size: 0x8, addend: 0x0, symName: __ZNSt3__111basic_regexIcNS_12regex_traitsIcEEE20__parse_class_escapeIPKcEET_S7_S7_RNS_12basic_stringIcNS_11char_traitsIcEENS_9allocatorIcEEEEPNS_20__bracket_expressionIcS2_EE, symObjAddr: 0x11994, symBinAddr: 0x9C5E8, symSize: 0x184 }
  - { offset: 0x39896E, size: 0x8, addend: 0x0, symName: __ZNSt3__111basic_regexIcNS_12regex_traitsIcEEE18__parse_awk_escapeIPKcEET_S7_S7_PNS_12basic_stringIcNS_11char_traitsIcEENS_9allocatorIcEEEE, symObjAddr: 0x11B18, symBinAddr: 0x9C76C, symSize: 0x2E4 }
  - { offset: 0x39BB4A, size: 0x8, addend: 0x0, symName: __ZNSt3__111basic_regexIcNS_12regex_traitsIcEEE32__parse_one_char_or_coll_elem_REIPKcEET_S7_S7_, symObjAddr: 0x13EE4, symBinAddr: 0x9D284, symSize: 0x124 }
  - { offset: 0x39BF1A, size: 0x8, addend: 0x0, symName: __ZNSt3__111basic_regexIcNS_12regex_traitsIcEEE22__parse_ERE_expressionIPKcEET_S7_S7_, symObjAddr: 0x1413C, symBinAddr: 0x9D3A8, symSize: 0x208 }
  - { offset: 0x39BF25, size: 0x8, addend: 0x0, symName: __ZNSt3__111basic_regexIcNS_12regex_traitsIcEEE33__parse_one_char_or_coll_elem_EREIPKcEET_S7_S7_, symObjAddr: 0x14344, symBinAddr: 0x9D5B0, symSize: 0x14C }
  - { offset: 0x39C0F4, size: 0x8, addend: 0x0, symName: __ZNSt3__111basic_regexIcNS_12regex_traitsIcEEE23__parse_QUOTED_CHAR_EREIPKcEET_S7_S7_, symObjAddr: 0x14490, symBinAddr: 0x9D6FC, symSize: 0xD8 }
  - { offset: 0x39C81B, size: 0x8, addend: 0x0, symName: __ZNKSt3__113match_resultsIPKcNS_9allocatorINS_9sub_matchIS2_EEEEE6formatINS_20back_insert_iteratorINS_12basic_stringIcNS_11char_traitsIcEENS3_IcEEEEEEEET_SG_S2_S2_NS_15regex_constants15match_flag_typeE, symObjAddr: 0x14804, symBinAddr: 0x9DA70, symSize: 0x28C }
  - { offset: 0x39CECB, size: 0x8, addend: 0x0, symName: __ZNSt3__114regex_iteratorIPKccNS_12regex_traitsIcEEEppEv, symObjAddr: 0x14A90, symBinAddr: 0x9DCFC, symSize: 0x128 }
  - { offset: 0x3A241A, size: 0x8, addend: 0x0, symName: __ZL26llama_sampler_grammar_namePK13llama_sampler, symObjAddr: 0x17394, symBinAddr: 0x9DE24, symSize: 0xC }
  - { offset: 0x3A393A, size: 0x8, addend: 0x0, symName: __ZL26llama_sampler_grammar_namePK13llama_sampler, symObjAddr: 0x17394, symBinAddr: 0x9DE24, symSize: 0xC }
  - { offset: 0x3A3963, size: 0x8, addend: 0x0, symName: __ZL33llama_sampler_grammar_accept_implP13llama_sampleri, symObjAddr: 0x173A0, symBinAddr: 0x9DE30, symSize: 0x14 }
  - { offset: 0x3A39D6, size: 0x8, addend: 0x0, symName: __ZL27llama_sampler_grammar_applyP13llama_samplerP22llama_token_data_array, symObjAddr: 0x173B4, symBinAddr: 0x9DE44, symSize: 0x14 }
  - { offset: 0x3A3EC9, size: 0x8, addend: 0x0, symName: __ZL27llama_sampler_grammar_resetP13llama_sampler, symObjAddr: 0x173C8, symBinAddr: 0x9DE58, symSize: 0x23C }
  - { offset: 0x3A4A13, size: 0x8, addend: 0x0, symName: __ZNKSt3__16vectorIPKcNS_9allocatorIS2_EEE20__throw_length_errorB8ne190107Ev, symObjAddr: 0x1771C, symBinAddr: 0x9E1AC, symSize: 0x14 }
  - { offset: 0x3A4A3D, size: 0x8, addend: 0x0, symName: __ZL28llama_sampler_penalties_namePK13llama_sampler, symObjAddr: 0x17730, symBinAddr: 0x9E1C0, symSize: 0xC }
  - { offset: 0x3A4B07, size: 0x8, addend: 0x0, symName: __ZL27llama_sampler_grammar_clonePK13llama_sampler, symObjAddr: 0x17604, symBinAddr: 0x9E094, symSize: 0x9C }
  - { offset: 0x3A4C70, size: 0x8, addend: 0x0, symName: __ZL26llama_sampler_grammar_freeP13llama_sampler, symObjAddr: 0x176A0, symBinAddr: 0x9E130, symSize: 0x7C }
  - { offset: 0x3A4F48, size: 0x8, addend: 0x0, symName: __ZL28llama_sampler_penalties_namePK13llama_sampler, symObjAddr: 0x17730, symBinAddr: 0x9E1C0, symSize: 0xC }
  - { offset: 0x3A5009, size: 0x8, addend: 0x0, symName: __ZL30llama_sampler_penalties_acceptP13llama_sampleri, symObjAddr: 0x1773C, symBinAddr: 0x9E1CC, symSize: 0x1B4 }
  - { offset: 0x3A51F5, size: 0x8, addend: 0x0, symName: __ZNSt3__112__hash_tableINS_17__hash_value_typeIiiEENS_22__unordered_map_hasherIiS2_NS_4hashIiEENS_8equal_toIiEELb1EEENS_21__unordered_map_equalIiS2_S7_S5_Lb1EEENS_9allocatorIS2_EEE25__emplace_unique_key_argsIiJRKNS_21piecewise_construct_tENS_5tupleIJRKiEEENSI_IJEEEEEENS_4pairINS_15__hash_iteratorIPNS_11__hash_nodeIS2_PvEEEEbEERKT_DpOT0_, symObjAddr: 0x17CC0, symBinAddr: 0x9E750, symSize: 0x328 }
  - { offset: 0x3A5962, size: 0x8, addend: 0x0, symName: __ZNSt3__112__hash_tableINS_17__hash_value_typeIiiEENS_22__unordered_map_hasherIiS2_NS_4hashIiEENS_8equal_toIiEELb1EEENS_21__unordered_map_equalIiS2_S7_S5_Lb1EEENS_9allocatorIS2_EEE14__erase_uniqueIiEEmRKT_, symObjAddr: 0x181C4, symBinAddr: 0x9EC54, symSize: 0x120 }
  - { offset: 0x3A59DC, size: 0x8, addend: 0x0, symName: __ZNSt3__112__hash_tableINS_17__hash_value_typeIiiEENS_22__unordered_map_hasherIiS2_NS_4hashIiEENS_8equal_toIiEELb1EEENS_21__unordered_map_equalIiS2_S7_S5_Lb1EEENS_9allocatorIS2_EEE14__erase_uniqueIiEEmRKT_, symObjAddr: 0x181C4, symBinAddr: 0x9EC54, symSize: 0x120 }
  - { offset: 0x3A59F8, size: 0x8, addend: 0x0, symName: __ZNSt3__112__hash_tableINS_17__hash_value_typeIiiEENS_22__unordered_map_hasherIiS2_NS_4hashIiEENS_8equal_toIiEELb1EEENS_21__unordered_map_equalIiS2_S7_S5_Lb1EEENS_9allocatorIS2_EEE14__erase_uniqueIiEEmRKT_, symObjAddr: 0x181C4, symBinAddr: 0x9EC54, symSize: 0x120 }
  - { offset: 0x3A5D72, size: 0x8, addend: 0x0, symName: __ZL29llama_sampler_penalties_applyP13llama_samplerP22llama_token_data_array, symObjAddr: 0x178F0, symBinAddr: 0x9E380, symSize: 0x1CC }
  - { offset: 0x3A5FC4, size: 0x8, addend: 0x0, symName: __ZL29llama_sampler_penalties_resetP13llama_sampler, symObjAddr: 0x17ABC, symBinAddr: 0x9E54C, symSize: 0x70 }
  - { offset: 0x3A62E9, size: 0x8, addend: 0x0, symName: __ZL29llama_sampler_penalties_clonePK13llama_sampler, symObjAddr: 0x17B2C, symBinAddr: 0x9E5BC, symSize: 0x114 }
  - { offset: 0x3A6789, size: 0x8, addend: 0x0, symName: __ZNSt3__16vectorIiNS_9allocatorIiEEE18__assign_with_sizeB8ne190107IPiS5_EEvT_T0_l, symObjAddr: 0x18418, symBinAddr: 0x9EEA8, symSize: 0x150 }
  - { offset: 0x3A71D2, size: 0x8, addend: 0x0, symName: __ZL30llama_sampler_top_n_sigma_namePK13llama_sampler, symObjAddr: 0x18568, symBinAddr: 0x9EFF8, symSize: 0xC }
  - { offset: 0x3A7287, size: 0x8, addend: 0x0, symName: __ZL28llama_sampler_penalties_freeP13llama_sampler, symObjAddr: 0x17C40, symBinAddr: 0x9E6D0, symSize: 0x80 }
  - { offset: 0x3A7BDE, size: 0x8, addend: 0x0, symName: __ZNSt3__112__hash_tableINS_17__hash_value_typeIiiEENS_22__unordered_map_hasherIiS2_NS_4hashIiEENS_8equal_toIiEELb1EEENS_21__unordered_map_equalIiS2_S7_S5_Lb1EEENS_9allocatorIS2_EEE11__do_rehashILb1EEEvm, symObjAddr: 0x17FE8, symBinAddr: 0x9EA78, symSize: 0x1DC }
  - { offset: 0x3A8084, size: 0x8, addend: 0x0, symName: __ZNSt3__112__hash_tableINS_17__hash_value_typeIiiEENS_22__unordered_map_hasherIiS2_NS_4hashIiEENS_8equal_toIiEELb1EEENS_21__unordered_map_equalIiS2_S7_S5_Lb1EEENS_9allocatorIS2_EEE14__erase_uniqueIiEEmRKT_, symObjAddr: 0x181C4, symBinAddr: 0x9EC54, symSize: 0x120 }
  - { offset: 0x3A8153, size: 0x8, addend: 0x0, symName: __ZNSt3__112__hash_tableINS_17__hash_value_typeIiiEENS_22__unordered_map_hasherIiS2_NS_4hashIiEENS_8equal_toIiEELb1EEENS_21__unordered_map_equalIiS2_S7_S5_Lb1EEENS_9allocatorIS2_EEE6removeENS_21__hash_const_iteratorIPNS_11__hash_nodeIS2_PvEEEE, symObjAddr: 0x182E4, symBinAddr: 0x9ED74, symSize: 0x134 }
  - { offset: 0x3A81C9, size: 0x8, addend: 0x0, symName: __ZNSt3__112__hash_tableINS_17__hash_value_typeIiiEENS_22__unordered_map_hasherIiS2_NS_4hashIiEENS_8equal_toIiEELb1EEENS_21__unordered_map_equalIiS2_S7_S5_Lb1EEENS_9allocatorIS2_EEE6removeENS_21__hash_const_iteratorIPNS_11__hash_nodeIS2_PvEEEE, symObjAddr: 0x182E4, symBinAddr: 0x9ED74, symSize: 0x134 }
  - { offset: 0x3A81E5, size: 0x8, addend: 0x0, symName: __ZNSt3__112__hash_tableINS_17__hash_value_typeIiiEENS_22__unordered_map_hasherIiS2_NS_4hashIiEENS_8equal_toIiEELb1EEENS_21__unordered_map_equalIiS2_S7_S5_Lb1EEENS_9allocatorIS2_EEE6removeENS_21__hash_const_iteratorIPNS_11__hash_nodeIS2_PvEEEE, symObjAddr: 0x182E4, symBinAddr: 0x9ED74, symSize: 0x134 }
  - { offset: 0x3A860E, size: 0x8, addend: 0x0, symName: __ZL30llama_sampler_top_n_sigma_namePK13llama_sampler, symObjAddr: 0x18568, symBinAddr: 0x9EFF8, symSize: 0xC }
  - { offset: 0x3A8637, size: 0x8, addend: 0x0, symName: __ZL31llama_sampler_top_n_sigma_applyP13llama_samplerP22llama_token_data_array, symObjAddr: 0x18574, symBinAddr: 0x9F004, symSize: 0x284 }
  - { offset: 0x3A8882, size: 0x8, addend: 0x0, symName: __ZL31llama_sampler_top_n_sigma_clonePK13llama_sampler, symObjAddr: 0x187F8, symBinAddr: 0x9F288, symSize: 0x4C }
  - { offset: 0x3A88B0, size: 0x8, addend: 0x0, symName: __ZL31llama_sampler_top_n_sigma_clonePK13llama_sampler, symObjAddr: 0x187F8, symBinAddr: 0x9F288, symSize: 0x4C }
  - { offset: 0x3A8934, size: 0x8, addend: 0x0, symName: __ZL30llama_sampler_top_n_sigma_freeP13llama_sampler, symObjAddr: 0x18844, symBinAddr: 0x9F2D4, symSize: 0x14 }
  - { offset: 0x3A8A7E, size: 0x8, addend: 0x0, symName: __ZNSt3__112__hash_tableINS_17__hash_value_typeIiNS_6vectorIiNS_9allocatorIiEEEEEENS_22__unordered_map_hasherIiS6_NS_4hashIiEENS_8equal_toIiEELb1EEENS_21__unordered_map_equalIiS6_SB_S9_Lb1EEENS3_IS6_EEE11__do_rehashILb0EEEvm, symObjAddr: 0x18C94, symBinAddr: 0x9F724, symSize: 0x20C }
  - { offset: 0x3A8F76, size: 0x8, addend: 0x0, symName: __ZL22llama_sampler_dry_namePK13llama_sampler, symObjAddr: 0x18EA0, symBinAddr: 0x9F930, symSize: 0xC }
  - { offset: 0x3A9009, size: 0x8, addend: 0x0, symName: __ZL22llama_sampler_dry_namePK13llama_sampler, symObjAddr: 0x18EA0, symBinAddr: 0x9F930, symSize: 0xC }
  - { offset: 0x3A9032, size: 0x8, addend: 0x0, symName: __ZL24llama_sampler_dry_acceptP13llama_sampleri, symObjAddr: 0x18EAC, symBinAddr: 0x9F93C, symSize: 0xDC }
  - { offset: 0x3A90DA, size: 0x8, addend: 0x0, symName: __ZL23llama_sampler_dry_applyP13llama_samplerP22llama_token_data_array, symObjAddr: 0x18F88, symBinAddr: 0x9FA18, symSize: 0xA68 }
  - { offset: 0x3A9FA0, size: 0x8, addend: 0x0, symName: __ZNSt3__16vectorIiNS_9allocatorIiEEE6assignEmRKi, symObjAddr: 0x19B8C, symBinAddr: 0xA061C, symSize: 0x1EC }
  - { offset: 0x3AA4CE, size: 0x8, addend: 0x0, symName: __ZNSt3__112__hash_tableINS_17__hash_value_typeIiNS_6vectorIiNS_9allocatorIiEEEEEENS_22__unordered_map_hasherIiS6_NS_4hashIiEENS_8equal_toIiEELb1EEENS_21__unordered_map_equalIiS6_SB_S9_Lb1EEENS3_IS6_EEE14__assign_multiINS_21__hash_const_iteratorIPNS_11__hash_nodeIS6_PvEEEEEEvT_SO_, symObjAddr: 0x19D78, symBinAddr: 0xA0808, symSize: 0x158 }
  - { offset: 0x3AA4E0, size: 0x8, addend: 0x0, symName: __ZL23llama_sampler_dry_resetP13llama_sampler, symObjAddr: 0x199F0, symBinAddr: 0xA0480, symSize: 0x78 }
  - { offset: 0x3AA8AE, size: 0x8, addend: 0x0, symName: __ZL23llama_sampler_dry_clonePK13llama_sampler, symObjAddr: 0x19A68, symBinAddr: 0xA04F8, symSize: 0x100 }
  - { offset: 0x3AABB9, size: 0x8, addend: 0x0, symName: __ZNSt3__112__hash_tableINS_17__hash_value_typeIiNS_6vectorIiNS_9allocatorIiEEEEEENS_22__unordered_map_hasherIiS6_NS_4hashIiEENS_8equal_toIiEELb1EEENS_21__unordered_map_equalIiS6_SB_S9_Lb1EEENS3_IS6_EEE14__assign_multiINS_21__hash_const_iteratorIPNS_11__hash_nodeIS6_PvEEEEEEvT_SO_, symObjAddr: 0x19D78, symBinAddr: 0xA0808, symSize: 0x158 }
  - { offset: 0x3AB220, size: 0x8, addend: 0x0, symName: __ZNSt3__112__hash_tableINS_17__hash_value_typeIiiEENS_22__unordered_map_hasherIiS2_NS_4hashIiEENS_8equal_toIiEELb1EEENS_21__unordered_map_equalIiS2_S7_S5_Lb1EEENS_9allocatorIS2_EEE14__assign_multiINS_21__hash_const_iteratorIPNS_11__hash_nodeIS2_PvEEEEEEvT_SL_, symObjAddr: 0x1A000, symBinAddr: 0xA0A90, symSize: 0x138 }
  - { offset: 0x3AB929, size: 0x8, addend: 0x0, symName: __ZL22llama_sampler_dry_freeP13llama_sampler, symObjAddr: 0x19B68, symBinAddr: 0xA05F8, symSize: 0x24 }
  - { offset: 0x3AB980, size: 0x8, addend: 0x0, symName: __ZN17llama_sampler_dryD2Ev, symObjAddr: 0x1A714, symBinAddr: 0xA11A4, symSize: 0xE0 }
  - { offset: 0x3AC70D, size: 0x8, addend: 0x0, symName: __ZNSt3__112__hash_tableINS_17__hash_value_typeIiNS_6vectorIiNS_9allocatorIiEEEEEENS_22__unordered_map_hasherIiS6_NS_4hashIiEENS_8equal_toIiEELb1EEENS_21__unordered_map_equalIiS6_SB_S9_Lb1EEENS3_IS6_EEE16__construct_nodeIJRKNS_4pairIKiS5_EEEEENS_10unique_ptrINS_11__hash_nodeIS6_PvEENS_22__hash_node_destructorINS3_ISQ_EEEEEEDpOT_, symObjAddr: 0x19F28, symBinAddr: 0xA09B8, symSize: 0xD8 }
  - { offset: 0x3ACE43, size: 0x8, addend: 0x0, symName: __ZNSt3__112__hash_tableINS_17__hash_value_typeIiNS_6vectorIiNS_9allocatorIiEEEEEENS_22__unordered_map_hasherIiS6_NS_4hashIiEENS_8equal_toIiEELb1EEENS_21__unordered_map_equalIiS6_SB_S9_Lb1EEENS3_IS6_EEE17__deallocate_nodeEPNS_16__hash_node_baseIPNS_11__hash_nodeIS6_PvEEEE, symObjAddr: 0x19ED0, symBinAddr: 0xA0960, symSize: 0x58 }
  - { offset: 0x3AD47C, size: 0x8, addend: 0x0, symName: __ZNSt3__112__hash_tableINS_17__hash_value_typeIiiEENS_22__unordered_map_hasherIiS2_NS_4hashIiEENS_8equal_toIiEELb1EEENS_21__unordered_map_equalIiS2_S7_S5_Lb1EEENS_9allocatorIS2_EEE19__node_insert_multiEPNS_11__hash_nodeIS2_PvEE, symObjAddr: 0x1A138, symBinAddr: 0xA0BC8, symSize: 0x124 }
  - { offset: 0x3AD6B7, size: 0x8, addend: 0x0, symName: __ZNSt3__112__hash_tableINS_17__hash_value_typeIiiEENS_22__unordered_map_hasherIiS2_NS_4hashIiEENS_8equal_toIiEELb1EEENS_21__unordered_map_equalIiS2_S7_S5_Lb1EEENS_9allocatorIS2_EEE27__node_insert_multi_prepareEmRS2_, symObjAddr: 0x1A25C, symBinAddr: 0xA0CEC, symSize: 0x2AC }
  - { offset: 0x3AD9E2, size: 0x8, addend: 0x0, symName: __ZNSt3__112__hash_tableINS_17__hash_value_typeIiiEENS_22__unordered_map_hasherIiS2_NS_4hashIiEENS_8equal_toIiEELb1EEENS_21__unordered_map_equalIiS2_S7_S5_Lb1EEENS_9allocatorIS2_EEE11__do_rehashILb0EEEvm, symObjAddr: 0x1A508, symBinAddr: 0xA0F98, symSize: 0x20C }
  - { offset: 0x3ADEDA, size: 0x8, addend: 0x0, symName: __ZN17llama_sampler_dryD2Ev, symObjAddr: 0x1A714, symBinAddr: 0xA11A4, symSize: 0xE0 }
  - { offset: 0x3ADEEF, size: 0x8, addend: 0x0, symName: __ZL29llama_sampler_logit_bias_namePK13llama_sampler, symObjAddr: 0x1A7F4, symBinAddr: 0xA1284, symSize: 0xC }
  - { offset: 0x3AE204, size: 0x8, addend: 0x0, symName: __ZL30llama_sampler_logit_bias_applyP13llama_samplerP22llama_token_data_array, symObjAddr: 0x1A800, symBinAddr: 0xA1290, symSize: 0x1F4 }
  - { offset: 0x3AE7F8, size: 0x8, addend: 0x0, symName: __ZL30llama_sampler_logit_bias_clonePK13llama_sampler, symObjAddr: 0x1A9F4, symBinAddr: 0xA1484, symSize: 0x18 }
  - { offset: 0x3AE803, size: 0x8, addend: 0x0, symName: __ZL30llama_sampler_logit_bias_clonePK13llama_sampler, symObjAddr: 0x1A9F4, symBinAddr: 0xA1484, symSize: 0x18 }
  - { offset: 0x3AE8E3, size: 0x8, addend: 0x0, symName: __ZL29llama_sampler_logit_bias_freeP13llama_sampler, symObjAddr: 0x1AA0C, symBinAddr: 0xA149C, symSize: 0x64 }
  - { offset: 0x3AEC69, size: 0x8, addend: 0x0, symName: __ZL25llama_sampler_infill_namePK13llama_sampler, symObjAddr: 0x1AA84, symBinAddr: 0xA1514, symSize: 0xC }
  - { offset: 0x3AEDE1, size: 0x8, addend: 0x0, symName: __ZL26llama_sampler_infill_applyP13llama_samplerP22llama_token_data_array, symObjAddr: 0x1AA90, symBinAddr: 0xA1520, symSize: 0x7D4 }
  - { offset: 0x3AF52C, size: 0x8, addend: 0x0, symName: __ZL26llama_sampler_infill_clonePK13llama_sampler, symObjAddr: 0x1B264, symBinAddr: 0xA1CF4, symSize: 0xC }
  - { offset: 0x3AF53F, size: 0x8, addend: 0x0, symName: __ZL26llama_sampler_infill_clonePK13llama_sampler, symObjAddr: 0x1B264, symBinAddr: 0xA1CF4, symSize: 0xC }
  - { offset: 0x3AF5CC, size: 0x8, addend: 0x0, symName: __ZL25llama_sampler_infill_freeP13llama_sampler, symObjAddr: 0x1B270, symBinAddr: 0xA1D00, symSize: 0x64 }
  - { offset: 0x3D40AF, size: 0x8, addend: 0x0, symName: '__ZNSt3__111__introsortINS_17_ClassicAlgPolicyERZN11llama_vocab4impl4loadER18llama_model_loaderRK6LLM_KVE3$_0PiLb0EEEvT1_SC_T0_NS_15iterator_traitsISC_E15difference_typeEb', symObjAddr: 0xF92C, symBinAddr: 0xB0CC4, symSize: 0x1164 }
  - { offset: 0x3D7790, size: 0x8, addend: 0x0, symName: '__ZNSt3__127__insertion_sort_incompleteB8ne190107INS_17_ClassicAlgPolicyERZN11llama_vocab4impl4loadER18llama_model_loaderRK6LLM_KVE3$_0PiEEbT1_SC_T0_', symObjAddr: 0x10A90, symBinAddr: 0xB1E28, symSize: 0x560 }
  - { offset: 0x3DB569, size: 0x8, addend: 0x0, symName: __ZNSt3__110__pop_heapB8ne190107INS_17_ClassicAlgPolicyEN14llm_bigram_spm10comparatorENS_11__wrap_iterIPS2_EEEEvT1_S7_RT0_NS_15iterator_traitsIS7_E15difference_typeE, symObjAddr: 0xC73C, symBinAddr: 0xAE0E0, symSize: 0x214 }
  - { offset: 0x3DBA7A, size: 0x8, addend: 0x0, symName: __ZNSt3__110__pop_heapB8ne190107INS_17_ClassicAlgPolicyEN14llm_bigram_bpe10comparatorENS_11__wrap_iterIPS2_EEEEvT1_S7_RT0_NS_15iterator_traitsIS7_E15difference_typeE, symObjAddr: 0xD1B4, symBinAddr: 0xAEB44, symSize: 0x214 }
  - { offset: 0x3DC507, size: 0x8, addend: 0x0, symName: __ZNSt3__1plB8ne190107IcNS_11char_traitsIcEENS_9allocatorIcEEEENS_12basic_stringIT_T0_T1_EERKS9_PKS6_, symObjAddr: 0xE1E4, symBinAddr: 0xAFB4C, symSize: 0xF0 }
  - { offset: 0x3DCEA5, size: 0x8, addend: 0x0, symName: __ZNSt3__19__sift_upB8ne190107INS_17_ClassicAlgPolicyERN14llm_bigram_bpe10comparatorENS_11__wrap_iterIPS2_EEEEvT1_S8_OT0_NS_15iterator_traitsIS8_E15difference_typeE, symObjAddr: 0xD030, symBinAddr: 0xAE9C0, symSize: 0x184 }
  - { offset: 0x3DEA88, size: 0x8, addend: 0x0, symName: '__ZNSt3__17__sort4B8ne190107INS_17_ClassicAlgPolicyERZN11llama_vocab4impl4loadER18llama_model_loaderRK6LLM_KVE3$_0PiEEvT1_SC_SC_SC_T0_', symObjAddr: 0x10FF0, symBinAddr: 0xB2388, symSize: 0x21C }
  - { offset: 0x3E298B, size: 0x8, addend: 0x0, symName: __ZNK11llama_vocab4impl14token_to_pieceEiPciib, symObjAddr: 0x8E50, symBinAddr: 0xAAA44, symSize: 0x4CC }
  - { offset: 0x3E34C3, size: 0x8, addend: 0x0, symName: __ZNK11llama_vocab13byte_to_tokenEh, symObjAddr: 0x3F00, symBinAddr: 0xA5B84, symSize: 0x2B0 }
  - { offset: 0x3E6C89, size: 0x8, addend: 0x0, symName: __ZN11llama_vocab4impl4loadER18llama_model_loaderRK6LLM_KV, symObjAddr: 0x0, symBinAddr: 0xA1D78, symSize: 0x3C60 }
  - { offset: 0x3F2D67, size: 0x8, addend: 0x0, symName: __ZNSt3__112__hash_tableINS_17__hash_value_typeINS_4pairINS_12basic_stringIcNS_11char_traitsIcEENS_9allocatorIcEEEES8_EEiEENS_22__unordered_map_hasherIS9_SA_N11llama_vocab4impl9pair_hashENS_8equal_toIS9_EELb1EEENS_21__unordered_map_equalIS9_SA_SG_SE_Lb1EEENS6_ISA_EEE25__emplace_unique_key_argsIS9_JS9_RiEEENS2_INS_15__hash_iteratorIPNS_11__hash_nodeISA_PvEEEEbEERKT_DpOT0_, symObjAddr: 0xE59C, symBinAddr: 0xAFDDC, symSize: 0x4CC }
  - { offset: 0x3F38AB, size: 0x8, addend: 0x0, symName: __ZNSt3__16vectorIN11llama_vocab10token_dataENS_9allocatorIS2_EEE8__appendEm, symObjAddr: 0xE3FC, symBinAddr: 0xAFC3C, symSize: 0x18C }
  - { offset: 0x3F410F, size: 0x8, addend: 0x0, symName: __ZNKSt3__16vectorIN11llama_vocab10token_dataENS_9allocatorIS2_EEE20__throw_length_errorB8ne190107Ev, symObjAddr: 0xE588, symBinAddr: 0xAFDC8, symSize: 0x14 }
  - { offset: 0x3F4131, size: 0x8, addend: 0x0, symName: __ZNSt3__16vectorIcNS_9allocatorIcEEE18__assign_with_sizeB8ne190107IPKcS6_EEvT_T0_l, symObjAddr: 0xF110, symBinAddr: 0xB0504, symSize: 0x140 }
  - { offset: 0x3F4B75, size: 0x8, addend: 0x0, symName: __ZNSt3__112__hash_tableINS_17__hash_value_typeINS_12basic_stringIcNS_11char_traitsIcEENS_9allocatorIcEEEEiEENS_22__unordered_map_hasherIS7_S8_NS_4hashIS7_EENS_8equal_toIS7_EELb1EEENS_21__unordered_map_equalIS7_S8_SD_SB_Lb1EEENS5_IS8_EEE25__emplace_unique_key_argsIS7_JRKNS_21piecewise_construct_tENS_5tupleIJRKS7_EEENSN_IJEEEEEENS_4pairINS_15__hash_iteratorIPNS_11__hash_nodeIS8_PvEEEEbEERKT_DpOT0_, symObjAddr: 0xF264, symBinAddr: 0xB0644, symSize: 0x438 }
  - { offset: 0x3F5532, size: 0x8, addend: 0x0, symName: __ZN11llama_vocab4impl14init_tokenizerE16llama_vocab_type, symObjAddr: 0x3D54, symBinAddr: 0xA59D8, symSize: 0x1AC }
  - { offset: 0x3F5732, size: 0x8, addend: 0x0, symName: __ZNK11llama_vocab4impl8tokenizeERKNSt3__112basic_stringIcNS1_11char_traitsIcEENS1_9allocatorIcEEEEbb, symObjAddr: 0x41C0, symBinAddr: 0xA5E34, symSize: 0x1424 }
  - { offset: 0x3FB9EA, size: 0x8, addend: 0x0, symName: __ZNK11llama_vocab4impl24token_to_piece_for_cacheEib, symObjAddr: 0x55E4, symBinAddr: 0xA7258, symSize: 0x148 }
  - { offset: 0x3FBEAD, size: 0x8, addend: 0x0, symName: __ZNSt3__16vectorINS_12basic_stringIcNS_11char_traitsIcEENS_9allocatorIcEEEENS4_IS6_EEEC2B8ne190107ESt16initializer_listIS6_E, symObjAddr: 0x11220, symBinAddr: 0xB25B8, symSize: 0x130 }
  - { offset: 0x3FC2A3, size: 0x8, addend: 0x0, symName: __ZNSt3__112__hash_tableINS_17__hash_value_typeINS_12basic_stringIcNS_11char_traitsIcEENS_9allocatorIcEEEEiEENS_22__unordered_map_hasherIS7_S8_NS_4hashIS7_EENS_8equal_toIS7_EELb1EEENS_21__unordered_map_equalIS7_S8_SD_SB_Lb1EEENS5_IS8_EEE4findIS7_EENS_15__hash_iteratorIPNS_11__hash_nodeIS8_PvEEEERKT_, symObjAddr: 0x12F94, symBinAddr: 0xB432C, symSize: 0x1B4 }
  - { offset: 0x3FC5B0, size: 0x8, addend: 0x0, symName: __ZNSt3__16vectorI10llm_symbolNS_9allocatorIS1_EEE18__assign_with_sizeB8ne190107IPS1_S6_EEvT_T0_l, symObjAddr: 0xD3DC, symBinAddr: 0xAED58, symSize: 0x184 }
  - { offset: 0x3FC5D3, size: 0x8, addend: 0x0, symName: __ZNSt3__16__treeINS_12__value_typeINS_12basic_stringIcNS_11char_traitsIcEENS_9allocatorIcEEEENS_4pairIiiEEEENS_19__map_value_compareIS7_SA_NS_4lessIS7_EELb1EEENS5_ISA_EEE7destroyEPNS_11__tree_nodeISA_PvEE, symObjAddr: 0xC964, symBinAddr: 0xAE2F4, symSize: 0x70 }
  - { offset: 0x3FC5DE, size: 0x8, addend: 0x0, symName: __ZNKSt3__16vectorIN11llama_vocab10token_dataENS_9allocatorIS2_EEE20__throw_out_of_rangeB8ne190107Ev, symObjAddr: 0x1120C, symBinAddr: 0xB25A4, symSize: 0x14 }
  - { offset: 0x3FC608, size: 0x8, addend: 0x0, symName: __ZNSt3__16vectorINS_12basic_stringIcNS_11char_traitsIcEENS_9allocatorIcEEEENS4_IS6_EEEC2B8ne190107ESt16initializer_listIS6_E, symObjAddr: 0x11220, symBinAddr: 0xB25B8, symSize: 0x130 }
  - { offset: 0x3FC64D, size: 0x8, addend: 0x0, symName: __ZNSt3__128__exception_guard_exceptionsINS_6vectorINS_12basic_stringIcNS_11char_traitsIcEENS_9allocatorIcEEEENS5_IS7_EEE16__destroy_vectorEED1B8ne190107Ev, symObjAddr: 0xDAF8, symBinAddr: 0xAF474, symSize: 0x94 }
  - { offset: 0x3FCD98, size: 0x8, addend: 0x0, symName: __ZN18llm_tokenizer_rwkvC2ERK11llama_vocab, symObjAddr: 0x12B88, symBinAddr: 0xB3F20, symSize: 0x184 }
  - { offset: 0x3FD3E4, size: 0x8, addend: 0x0, symName: __ZN17llm_tokenizer_bpeC2ERK11llama_vocab, symObjAddr: 0x113C4, symBinAddr: 0xB275C, symSize: 0xD9C }
  - { offset: 0x401ABD, size: 0x8, addend: 0x0, symName: __ZN17llm_tokenizer_ugmC2ERK11llama_vocabRKNSt3__16vectorIcNS3_9allocatorIcEEEE, symObjAddr: 0x1259C, symBinAddr: 0xB3934, symSize: 0x2D8 }
  - { offset: 0x403964, size: 0x8, addend: 0x0, symName: __ZNK11llama_vocab4impl22tokenizer_st_partitionERNSt3__112forward_listI23fragment_buffer_variantNS1_9allocatorIS3_EEEEb, symObjAddr: 0x5D34, symBinAddr: 0xA7928, symSize: 0x5E0 }
  - { offset: 0x405329, size: 0x8, addend: 0x0, symName: __ZN26llm_tokenizer_rwkv_session8tokenizeERKNSt3__112basic_stringIcNS0_11char_traitsIcEENS0_9allocatorIcEEEERNS0_6vectorIiNS4_IiEEEE, symObjAddr: 0x8B20, symBinAddr: 0xAA714, symSize: 0x2C8 }
  - { offset: 0x405EE7, size: 0x8, addend: 0x0, symName: __ZNSt3__112forward_listI23fragment_buffer_variantNS_9allocatorIS1_EEED1Ev, symObjAddr: 0x8DE8, symBinAddr: 0xAA9DC, symSize: 0x68 }
  - { offset: 0x405EF2, size: 0x8, addend: 0x0, symName: __ZNK25llm_tokenizer_bpe_session10append_bosERNSt3__16vectorIiNS0_9allocatorIiEEEE, symObjAddr: 0x6704, symBinAddr: 0xA82F8, symSize: 0x144 }
  - { offset: 0x40636B, size: 0x8, addend: 0x0, symName: __ZN25llm_tokenizer_bpe_session8tokenizeERKNSt3__112basic_stringIcNS0_11char_traitsIcEENS0_9allocatorIcEEEERNS0_6vectorIiNS4_IiEEEE, symObjAddr: 0x6848, symBinAddr: 0xA843C, symSize: 0x1170 }
  - { offset: 0x406376, size: 0x8, addend: 0x0, symName: __ZN25llm_tokenizer_bpe_session6appendEiRNSt3__16vectorIiNS0_9allocatorIiEEEE, symObjAddr: 0x79B8, symBinAddr: 0xA95AC, symSize: 0xEC }
  - { offset: 0x406787, size: 0x8, addend: 0x0, symName: __ZNK25llm_tokenizer_bpe_session10append_eosERNSt3__16vectorIiNS0_9allocatorIiEEEE, symObjAddr: 0x7AA4, symBinAddr: 0xA9698, symSize: 0x144 }
  - { offset: 0x406792, size: 0x8, addend: 0x0, symName: __ZN25llm_tokenizer_bpe_session8tokenizeERKNSt3__112basic_stringIcNS0_11char_traitsIcEENS0_9allocatorIcEEEERNS0_6vectorIiNS4_IiEEEE, symObjAddr: 0x6848, symBinAddr: 0xA843C, symSize: 0x1170 }
  - { offset: 0x40A9DE, size: 0x8, addend: 0x0, symName: __ZNK25llm_tokenizer_bpe_session10append_eosERNSt3__16vectorIiNS0_9allocatorIiEEEE, symObjAddr: 0x7AA4, symBinAddr: 0xA9698, symSize: 0x144 }
  - { offset: 0x40AE57, size: 0x8, addend: 0x0, symName: __ZN25llm_tokenizer_bpe_sessionD1Ev, symObjAddr: 0x7BE8, symBinAddr: 0xA97DC, symSize: 0xB0 }
  - { offset: 0x40AE62, size: 0x8, addend: 0x0, symName: __ZN25llm_tokenizer_wpm_session8tokenizeERKNSt3__112basic_stringIcNS0_11char_traitsIcEENS0_9allocatorIcEEEERNS0_6vectorIiNS4_IiEEEE, symObjAddr: 0x7C98, symBinAddr: 0xA988C, symSize: 0x804 }
  - { offset: 0x40CBDD, size: 0x8, addend: 0x0, symName: __ZN25llm_tokenizer_spm_session8tokenizeERKNSt3__112basic_stringIcNS0_11char_traitsIcEENS0_9allocatorIcEEEERNS0_6vectorIiNS4_IiEEEE, symObjAddr: 0x6380, symBinAddr: 0xA7F74, symSize: 0x328 }
  - { offset: 0x40D32F, size: 0x8, addend: 0x0, symName: __ZN25llm_tokenizer_spm_sessionD1Ev, symObjAddr: 0x66A8, symBinAddr: 0xA829C, symSize: 0x5C }
  - { offset: 0x40D33A, size: 0x8, addend: 0x0, symName: __ZNSt3__16__treeINS_12__value_typeINS_12basic_stringIcNS_11char_traitsIcEENS_9allocatorIcEEEENS_4pairIiiEEEENS_19__map_value_compareIS7_SA_NS_4lessIS7_EELb1EEENS5_ISA_EEE7destroyEPNS_11__tree_nodeISA_PvEE, symObjAddr: 0xC964, symBinAddr: 0xAE2F4, symSize: 0x70 }
  - { offset: 0x40D5DC, size: 0x8, addend: 0x0, symName: __ZN25llm_tokenizer_ugm_session8tokenizeERKNSt3__112basic_stringIcNS0_11char_traitsIcEENS0_9allocatorIcEEEERNS0_6vectorIiNS4_IiEEEE, symObjAddr: 0x849C, symBinAddr: 0xAA090, symSize: 0x684 }
  - { offset: 0x40E98F, size: 0x8, addend: 0x0, symName: __ZN25llm_tokenizer_spm_sessionD1Ev, symObjAddr: 0x66A8, symBinAddr: 0xA829C, symSize: 0x5C }
  - { offset: 0x40ED83, size: 0x8, addend: 0x0, symName: __ZN25llm_tokenizer_bpe_sessionD1Ev, symObjAddr: 0x7BE8, symBinAddr: 0xA97DC, symSize: 0xB0 }
  - { offset: 0x40F485, size: 0x8, addend: 0x0, symName: __ZNSt3__112forward_listI23fragment_buffer_variantNS_9allocatorIS1_EEED1Ev, symObjAddr: 0x8DE8, symBinAddr: 0xAA9DC, symSize: 0x68 }
  - { offset: 0x40F864, size: 0x8, addend: 0x0, symName: __ZNK11llama_vocab4impl8get_typeEv, symObjAddr: 0x57AC, symBinAddr: 0xA73A0, symSize: 0x8 }
  - { offset: 0x40F886, size: 0x8, addend: 0x0, symName: __ZNK11llama_vocab4impl9type_nameEv, symObjAddr: 0x57B4, symBinAddr: 0xA73A8, symSize: 0x120 }
  - { offset: 0x40FD42, size: 0x8, addend: 0x0, symName: __ZNK11llama_vocab4impl9is_normalEi, symObjAddr: 0x58D4, symBinAddr: 0xA74C8, symSize: 0x50 }
  - { offset: 0x40FD96, size: 0x8, addend: 0x0, symName: __ZNK11llama_vocab4impl10is_unknownEi, symObjAddr: 0x5924, symBinAddr: 0xA7518, symSize: 0x50 }
  - { offset: 0x40FDA9, size: 0x8, addend: 0x0, symName: __ZNK11llama_vocab4impl10is_unknownEi, symObjAddr: 0x5924, symBinAddr: 0xA7518, symSize: 0x50 }
  - { offset: 0x40FDFD, size: 0x8, addend: 0x0, symName: __ZNK11llama_vocab4impl10is_controlEi, symObjAddr: 0x5974, symBinAddr: 0xA7568, symSize: 0x50 }
  - { offset: 0x40FE10, size: 0x8, addend: 0x0, symName: __ZNK11llama_vocab4impl10is_controlEi, symObjAddr: 0x5974, symBinAddr: 0xA7568, symSize: 0x50 }
  - { offset: 0x40FE64, size: 0x8, addend: 0x0, symName: __ZNK11llama_vocab4impl7is_byteEi, symObjAddr: 0x59C4, symBinAddr: 0xA75B8, symSize: 0x50 }
  - { offset: 0x40FE77, size: 0x8, addend: 0x0, symName: __ZNK11llama_vocab4impl7is_byteEi, symObjAddr: 0x59C4, symBinAddr: 0xA75B8, symSize: 0x50 }
  - { offset: 0x40FECB, size: 0x8, addend: 0x0, symName: __ZNK11llama_vocab4impl15is_user_definedEi, symObjAddr: 0x5A14, symBinAddr: 0xA7608, symSize: 0x50 }
  - { offset: 0x40FEDE, size: 0x8, addend: 0x0, symName: __ZNK11llama_vocab4impl15is_user_definedEi, symObjAddr: 0x5A14, symBinAddr: 0xA7608, symSize: 0x50 }
  - { offset: 0x40FF32, size: 0x8, addend: 0x0, symName: __ZNK11llama_vocab4impl9is_unusedEi, symObjAddr: 0x5A64, symBinAddr: 0xA7658, symSize: 0x50 }
  - { offset: 0x40FF45, size: 0x8, addend: 0x0, symName: __ZNK11llama_vocab4impl9is_unusedEi, symObjAddr: 0x5A64, symBinAddr: 0xA7658, symSize: 0x50 }
  - { offset: 0x40FF99, size: 0x8, addend: 0x0, symName: __ZNK11llama_vocab4impl6is_eogEi, symObjAddr: 0x5AB4, symBinAddr: 0xA76A8, symSize: 0x4C }
  - { offset: 0x40FFAC, size: 0x8, addend: 0x0, symName: __ZNK11llama_vocab4impl6is_eogEi, symObjAddr: 0x5AB4, symBinAddr: 0xA76A8, symSize: 0x4C }
  - { offset: 0x410071, size: 0x8, addend: 0x0, symName: __ZNK11llama_vocab4impl13token_to_byteEi, symObjAddr: 0x5B00, symBinAddr: 0xA76F4, symSize: 0x1D0 }
  - { offset: 0x41052F, size: 0x8, addend: 0x0, symName: __ZNK11llama_vocab4impl14token_get_attrEi, symObjAddr: 0x5CD0, symBinAddr: 0xA78C4, symSize: 0x64 }
  - { offset: 0x410563, size: 0x8, addend: 0x0, symName: __ZNK11llama_vocab4impl14token_get_attrEi, symObjAddr: 0x5CD0, symBinAddr: 0xA78C4, symSize: 0x64 }
  - { offset: 0x4105DD, size: 0x8, addend: 0x0, symName: __ZNK11llama_vocab4impl22tokenizer_st_partitionERNSt3__112forward_listI23fragment_buffer_variantNS1_9allocatorIS3_EEEEb, symObjAddr: 0x5D34, symBinAddr: 0xA7928, symSize: 0x5E0 }
  - { offset: 0x410C01, size: 0x8, addend: 0x0, symName: __ZNK11llama_vocab14get_token_dataEi, symObjAddr: 0x6314, symBinAddr: 0xA7F08, symSize: 0x64 }
  - { offset: 0x410C98, size: 0x8, addend: 0x0, symName: __ZNK11llama_vocab14token_to_pieceEiPciib, symObjAddr: 0x6378, symBinAddr: 0xA7F6C, symSize: 0x8 }
  - { offset: 0x410CA3, size: 0x8, addend: 0x0, symName: __ZNK11llama_vocab14token_to_pieceEiPciib, symObjAddr: 0x6378, symBinAddr: 0xA7F6C, symSize: 0x8 }
  - { offset: 0x410CEF, size: 0x8, addend: 0x0, symName: __ZNK11llama_vocab14token_to_pieceEiPciib, symObjAddr: 0x6378, symBinAddr: 0xA7F6C, symSize: 0x8 }
  - { offset: 0x4110CC, size: 0x8, addend: 0x0, symName: __ZN25llm_tokenizer_spm_session14try_add_bigramEii, symObjAddr: 0xB95C, symBinAddr: 0xAD550, symSize: 0x238 }
  - { offset: 0x41180C, size: 0x8, addend: 0x0, symName: __ZN25llm_tokenizer_spm_session9resegmentER10llm_symbolRNSt3__16vectorIiNS2_9allocatorIiEEEE, symObjAddr: 0xBB94, symBinAddr: 0xAD788, symSize: 0x4B4 }
  - { offset: 0x412D12, size: 0x8, addend: 0x0, symName: __ZNKSt3__16vectorI10llm_symbolNS_9allocatorIS1_EEE20__throw_length_errorB8ne190107Ev, symObjAddr: 0xC048, symBinAddr: 0xADC3C, symSize: 0x14 }
  - { offset: 0x4136A6, size: 0x8, addend: 0x0, symName: __ZN25llm_tokenizer_bpe_session14add_new_bigramEii, symObjAddr: 0xC9D4, symBinAddr: 0xAE364, symSize: 0x3E8 }
  - { offset: 0x414A86, size: 0x8, addend: 0x0, symName: __ZNSt3__16vectorI10llm_symbolNS_9allocatorIS1_EEE18__assign_with_sizeB8ne190107IPS1_S6_EEvT_T0_l, symObjAddr: 0xD3DC, symBinAddr: 0xAED58, symSize: 0x184 }
  - { offset: 0x4154EC, size: 0x8, addend: 0x0, symName: __ZN25llm_tokenizer_wpm_session10preprocessERKNSt3__112basic_stringIcNS0_11char_traitsIcEENS0_9allocatorIcEEEE, symObjAddr: 0xD560, symBinAddr: 0xAEEDC, symSize: 0x598 }
  - { offset: 0x415D63, size: 0x8, addend: 0x0, symName: __ZN25llm_tokenizer_wpm_session10preprocessERKNSt3__112basic_stringIcNS0_11char_traitsIcEENS0_9allocatorIcEEEE, symObjAddr: 0xD560, symBinAddr: 0xAEEDC, symSize: 0x598 }
  - { offset: 0x41816C, size: 0x8, addend: 0x0, symName: __ZN25llm_tokenizer_ugm_session9normalizeERKNSt3__112basic_stringIcNS0_11char_traitsIcEENS0_9allocatorIcEEEEPS6_, symObjAddr: 0xDBA0, symBinAddr: 0xAF508, symSize: 0x334 }
  - { offset: 0x418A6F, size: 0x8, addend: 0x0, symName: __ZNKSt3__16vectorIN25llm_tokenizer_ugm_session17best_tokenizationENS_9allocatorIS2_EEE20__throw_length_errorB8ne190107Ev, symObjAddr: 0xE1D0, symBinAddr: 0xAFB38, symSize: 0x14 }
  - { offset: 0x418A99, size: 0x8, addend: 0x0, symName: __ZNSt3__1plB8ne190107IcNS_11char_traitsIcEENS_9allocatorIcEEEENS_12basic_stringIT_T0_T1_EERKS9_PKS6_, symObjAddr: 0xE1E4, symBinAddr: 0xAFB4C, symSize: 0xF0 }
  - { offset: 0x418CB9, size: 0x8, addend: 0x0, symName: __ZL25llama_unescape_rwkv_tokenRKNSt3__112basic_stringIcNS_11char_traitsIcEENS_9allocatorIcEEEE, symObjAddr: 0x96AC, symBinAddr: 0xAB2A0, symSize: 0x508 }
  - { offset: 0x41A25A, size: 0x8, addend: 0x0, symName: __ZL25llama_unescape_whitespaceRNSt3__112basic_stringIcNS_11char_traitsIcEENS_9allocatorIcEEEE, symObjAddr: 0x931C, symBinAddr: 0xAAF10, symSize: 0xE4 }
  - { offset: 0x41A91B, size: 0x8, addend: 0x0, symName: __ZL17llama_decode_textRKNSt3__112basic_stringIcNS_11char_traitsIcEENS_9allocatorIcEEEE, symObjAddr: 0x9400, symBinAddr: 0xAAFF4, symSize: 0x2AC }
  - { offset: 0x41B82D, size: 0x8, addend: 0x0, symName: __ZNKSt3__16vectorINS_12basic_stringIcNS_11char_traitsIcEENS_9allocatorIcEEEENS4_IS6_EEE20__throw_out_of_rangeB8ne190107Ev, symObjAddr: 0x12D88, symBinAddr: 0xB4120, symSize: 0x14 }
  - { offset: 0x41B857, size: 0x8, addend: 0x0, symName: __ZN11llama_vocab4implD2Ev, symObjAddr: 0x12D9C, symBinAddr: 0xB4134, symSize: 0x1F8 }
  - { offset: 0x41BE99, size: 0x8, addend: 0x0, symName: __ZNK11llama_vocab4impl14token_to_pieceEi, symObjAddr: 0x9BB4, symBinAddr: 0xAB7A8, symSize: 0x3C }
  - { offset: 0x41BEFE, size: 0x8, addend: 0x0, symName: __ZNK11llama_vocab4impl10detokenizeEPKiiPcibb, symObjAddr: 0x9BF0, symBinAddr: 0xAB7E4, symSize: 0x3CC }
  - { offset: 0x41BF09, size: 0x8, addend: 0x0, symName: __ZNK11llama_vocab4impl10detokenizeEPKiiPcibb, symObjAddr: 0x9BF0, symBinAddr: 0xAB7E4, symSize: 0x3CC }
  - { offset: 0x41C15A, size: 0x8, addend: 0x0, symName: __ZNK11llama_vocab4impl10print_infoEv, symObjAddr: 0x9FBC, symBinAddr: 0xABBB0, symSize: 0x5F8 }
  - { offset: 0x41C25D, size: 0x8, addend: 0x0, symName: __ZNK11llama_vocab4impl10print_infoEv, symObjAddr: 0x9FBC, symBinAddr: 0xABBB0, symSize: 0x5F8 }
  - { offset: 0x41D7C1, size: 0x8, addend: 0x0, symName: __ZNK11llama_vocab8n_tokensEv, symObjAddr: 0xA5B4, symBinAddr: 0xAC1A8, symSize: 0x14 }
  - { offset: 0x41D7E5, size: 0x8, addend: 0x0, symName: __ZNK11llama_vocab8n_tokensEv, symObjAddr: 0xA5B4, symBinAddr: 0xAC1A8, symSize: 0x14 }
  - { offset: 0x41DD87, size: 0x8, addend: 0x0, symName: __ZN11llama_vocabC2Ev, symObjAddr: 0xA5C8, symBinAddr: 0xAC1BC, symSize: 0xB0 }
  - { offset: 0x41E274, size: 0x8, addend: 0x0, symName: __ZN11llama_vocabC1Ev, symObjAddr: 0xA678, symBinAddr: 0xAC26C, symSize: 0xB0 }
  - { offset: 0x41E80A, size: 0x8, addend: 0x0, symName: __ZN11llama_vocabD2Ev, symObjAddr: 0xA728, symBinAddr: 0xAC31C, symSize: 0x40 }
  - { offset: 0x41E8EB, size: 0x8, addend: 0x0, symName: __ZN11llama_vocab4implD2Ev, symObjAddr: 0x12D9C, symBinAddr: 0xB4134, symSize: 0x1F8 }
  - { offset: 0x41FE0D, size: 0x8, addend: 0x0, symName: __ZN11llama_vocabD1Ev, symObjAddr: 0xA768, symBinAddr: 0xAC35C, symSize: 0x40 }
  - { offset: 0x41FF19, size: 0x8, addend: 0x0, symName: __ZN11llama_vocab4loadER18llama_model_loaderRK6LLM_KV, symObjAddr: 0xA7A8, symBinAddr: 0xAC39C, symSize: 0x8 }
  - { offset: 0x41FF61, size: 0x8, addend: 0x0, symName: __ZN11llama_vocab4loadER18llama_model_loaderRK6LLM_KV, symObjAddr: 0xA7A8, symBinAddr: 0xAC39C, symSize: 0x8 }
  - { offset: 0x41FF99, size: 0x8, addend: 0x0, symName: __ZNK11llama_vocab8get_typeEv, symObjAddr: 0xA7B0, symBinAddr: 0xAC3A4, symSize: 0xC }
  - { offset: 0x41FFBD, size: 0x8, addend: 0x0, symName: __ZNK11llama_vocab8get_typeEv, symObjAddr: 0xA7B0, symBinAddr: 0xAC3A4, symSize: 0xC }
  - { offset: 0x41FFD8, size: 0x8, addend: 0x0, symName: __ZNK11llama_vocab12get_pre_typeEv, symObjAddr: 0xA7BC, symBinAddr: 0xAC3B0, symSize: 0xC }
  - { offset: 0x41FFFC, size: 0x8, addend: 0x0, symName: __ZNK11llama_vocab12get_pre_typeEv, symObjAddr: 0xA7BC, symBinAddr: 0xAC3B0, symSize: 0xC }
  - { offset: 0x420017, size: 0x8, addend: 0x0, symName: __ZNK11llama_vocab13n_token_typesEv, symObjAddr: 0xA7C8, symBinAddr: 0xAC3BC, symSize: 0xC }
  - { offset: 0x420043, size: 0x8, addend: 0x0, symName: __ZNK11llama_vocab13n_token_typesEv, symObjAddr: 0xA7C8, symBinAddr: 0xAC3BC, symSize: 0xC }
  - { offset: 0x42005E, size: 0x8, addend: 0x0, symName: __ZNK11llama_vocab9type_nameEv, symObjAddr: 0xA7D4, symBinAddr: 0xAC3C8, symSize: 0x124 }
  - { offset: 0x420088, size: 0x8, addend: 0x0, symName: __ZNK11llama_vocab9type_nameEv, symObjAddr: 0xA7D4, symBinAddr: 0xAC3C8, symSize: 0x124 }
  - { offset: 0x42057F, size: 0x8, addend: 0x0, symName: __ZNK11llama_vocab9is_normalEi, symObjAddr: 0xA8F8, symBinAddr: 0xAC4EC, symSize: 0x54 }
  - { offset: 0x4205AC, size: 0x8, addend: 0x0, symName: __ZNK11llama_vocab9is_normalEi, symObjAddr: 0xA8F8, symBinAddr: 0xAC4EC, symSize: 0x54 }
  - { offset: 0x420607, size: 0x8, addend: 0x0, symName: __ZNK11llama_vocab10is_unknownEi, symObjAddr: 0xA94C, symBinAddr: 0xAC540, symSize: 0x54 }
  - { offset: 0x42063E, size: 0x8, addend: 0x0, symName: __ZNK11llama_vocab10is_unknownEi, symObjAddr: 0xA94C, symBinAddr: 0xAC540, symSize: 0x54 }
  - { offset: 0x42067A, size: 0x8, addend: 0x0, symName: __ZNK11llama_vocab10is_unknownEi, symObjAddr: 0xA94C, symBinAddr: 0xAC540, symSize: 0x54 }
  - { offset: 0x4206D5, size: 0x8, addend: 0x0, symName: __ZNK11llama_vocab10is_controlEi, symObjAddr: 0xA9A0, symBinAddr: 0xAC594, symSize: 0x54 }
  - { offset: 0x42070C, size: 0x8, addend: 0x0, symName: __ZNK11llama_vocab10is_controlEi, symObjAddr: 0xA9A0, symBinAddr: 0xAC594, symSize: 0x54 }
  - { offset: 0x420739, size: 0x8, addend: 0x0, symName: __ZNK11llama_vocab10is_controlEi, symObjAddr: 0xA9A0, symBinAddr: 0xAC594, symSize: 0x54 }
  - { offset: 0x420794, size: 0x8, addend: 0x0, symName: __ZNK11llama_vocab7is_byteEi, symObjAddr: 0xA9F4, symBinAddr: 0xAC5E8, symSize: 0x54 }
  - { offset: 0x4207A7, size: 0x8, addend: 0x0, symName: __ZNK11llama_vocab7is_byteEi, symObjAddr: 0xA9F4, symBinAddr: 0xAC5E8, symSize: 0x54 }
  - { offset: 0x4207E3, size: 0x8, addend: 0x0, symName: __ZNK11llama_vocab7is_byteEi, symObjAddr: 0xA9F4, symBinAddr: 0xAC5E8, symSize: 0x54 }
  - { offset: 0x42083E, size: 0x8, addend: 0x0, symName: __ZNK11llama_vocab15is_user_definedEi, symObjAddr: 0xAA48, symBinAddr: 0xAC63C, symSize: 0x54 }
  - { offset: 0x420851, size: 0x8, addend: 0x0, symName: __ZNK11llama_vocab15is_user_definedEi, symObjAddr: 0xAA48, symBinAddr: 0xAC63C, symSize: 0x54 }
  - { offset: 0x42087E, size: 0x8, addend: 0x0, symName: __ZNK11llama_vocab15is_user_definedEi, symObjAddr: 0xAA48, symBinAddr: 0xAC63C, symSize: 0x54 }
  - { offset: 0x4208D9, size: 0x8, addend: 0x0, symName: __ZNK11llama_vocab9is_unusedEi, symObjAddr: 0xAA9C, symBinAddr: 0xAC690, symSize: 0x54 }
  - { offset: 0x420910, size: 0x8, addend: 0x0, symName: __ZNK11llama_vocab9is_unusedEi, symObjAddr: 0xAA9C, symBinAddr: 0xAC690, symSize: 0x54 }
  - { offset: 0x42094C, size: 0x8, addend: 0x0, symName: __ZNK11llama_vocab9is_unusedEi, symObjAddr: 0xAA9C, symBinAddr: 0xAC690, symSize: 0x54 }
  - { offset: 0x4209A7, size: 0x8, addend: 0x0, symName: __ZNK11llama_vocab6is_eogEi, symObjAddr: 0xAAF0, symBinAddr: 0xAC6E4, symSize: 0x50 }
  - { offset: 0x4209DE, size: 0x8, addend: 0x0, symName: __ZNK11llama_vocab6is_eogEi, symObjAddr: 0xAAF0, symBinAddr: 0xAC6E4, symSize: 0x50 }
  - { offset: 0x420A7B, size: 0x8, addend: 0x0, symName: __ZNK11llama_vocab13token_to_byteEi, symObjAddr: 0xAB40, symBinAddr: 0xAC734, symSize: 0x8 }
  - { offset: 0x420AB5, size: 0x8, addend: 0x0, symName: __ZNK11llama_vocab13token_to_byteEi, symObjAddr: 0xAB40, symBinAddr: 0xAC734, symSize: 0x8 }
  - { offset: 0x420AE6, size: 0x8, addend: 0x0, symName: __ZNK11llama_vocab13text_to_tokenERKNSt3__112basic_stringIcNS0_11char_traitsIcEENS0_9allocatorIcEEEE, symObjAddr: 0xAB48, symBinAddr: 0xAC73C, symSize: 0x68 }
  - { offset: 0x420B64, size: 0x8, addend: 0x0, symName: __ZNK11llama_vocab14token_get_textEi, symObjAddr: 0xABB0, symBinAddr: 0xAC7A4, symSize: 0x74 }
  - { offset: 0x420B77, size: 0x8, addend: 0x0, symName: __ZNK11llama_vocab14token_get_textEi, symObjAddr: 0xABB0, symBinAddr: 0xAC7A4, symSize: 0x74 }
  - { offset: 0x420C82, size: 0x8, addend: 0x0, symName: __ZNK11llama_vocab15token_get_scoreEi, symObjAddr: 0xAC24, symBinAddr: 0xAC818, symSize: 0x68 }
  - { offset: 0x420C8D, size: 0x8, addend: 0x0, symName: __ZNK11llama_vocab15token_get_scoreEi, symObjAddr: 0xAC24, symBinAddr: 0xAC818, symSize: 0x68 }
  - { offset: 0x420D24, size: 0x8, addend: 0x0, symName: __ZNK11llama_vocab14token_get_attrEi, symObjAddr: 0xAC8C, symBinAddr: 0xAC880, symSize: 0x68 }
  - { offset: 0x420D2F, size: 0x8, addend: 0x0, symName: __ZNK11llama_vocab14token_get_attrEi, symObjAddr: 0xAC8C, symBinAddr: 0xAC880, symSize: 0x68 }
  - { offset: 0x420DDD, size: 0x8, addend: 0x0, symName: __ZNK11llama_vocab9token_bosEv, symObjAddr: 0xACF4, symBinAddr: 0xAC8E8, symSize: 0xC }
  - { offset: 0x420DE8, size: 0x8, addend: 0x0, symName: __ZNK11llama_vocab9token_bosEv, symObjAddr: 0xACF4, symBinAddr: 0xAC8E8, symSize: 0xC }
  - { offset: 0x420E0C, size: 0x8, addend: 0x0, symName: __ZNK11llama_vocab9token_bosEv, symObjAddr: 0xACF4, symBinAddr: 0xAC8E8, symSize: 0xC }
  - { offset: 0x420E27, size: 0x8, addend: 0x0, symName: __ZNK11llama_vocab9token_eosEv, symObjAddr: 0xAD00, symBinAddr: 0xAC8F4, symSize: 0xC }
  - { offset: 0x420E4B, size: 0x8, addend: 0x0, symName: __ZNK11llama_vocab9token_eosEv, symObjAddr: 0xAD00, symBinAddr: 0xAC8F4, symSize: 0xC }
  - { offset: 0x420E66, size: 0x8, addend: 0x0, symName: __ZNK11llama_vocab9token_eotEv, symObjAddr: 0xAD0C, symBinAddr: 0xAC900, symSize: 0xC }
  - { offset: 0x420E8A, size: 0x8, addend: 0x0, symName: __ZNK11llama_vocab9token_eotEv, symObjAddr: 0xAD0C, symBinAddr: 0xAC900, symSize: 0xC }
  - { offset: 0x420EA5, size: 0x8, addend: 0x0, symName: __ZNK11llama_vocab9token_eomEv, symObjAddr: 0xAD18, symBinAddr: 0xAC90C, symSize: 0xC }
  - { offset: 0x420ED1, size: 0x8, addend: 0x0, symName: __ZNK11llama_vocab9token_eomEv, symObjAddr: 0xAD18, symBinAddr: 0xAC90C, symSize: 0xC }
  - { offset: 0x420EEC, size: 0x8, addend: 0x0, symName: __ZNK11llama_vocab9token_unkEv, symObjAddr: 0xAD24, symBinAddr: 0xAC918, symSize: 0xC }
  - { offset: 0x420F10, size: 0x8, addend: 0x0, symName: __ZNK11llama_vocab9token_unkEv, symObjAddr: 0xAD24, symBinAddr: 0xAC918, symSize: 0xC }
  - { offset: 0x420F2B, size: 0x8, addend: 0x0, symName: __ZNK11llama_vocab9token_sepEv, symObjAddr: 0xAD30, symBinAddr: 0xAC924, symSize: 0xC }
  - { offset: 0x420F4F, size: 0x8, addend: 0x0, symName: __ZNK11llama_vocab9token_sepEv, symObjAddr: 0xAD30, symBinAddr: 0xAC924, symSize: 0xC }
  - { offset: 0x420F6A, size: 0x8, addend: 0x0, symName: __ZNK11llama_vocab8token_nlEv, symObjAddr: 0xAD3C, symBinAddr: 0xAC930, symSize: 0xC }
  - { offset: 0x420F8E, size: 0x8, addend: 0x0, symName: __ZNK11llama_vocab8token_nlEv, symObjAddr: 0xAD3C, symBinAddr: 0xAC930, symSize: 0xC }
  - { offset: 0x420FA9, size: 0x8, addend: 0x0, symName: __ZNK11llama_vocab9token_padEv, symObjAddr: 0xAD48, symBinAddr: 0xAC93C, symSize: 0xC }
  - { offset: 0x420FCD, size: 0x8, addend: 0x0, symName: __ZNK11llama_vocab9token_padEv, symObjAddr: 0xAD48, symBinAddr: 0xAC93C, symSize: 0xC }
  - { offset: 0x420FE8, size: 0x8, addend: 0x0, symName: __ZNK11llama_vocab12token_prefixEv, symObjAddr: 0xAD54, symBinAddr: 0xAC948, symSize: 0xC }
  - { offset: 0x421014, size: 0x8, addend: 0x0, symName: __ZNK11llama_vocab12token_prefixEv, symObjAddr: 0xAD54, symBinAddr: 0xAC948, symSize: 0xC }
  - { offset: 0x42102F, size: 0x8, addend: 0x0, symName: __ZNK11llama_vocab12token_middleEv, symObjAddr: 0xAD60, symBinAddr: 0xAC954, symSize: 0xC }
  - { offset: 0x42105B, size: 0x8, addend: 0x0, symName: __ZNK11llama_vocab12token_middleEv, symObjAddr: 0xAD60, symBinAddr: 0xAC954, symSize: 0xC }
  - { offset: 0x421076, size: 0x8, addend: 0x0, symName: __ZNK11llama_vocab12token_suffixEv, symObjAddr: 0xAD6C, symBinAddr: 0xAC960, symSize: 0xC }
  - { offset: 0x4210A2, size: 0x8, addend: 0x0, symName: __ZNK11llama_vocab12token_suffixEv, symObjAddr: 0xAD6C, symBinAddr: 0xAC960, symSize: 0xC }
  - { offset: 0x4210BD, size: 0x8, addend: 0x0, symName: __ZNK11llama_vocab13token_fim_preEv, symObjAddr: 0xAD78, symBinAddr: 0xAC96C, symSize: 0xC }
  - { offset: 0x4210E1, size: 0x8, addend: 0x0, symName: __ZNK11llama_vocab13token_fim_preEv, symObjAddr: 0xAD78, symBinAddr: 0xAC96C, symSize: 0xC }
  - { offset: 0x4210FC, size: 0x8, addend: 0x0, symName: __ZNK11llama_vocab13token_fim_sufEv, symObjAddr: 0xAD84, symBinAddr: 0xAC978, symSize: 0xC }
  - { offset: 0x421120, size: 0x8, addend: 0x0, symName: __ZNK11llama_vocab13token_fim_sufEv, symObjAddr: 0xAD84, symBinAddr: 0xAC978, symSize: 0xC }
  - { offset: 0x42113B, size: 0x8, addend: 0x0, symName: __ZNK11llama_vocab13token_fim_midEv, symObjAddr: 0xAD90, symBinAddr: 0xAC984, symSize: 0xC }
  - { offset: 0x42115F, size: 0x8, addend: 0x0, symName: __ZNK11llama_vocab13token_fim_midEv, symObjAddr: 0xAD90, symBinAddr: 0xAC984, symSize: 0xC }
  - { offset: 0x42117A, size: 0x8, addend: 0x0, symName: __ZNK11llama_vocab13token_fim_padEv, symObjAddr: 0xAD9C, symBinAddr: 0xAC990, symSize: 0xC }
  - { offset: 0x42119E, size: 0x8, addend: 0x0, symName: __ZNK11llama_vocab13token_fim_padEv, symObjAddr: 0xAD9C, symBinAddr: 0xAC990, symSize: 0xC }
  - { offset: 0x4211B9, size: 0x8, addend: 0x0, symName: __ZNK11llama_vocab13token_fim_repEv, symObjAddr: 0xADA8, symBinAddr: 0xAC99C, symSize: 0xC }
  - { offset: 0x4211DD, size: 0x8, addend: 0x0, symName: __ZNK11llama_vocab13token_fim_repEv, symObjAddr: 0xADA8, symBinAddr: 0xAC99C, symSize: 0xC }
  - { offset: 0x4211F8, size: 0x8, addend: 0x0, symName: __ZNK11llama_vocab13token_fim_sepEv, symObjAddr: 0xADB4, symBinAddr: 0xAC9A8, symSize: 0xC }
  - { offset: 0x42121C, size: 0x8, addend: 0x0, symName: __ZNK11llama_vocab13token_fim_sepEv, symObjAddr: 0xADB4, symBinAddr: 0xAC9A8, symSize: 0xC }
  - { offset: 0x421237, size: 0x8, addend: 0x0, symName: __ZNK11llama_vocab20get_add_space_prefixEv, symObjAddr: 0xADC0, symBinAddr: 0xAC9B4, symSize: 0xC }
  - { offset: 0x42125B, size: 0x8, addend: 0x0, symName: __ZNK11llama_vocab20get_add_space_prefixEv, symObjAddr: 0xADC0, symBinAddr: 0xAC9B4, symSize: 0xC }
  - { offset: 0x421276, size: 0x8, addend: 0x0, symName: __ZNK11llama_vocab11get_add_bosEv, symObjAddr: 0xADCC, symBinAddr: 0xAC9C0, symSize: 0xC }
  - { offset: 0x42129A, size: 0x8, addend: 0x0, symName: __ZNK11llama_vocab11get_add_bosEv, symObjAddr: 0xADCC, symBinAddr: 0xAC9C0, symSize: 0xC }
  - { offset: 0x4212B5, size: 0x8, addend: 0x0, symName: __ZNK11llama_vocab11get_add_eosEv, symObjAddr: 0xADD8, symBinAddr: 0xAC9CC, symSize: 0xC }
  - { offset: 0x4212D9, size: 0x8, addend: 0x0, symName: __ZNK11llama_vocab11get_add_eosEv, symObjAddr: 0xADD8, symBinAddr: 0xAC9CC, symSize: 0xC }
  - { offset: 0x4212F4, size: 0x8, addend: 0x0, symName: __ZNK11llama_vocab17get_ignore_mergesEv, symObjAddr: 0xADE4, symBinAddr: 0xAC9D8, symSize: 0xC }
  - { offset: 0x421318, size: 0x8, addend: 0x0, symName: __ZNK11llama_vocab17get_ignore_mergesEv, symObjAddr: 0xADE4, symBinAddr: 0xAC9D8, symSize: 0xC }
  - { offset: 0x421333, size: 0x8, addend: 0x0, symName: __ZNK11llama_vocab16get_clean_spacesEv, symObjAddr: 0xADF0, symBinAddr: 0xAC9E4, symSize: 0xC }
  - { offset: 0x42135F, size: 0x8, addend: 0x0, symName: __ZNK11llama_vocab16get_clean_spacesEv, symObjAddr: 0xADF0, symBinAddr: 0xAC9E4, symSize: 0xC }
  - { offset: 0x42137A, size: 0x8, addend: 0x0, symName: __ZNK11llama_vocab28get_remove_extra_whitespacesEv, symObjAddr: 0xADFC, symBinAddr: 0xAC9F0, symSize: 0xC }
  - { offset: 0x42139E, size: 0x8, addend: 0x0, symName: __ZNK11llama_vocab28get_remove_extra_whitespacesEv, symObjAddr: 0xADFC, symBinAddr: 0xAC9F0, symSize: 0xC }
  - { offset: 0x4213B9, size: 0x8, addend: 0x0, symName: __ZNK11llama_vocab22get_escape_whitespacesEv, symObjAddr: 0xAE08, symBinAddr: 0xAC9FC, symSize: 0xC }
  - { offset: 0x4213DD, size: 0x8, addend: 0x0, symName: __ZNK11llama_vocab22get_escape_whitespacesEv, symObjAddr: 0xAE08, symBinAddr: 0xAC9FC, symSize: 0xC }
  - { offset: 0x4213F8, size: 0x8, addend: 0x0, symName: __ZNK11llama_vocab30get_treat_whitespace_as_suffixEv, symObjAddr: 0xAE14, symBinAddr: 0xACA08, symSize: 0xC }
  - { offset: 0x42141C, size: 0x8, addend: 0x0, symName: __ZNK11llama_vocab30get_treat_whitespace_as_suffixEv, symObjAddr: 0xAE14, symBinAddr: 0xACA08, symSize: 0xC }
  - { offset: 0x421437, size: 0x8, addend: 0x0, symName: __ZNK11llama_vocab13max_token_lenEv, symObjAddr: 0xAE20, symBinAddr: 0xACA14, symSize: 0xC }
  - { offset: 0x42145B, size: 0x8, addend: 0x0, symName: __ZNK11llama_vocab13max_token_lenEv, symObjAddr: 0xAE20, symBinAddr: 0xACA14, symSize: 0xC }
  - { offset: 0x421518, size: 0x8, addend: 0x0, symName: __ZNK11llama_vocab13find_bpe_rankERKNSt3__112basic_stringIcNS0_11char_traitsIcEENS0_9allocatorIcEEEES8_, symObjAddr: 0xAE2C, symBinAddr: 0xACA20, symSize: 0x228 }
  - { offset: 0x421B48, size: 0x8, addend: 0x0, symName: __ZNSt3__112__hash_tableINS_17__hash_value_typeINS_4pairINS_12basic_stringIcNS_11char_traitsIcEENS_9allocatorIcEEEES8_EEiEENS_22__unordered_map_hasherIS9_SA_N11llama_vocab4impl9pair_hashENS_8equal_toIS9_EELb1EEENS_21__unordered_map_equalIS9_SA_SG_SE_Lb1EEENS6_ISA_EEE4findIS9_EENS_15__hash_iteratorIPNS_11__hash_nodeISA_PvEEEERKT_, symObjAddr: 0x13148, symBinAddr: 0xB44E0, symSize: 0x27C }
  - { offset: 0x422071, size: 0x8, addend: 0x0, symName: __ZNK11llama_vocab8tokenizeEPKciPiibb, symObjAddr: 0xB054, symBinAddr: 0xACC48, symSize: 0x1CC }
  - { offset: 0x4227CA, size: 0x8, addend: 0x0, symName: __ZNK11llama_vocab8tokenizeERKNSt3__112basic_stringIcNS0_11char_traitsIcEENS0_9allocatorIcEEEEbb, symObjAddr: 0xB220, symBinAddr: 0xACE14, symSize: 0x8 }
  - { offset: 0x42280D, size: 0x8, addend: 0x0, symName: __ZNK11llama_vocab8tokenizeERKNSt3__112basic_stringIcNS0_11char_traitsIcEENS0_9allocatorIcEEEEbb, symObjAddr: 0xB220, symBinAddr: 0xACE14, symSize: 0x8 }
  - { offset: 0x422877, size: 0x8, addend: 0x0, symName: __ZNK11llama_vocab14token_to_pieceEi, symObjAddr: 0xB228, symBinAddr: 0xACE1C, symSize: 0x40 }
  - { offset: 0x4228B3, size: 0x8, addend: 0x0, symName: __ZNK11llama_vocab14token_to_pieceEi, symObjAddr: 0xB228, symBinAddr: 0xACE1C, symSize: 0x40 }
  - { offset: 0x422928, size: 0x8, addend: 0x0, symName: __ZNK11llama_vocab10detokenizeEPKiiPcibb, symObjAddr: 0xB268, symBinAddr: 0xACE5C, symSize: 0x8 }
  - { offset: 0x422933, size: 0x8, addend: 0x0, symName: __ZNK11llama_vocab10detokenizeEPKiiPcibb, symObjAddr: 0xB268, symBinAddr: 0xACE5C, symSize: 0x8 }
  - { offset: 0x42298B, size: 0x8, addend: 0x0, symName: __ZNK11llama_vocab10detokenizeEPKiiPcibb, symObjAddr: 0xB268, symBinAddr: 0xACE5C, symSize: 0x8 }
  - { offset: 0x422A56, size: 0x8, addend: 0x0, symName: __ZNK11llama_vocab10detokenizeERKNSt3__16vectorIiNS0_9allocatorIiEEEEb, symObjAddr: 0xB270, symBinAddr: 0xACE64, symSize: 0x164 }
  - { offset: 0x422FBF, size: 0x8, addend: 0x0, symName: __ZNK11llama_vocab10print_infoEv, symObjAddr: 0xB3D4, symBinAddr: 0xACFC8, symSize: 0x8 }
  - { offset: 0x422FEB, size: 0x8, addend: 0x0, symName: __ZNK11llama_vocab10print_infoEv, symObjAddr: 0xB3D4, symBinAddr: 0xACFC8, symSize: 0x8 }
  - { offset: 0x423014, size: 0x8, addend: 0x0, symName: _llama_vocab_n_tokens, symObjAddr: 0xB3DC, symBinAddr: 0xACFD0, symSize: 0x14 }
  - { offset: 0x423034, size: 0x8, addend: 0x0, symName: _llama_vocab_n_tokens, symObjAddr: 0xB3DC, symBinAddr: 0xACFD0, symSize: 0x14 }
  - { offset: 0x423050, size: 0x8, addend: 0x0, symName: _llama_vocab_n_tokens, symObjAddr: 0xB3DC, symBinAddr: 0xACFD0, symSize: 0x14 }
  - { offset: 0x4230A6, size: 0x8, addend: 0x0, symName: _llama_n_vocab, symObjAddr: 0xB3F0, symBinAddr: 0xACFE4, symSize: 0x14 }
  - { offset: 0x4230D4, size: 0x8, addend: 0x0, symName: _llama_n_vocab, symObjAddr: 0xB3F0, symBinAddr: 0xACFE4, symSize: 0x14 }
  - { offset: 0x4230F0, size: 0x8, addend: 0x0, symName: _llama_n_vocab, symObjAddr: 0xB3F0, symBinAddr: 0xACFE4, symSize: 0x14 }
  - { offset: 0x42310C, size: 0x8, addend: 0x0, symName: _llama_n_vocab, symObjAddr: 0xB3F0, symBinAddr: 0xACFE4, symSize: 0x14 }
  - { offset: 0x423148, size: 0x8, addend: 0x0, symName: _llama_vocab_type, symObjAddr: 0xB404, symBinAddr: 0xACFF8, symSize: 0xC }
  - { offset: 0x423176, size: 0x8, addend: 0x0, symName: _llama_vocab_type, symObjAddr: 0xB404, symBinAddr: 0xACFF8, symSize: 0xC }
  - { offset: 0x423192, size: 0x8, addend: 0x0, symName: _llama_vocab_type, symObjAddr: 0xB404, symBinAddr: 0xACFF8, symSize: 0xC }
  - { offset: 0x4231D3, size: 0x8, addend: 0x0, symName: _llama_vocab_get_text, symObjAddr: 0xB410, symBinAddr: 0xAD004, symSize: 0x74 }
  - { offset: 0x4232FA, size: 0x8, addend: 0x0, symName: _llama_vocab_get_score, symObjAddr: 0xB484, symBinAddr: 0xAD078, symSize: 0x68 }
  - { offset: 0x42332A, size: 0x8, addend: 0x0, symName: _llama_vocab_get_score, symObjAddr: 0xB484, symBinAddr: 0xAD078, symSize: 0x68 }
  - { offset: 0x4233DD, size: 0x8, addend: 0x0, symName: _llama_vocab_get_attr, symObjAddr: 0xB4EC, symBinAddr: 0xAD0E0, symSize: 0x68 }
  - { offset: 0x42340D, size: 0x8, addend: 0x0, symName: _llama_vocab_get_attr, symObjAddr: 0xB4EC, symBinAddr: 0xAD0E0, symSize: 0x68 }
  - { offset: 0x4234D7, size: 0x8, addend: 0x0, symName: _llama_vocab_is_eog, symObjAddr: 0xB554, symBinAddr: 0xAD148, symSize: 0x50 }
  - { offset: 0x423507, size: 0x8, addend: 0x0, symName: _llama_vocab_is_eog, symObjAddr: 0xB554, symBinAddr: 0xAD148, symSize: 0x50 }
  - { offset: 0x4235E5, size: 0x8, addend: 0x0, symName: _llama_vocab_is_control, symObjAddr: 0xB5A4, symBinAddr: 0xAD198, symSize: 0x54 }
  - { offset: 0x42362D, size: 0x8, addend: 0x0, symName: _llama_vocab_is_control, symObjAddr: 0xB5A4, symBinAddr: 0xAD198, symSize: 0x54 }
  - { offset: 0x423689, size: 0x8, addend: 0x0, symName: _llama_vocab_bos, symObjAddr: 0xB5F8, symBinAddr: 0xAD1EC, symSize: 0xC }
  - { offset: 0x42369C, size: 0x8, addend: 0x0, symName: _llama_vocab_bos, symObjAddr: 0xB5F8, symBinAddr: 0xAD1EC, symSize: 0xC }
  - { offset: 0x4236BC, size: 0x8, addend: 0x0, symName: _llama_vocab_bos, symObjAddr: 0xB5F8, symBinAddr: 0xAD1EC, symSize: 0xC }
  - { offset: 0x4236D8, size: 0x8, addend: 0x0, symName: _llama_vocab_bos, symObjAddr: 0xB5F8, symBinAddr: 0xAD1EC, symSize: 0xC }
  - { offset: 0x4236F4, size: 0x8, addend: 0x0, symName: _llama_vocab_eos, symObjAddr: 0xB604, symBinAddr: 0xAD1F8, symSize: 0xC }
  - { offset: 0x423714, size: 0x8, addend: 0x0, symName: _llama_vocab_eos, symObjAddr: 0xB604, symBinAddr: 0xAD1F8, symSize: 0xC }
  - { offset: 0x423730, size: 0x8, addend: 0x0, symName: _llama_vocab_eos, symObjAddr: 0xB604, symBinAddr: 0xAD1F8, symSize: 0xC }
  - { offset: 0x423765, size: 0x8, addend: 0x0, symName: _llama_vocab_eot, symObjAddr: 0xB610, symBinAddr: 0xAD204, symSize: 0xC }
  - { offset: 0x423785, size: 0x8, addend: 0x0, symName: _llama_vocab_eot, symObjAddr: 0xB610, symBinAddr: 0xAD204, symSize: 0xC }
  - { offset: 0x4237A1, size: 0x8, addend: 0x0, symName: _llama_vocab_eot, symObjAddr: 0xB610, symBinAddr: 0xAD204, symSize: 0xC }
  - { offset: 0x4237BD, size: 0x8, addend: 0x0, symName: _llama_vocab_cls, symObjAddr: 0xB61C, symBinAddr: 0xAD210, symSize: 0xC }
  - { offset: 0x4237EB, size: 0x8, addend: 0x0, symName: _llama_vocab_cls, symObjAddr: 0xB61C, symBinAddr: 0xAD210, symSize: 0xC }
  - { offset: 0x423807, size: 0x8, addend: 0x0, symName: _llama_vocab_cls, symObjAddr: 0xB61C, symBinAddr: 0xAD210, symSize: 0xC }
  - { offset: 0x42383C, size: 0x8, addend: 0x0, symName: _llama_vocab_sep, symObjAddr: 0xB628, symBinAddr: 0xAD21C, symSize: 0xC }
  - { offset: 0x42385C, size: 0x8, addend: 0x0, symName: _llama_vocab_sep, symObjAddr: 0xB628, symBinAddr: 0xAD21C, symSize: 0xC }
  - { offset: 0x423878, size: 0x8, addend: 0x0, symName: _llama_vocab_sep, symObjAddr: 0xB628, symBinAddr: 0xAD21C, symSize: 0xC }
  - { offset: 0x4238AD, size: 0x8, addend: 0x0, symName: _llama_vocab_nl, symObjAddr: 0xB634, symBinAddr: 0xAD228, symSize: 0xC }
  - { offset: 0x4238CD, size: 0x8, addend: 0x0, symName: _llama_vocab_nl, symObjAddr: 0xB634, symBinAddr: 0xAD228, symSize: 0xC }
  - { offset: 0x4238E9, size: 0x8, addend: 0x0, symName: _llama_vocab_nl, symObjAddr: 0xB634, symBinAddr: 0xAD228, symSize: 0xC }
  - { offset: 0x42391E, size: 0x8, addend: 0x0, symName: _llama_vocab_pad, symObjAddr: 0xB640, symBinAddr: 0xAD234, symSize: 0xC }
  - { offset: 0x42393E, size: 0x8, addend: 0x0, symName: _llama_vocab_pad, symObjAddr: 0xB640, symBinAddr: 0xAD234, symSize: 0xC }
  - { offset: 0x42395A, size: 0x8, addend: 0x0, symName: _llama_vocab_pad, symObjAddr: 0xB640, symBinAddr: 0xAD234, symSize: 0xC }
  - { offset: 0x423976, size: 0x8, addend: 0x0, symName: _llama_vocab_get_add_bos, symObjAddr: 0xB64C, symBinAddr: 0xAD240, symSize: 0xC }
  - { offset: 0x423996, size: 0x8, addend: 0x0, symName: _llama_vocab_get_add_bos, symObjAddr: 0xB64C, symBinAddr: 0xAD240, symSize: 0xC }
  - { offset: 0x4239B2, size: 0x8, addend: 0x0, symName: _llama_vocab_get_add_bos, symObjAddr: 0xB64C, symBinAddr: 0xAD240, symSize: 0xC }
  - { offset: 0x4239CE, size: 0x8, addend: 0x0, symName: _llama_vocab_get_add_eos, symObjAddr: 0xB658, symBinAddr: 0xAD24C, symSize: 0xC }
  - { offset: 0x4239EE, size: 0x8, addend: 0x0, symName: _llama_vocab_get_add_eos, symObjAddr: 0xB658, symBinAddr: 0xAD24C, symSize: 0xC }
  - { offset: 0x423A0A, size: 0x8, addend: 0x0, symName: _llama_vocab_get_add_eos, symObjAddr: 0xB658, symBinAddr: 0xAD24C, symSize: 0xC }
  - { offset: 0x423A3F, size: 0x8, addend: 0x0, symName: _llama_vocab_fim_pre, symObjAddr: 0xB664, symBinAddr: 0xAD258, symSize: 0xC }
  - { offset: 0x423A5F, size: 0x8, addend: 0x0, symName: _llama_vocab_fim_pre, symObjAddr: 0xB664, symBinAddr: 0xAD258, symSize: 0xC }
  - { offset: 0x423A7B, size: 0x8, addend: 0x0, symName: _llama_vocab_fim_pre, symObjAddr: 0xB664, symBinAddr: 0xAD258, symSize: 0xC }
  - { offset: 0x423AB0, size: 0x8, addend: 0x0, symName: _llama_vocab_fim_suf, symObjAddr: 0xB670, symBinAddr: 0xAD264, symSize: 0xC }
  - { offset: 0x423AD0, size: 0x8, addend: 0x0, symName: _llama_vocab_fim_suf, symObjAddr: 0xB670, symBinAddr: 0xAD264, symSize: 0xC }
  - { offset: 0x423AEC, size: 0x8, addend: 0x0, symName: _llama_vocab_fim_suf, symObjAddr: 0xB670, symBinAddr: 0xAD264, symSize: 0xC }
  - { offset: 0x423B21, size: 0x8, addend: 0x0, symName: _llama_vocab_fim_mid, symObjAddr: 0xB67C, symBinAddr: 0xAD270, symSize: 0xC }
  - { offset: 0x423B41, size: 0x8, addend: 0x0, symName: _llama_vocab_fim_mid, symObjAddr: 0xB67C, symBinAddr: 0xAD270, symSize: 0xC }
  - { offset: 0x423B5D, size: 0x8, addend: 0x0, symName: _llama_vocab_fim_mid, symObjAddr: 0xB67C, symBinAddr: 0xAD270, symSize: 0xC }
  - { offset: 0x423B92, size: 0x8, addend: 0x0, symName: _llama_vocab_fim_pad, symObjAddr: 0xB688, symBinAddr: 0xAD27C, symSize: 0xC }
  - { offset: 0x423BB2, size: 0x8, addend: 0x0, symName: _llama_vocab_fim_pad, symObjAddr: 0xB688, symBinAddr: 0xAD27C, symSize: 0xC }
  - { offset: 0x423BCE, size: 0x8, addend: 0x0, symName: _llama_vocab_fim_pad, symObjAddr: 0xB688, symBinAddr: 0xAD27C, symSize: 0xC }
  - { offset: 0x423C03, size: 0x8, addend: 0x0, symName: _llama_vocab_fim_rep, symObjAddr: 0xB694, symBinAddr: 0xAD288, symSize: 0xC }
  - { offset: 0x423C23, size: 0x8, addend: 0x0, symName: _llama_vocab_fim_rep, symObjAddr: 0xB694, symBinAddr: 0xAD288, symSize: 0xC }
  - { offset: 0x423C3F, size: 0x8, addend: 0x0, symName: _llama_vocab_fim_rep, symObjAddr: 0xB694, symBinAddr: 0xAD288, symSize: 0xC }
  - { offset: 0x423C74, size: 0x8, addend: 0x0, symName: _llama_vocab_fim_sep, symObjAddr: 0xB6A0, symBinAddr: 0xAD294, symSize: 0xC }
  - { offset: 0x423C94, size: 0x8, addend: 0x0, symName: _llama_vocab_fim_sep, symObjAddr: 0xB6A0, symBinAddr: 0xAD294, symSize: 0xC }
  - { offset: 0x423CB0, size: 0x8, addend: 0x0, symName: _llama_vocab_fim_sep, symObjAddr: 0xB6A0, symBinAddr: 0xAD294, symSize: 0xC }
  - { offset: 0x423CF3, size: 0x8, addend: 0x0, symName: _llama_token_get_text, symObjAddr: 0xB6AC, symBinAddr: 0xAD2A0, symSize: 0x74 }
  - { offset: 0x423E4F, size: 0x8, addend: 0x0, symName: _llama_token_get_score, symObjAddr: 0xB720, symBinAddr: 0xAD314, symSize: 0x68 }
  - { offset: 0x423E81, size: 0x8, addend: 0x0, symName: _llama_token_get_score, symObjAddr: 0xB720, symBinAddr: 0xAD314, symSize: 0x68 }
  - { offset: 0x423F69, size: 0x8, addend: 0x0, symName: _llama_token_get_attr, symObjAddr: 0xB788, symBinAddr: 0xAD37C, symSize: 0x68 }
  - { offset: 0x423F9B, size: 0x8, addend: 0x0, symName: _llama_token_get_attr, symObjAddr: 0xB788, symBinAddr: 0xAD37C, symSize: 0x68 }
  - { offset: 0x42409A, size: 0x8, addend: 0x0, symName: _llama_token_is_eog, symObjAddr: 0xB7F0, symBinAddr: 0xAD3E4, symSize: 0x50 }
  - { offset: 0x4240CC, size: 0x8, addend: 0x0, symName: _llama_token_is_eog, symObjAddr: 0xB7F0, symBinAddr: 0xAD3E4, symSize: 0x50 }
  - { offset: 0x4241E1, size: 0x8, addend: 0x0, symName: _llama_token_is_control, symObjAddr: 0xB840, symBinAddr: 0xAD434, symSize: 0x54 }
  - { offset: 0x42425D, size: 0x8, addend: 0x0, symName: _llama_token_is_control, symObjAddr: 0xB840, symBinAddr: 0xAD434, symSize: 0x54 }
  - { offset: 0x4242BA, size: 0x8, addend: 0x0, symName: _llama_token_bos, symObjAddr: 0xB894, symBinAddr: 0xAD488, symSize: 0xC }
  - { offset: 0x4242E8, size: 0x8, addend: 0x0, symName: _llama_token_bos, symObjAddr: 0xB894, symBinAddr: 0xAD488, symSize: 0xC }
  - { offset: 0x424316, size: 0x8, addend: 0x0, symName: _llama_token_bos, symObjAddr: 0xB894, symBinAddr: 0xAD488, symSize: 0xC }
  - { offset: 0x424332, size: 0x8, addend: 0x0, symName: _llama_token_bos, symObjAddr: 0xB894, symBinAddr: 0xAD488, symSize: 0xC }
  - { offset: 0x42434E, size: 0x8, addend: 0x0, symName: _llama_token_bos, symObjAddr: 0xB894, symBinAddr: 0xAD488, symSize: 0xC }
  - { offset: 0x424386, size: 0x8, addend: 0x0, symName: _llama_token_eos, symObjAddr: 0xB8A0, symBinAddr: 0xAD494, symSize: 0xC }
  - { offset: 0x4243B4, size: 0x8, addend: 0x0, symName: _llama_token_eos, symObjAddr: 0xB8A0, symBinAddr: 0xAD494, symSize: 0xC }
  - { offset: 0x4243D0, size: 0x8, addend: 0x0, symName: _llama_token_eos, symObjAddr: 0xB8A0, symBinAddr: 0xAD494, symSize: 0xC }
  - { offset: 0x4243EC, size: 0x8, addend: 0x0, symName: _llama_token_eos, symObjAddr: 0xB8A0, symBinAddr: 0xAD494, symSize: 0xC }
  - { offset: 0x424424, size: 0x8, addend: 0x0, symName: _llama_token_eot, symObjAddr: 0xB8AC, symBinAddr: 0xAD4A0, symSize: 0xC }
  - { offset: 0x424452, size: 0x8, addend: 0x0, symName: _llama_token_eot, symObjAddr: 0xB8AC, symBinAddr: 0xAD4A0, symSize: 0xC }
  - { offset: 0x42446E, size: 0x8, addend: 0x0, symName: _llama_token_eot, symObjAddr: 0xB8AC, symBinAddr: 0xAD4A0, symSize: 0xC }
  - { offset: 0x42448A, size: 0x8, addend: 0x0, symName: _llama_token_eot, symObjAddr: 0xB8AC, symBinAddr: 0xAD4A0, symSize: 0xC }
  - { offset: 0x4244A7, size: 0x8, addend: 0x0, symName: _llama_token_cls, symObjAddr: 0xB8B8, symBinAddr: 0xAD4AC, symSize: 0xC }
  - { offset: 0x4244D5, size: 0x8, addend: 0x0, symName: _llama_token_cls, symObjAddr: 0xB8B8, symBinAddr: 0xAD4AC, symSize: 0xC }
  - { offset: 0x4244F1, size: 0x8, addend: 0x0, symName: _llama_token_cls, symObjAddr: 0xB8B8, symBinAddr: 0xAD4AC, symSize: 0xC }
  - { offset: 0x42450D, size: 0x8, addend: 0x0, symName: _llama_token_cls, symObjAddr: 0xB8B8, symBinAddr: 0xAD4AC, symSize: 0xC }
  - { offset: 0x424545, size: 0x8, addend: 0x0, symName: _llama_token_sep, symObjAddr: 0xB8C4, symBinAddr: 0xAD4B8, symSize: 0xC }
  - { offset: 0x424573, size: 0x8, addend: 0x0, symName: _llama_token_sep, symObjAddr: 0xB8C4, symBinAddr: 0xAD4B8, symSize: 0xC }
  - { offset: 0x42458F, size: 0x8, addend: 0x0, symName: _llama_token_sep, symObjAddr: 0xB8C4, symBinAddr: 0xAD4B8, symSize: 0xC }
  - { offset: 0x4245AB, size: 0x8, addend: 0x0, symName: _llama_token_sep, symObjAddr: 0xB8C4, symBinAddr: 0xAD4B8, symSize: 0xC }
  - { offset: 0x4245E3, size: 0x8, addend: 0x0, symName: _llama_token_nl, symObjAddr: 0xB8D0, symBinAddr: 0xAD4C4, symSize: 0xC }
  - { offset: 0x424611, size: 0x8, addend: 0x0, symName: _llama_token_nl, symObjAddr: 0xB8D0, symBinAddr: 0xAD4C4, symSize: 0xC }
  - { offset: 0x42462D, size: 0x8, addend: 0x0, symName: _llama_token_nl, symObjAddr: 0xB8D0, symBinAddr: 0xAD4C4, symSize: 0xC }
  - { offset: 0x424649, size: 0x8, addend: 0x0, symName: _llama_token_nl, symObjAddr: 0xB8D0, symBinAddr: 0xAD4C4, symSize: 0xC }
  - { offset: 0x424681, size: 0x8, addend: 0x0, symName: _llama_token_pad, symObjAddr: 0xB8DC, symBinAddr: 0xAD4D0, symSize: 0xC }
  - { offset: 0x4246AF, size: 0x8, addend: 0x0, symName: _llama_token_pad, symObjAddr: 0xB8DC, symBinAddr: 0xAD4D0, symSize: 0xC }
  - { offset: 0x4246CB, size: 0x8, addend: 0x0, symName: _llama_token_pad, symObjAddr: 0xB8DC, symBinAddr: 0xAD4D0, symSize: 0xC }
  - { offset: 0x4246E7, size: 0x8, addend: 0x0, symName: _llama_token_pad, symObjAddr: 0xB8DC, symBinAddr: 0xAD4D0, symSize: 0xC }
  - { offset: 0x42471F, size: 0x8, addend: 0x0, symName: _llama_add_bos_token, symObjAddr: 0xB8E8, symBinAddr: 0xAD4DC, symSize: 0xC }
  - { offset: 0x42474D, size: 0x8, addend: 0x0, symName: _llama_add_bos_token, symObjAddr: 0xB8E8, symBinAddr: 0xAD4DC, symSize: 0xC }
  - { offset: 0x424769, size: 0x8, addend: 0x0, symName: _llama_add_bos_token, symObjAddr: 0xB8E8, symBinAddr: 0xAD4DC, symSize: 0xC }
  - { offset: 0x424785, size: 0x8, addend: 0x0, symName: _llama_add_bos_token, symObjAddr: 0xB8E8, symBinAddr: 0xAD4DC, symSize: 0xC }
  - { offset: 0x4247BD, size: 0x8, addend: 0x0, symName: _llama_add_eos_token, symObjAddr: 0xB8F4, symBinAddr: 0xAD4E8, symSize: 0xC }
  - { offset: 0x4247EB, size: 0x8, addend: 0x0, symName: _llama_add_eos_token, symObjAddr: 0xB8F4, symBinAddr: 0xAD4E8, symSize: 0xC }
  - { offset: 0x424807, size: 0x8, addend: 0x0, symName: _llama_add_eos_token, symObjAddr: 0xB8F4, symBinAddr: 0xAD4E8, symSize: 0xC }
  - { offset: 0x424823, size: 0x8, addend: 0x0, symName: _llama_add_eos_token, symObjAddr: 0xB8F4, symBinAddr: 0xAD4E8, symSize: 0xC }
  - { offset: 0x42485B, size: 0x8, addend: 0x0, symName: _llama_token_fim_pre, symObjAddr: 0xB900, symBinAddr: 0xAD4F4, symSize: 0xC }
  - { offset: 0x424889, size: 0x8, addend: 0x0, symName: _llama_token_fim_pre, symObjAddr: 0xB900, symBinAddr: 0xAD4F4, symSize: 0xC }
  - { offset: 0x4248A5, size: 0x8, addend: 0x0, symName: _llama_token_fim_pre, symObjAddr: 0xB900, symBinAddr: 0xAD4F4, symSize: 0xC }
  - { offset: 0x4248C1, size: 0x8, addend: 0x0, symName: _llama_token_fim_pre, symObjAddr: 0xB900, symBinAddr: 0xAD4F4, symSize: 0xC }
  - { offset: 0x4248F9, size: 0x8, addend: 0x0, symName: _llama_token_fim_suf, symObjAddr: 0xB90C, symBinAddr: 0xAD500, symSize: 0xC }
  - { offset: 0x424927, size: 0x8, addend: 0x0, symName: _llama_token_fim_suf, symObjAddr: 0xB90C, symBinAddr: 0xAD500, symSize: 0xC }
  - { offset: 0x424943, size: 0x8, addend: 0x0, symName: _llama_token_fim_suf, symObjAddr: 0xB90C, symBinAddr: 0xAD500, symSize: 0xC }
  - { offset: 0x42495F, size: 0x8, addend: 0x0, symName: _llama_token_fim_suf, symObjAddr: 0xB90C, symBinAddr: 0xAD500, symSize: 0xC }
  - { offset: 0x424997, size: 0x8, addend: 0x0, symName: _llama_token_fim_mid, symObjAddr: 0xB918, symBinAddr: 0xAD50C, symSize: 0xC }
  - { offset: 0x4249C5, size: 0x8, addend: 0x0, symName: _llama_token_fim_mid, symObjAddr: 0xB918, symBinAddr: 0xAD50C, symSize: 0xC }
  - { offset: 0x4249E1, size: 0x8, addend: 0x0, symName: _llama_token_fim_mid, symObjAddr: 0xB918, symBinAddr: 0xAD50C, symSize: 0xC }
  - { offset: 0x4249FD, size: 0x8, addend: 0x0, symName: _llama_token_fim_mid, symObjAddr: 0xB918, symBinAddr: 0xAD50C, symSize: 0xC }
  - { offset: 0x424A35, size: 0x8, addend: 0x0, symName: _llama_token_fim_pad, symObjAddr: 0xB924, symBinAddr: 0xAD518, symSize: 0xC }
  - { offset: 0x424A63, size: 0x8, addend: 0x0, symName: _llama_token_fim_pad, symObjAddr: 0xB924, symBinAddr: 0xAD518, symSize: 0xC }
  - { offset: 0x424A7F, size: 0x8, addend: 0x0, symName: _llama_token_fim_pad, symObjAddr: 0xB924, symBinAddr: 0xAD518, symSize: 0xC }
  - { offset: 0x424A9B, size: 0x8, addend: 0x0, symName: _llama_token_fim_pad, symObjAddr: 0xB924, symBinAddr: 0xAD518, symSize: 0xC }
  - { offset: 0x424AD3, size: 0x8, addend: 0x0, symName: _llama_token_fim_rep, symObjAddr: 0xB930, symBinAddr: 0xAD524, symSize: 0xC }
  - { offset: 0x424B01, size: 0x8, addend: 0x0, symName: _llama_token_fim_rep, symObjAddr: 0xB930, symBinAddr: 0xAD524, symSize: 0xC }
  - { offset: 0x424B1D, size: 0x8, addend: 0x0, symName: _llama_token_fim_rep, symObjAddr: 0xB930, symBinAddr: 0xAD524, symSize: 0xC }
  - { offset: 0x424B39, size: 0x8, addend: 0x0, symName: _llama_token_fim_rep, symObjAddr: 0xB930, symBinAddr: 0xAD524, symSize: 0xC }
  - { offset: 0x424B71, size: 0x8, addend: 0x0, symName: _llama_token_fim_sep, symObjAddr: 0xB93C, symBinAddr: 0xAD530, symSize: 0xC }
  - { offset: 0x424B9F, size: 0x8, addend: 0x0, symName: _llama_token_fim_sep, symObjAddr: 0xB93C, symBinAddr: 0xAD530, symSize: 0xC }
  - { offset: 0x424BBB, size: 0x8, addend: 0x0, symName: _llama_token_fim_sep, symObjAddr: 0xB93C, symBinAddr: 0xAD530, symSize: 0xC }
  - { offset: 0x424BD7, size: 0x8, addend: 0x0, symName: _llama_token_fim_sep, symObjAddr: 0xB93C, symBinAddr: 0xAD530, symSize: 0xC }
  - { offset: 0x424BF4, size: 0x8, addend: 0x0, symName: _llama_tokenize, symObjAddr: 0xB948, symBinAddr: 0xAD53C, symSize: 0x4 }
  - { offset: 0x424C7F, size: 0x8, addend: 0x0, symName: _llama_tokenize, symObjAddr: 0xB948, symBinAddr: 0xAD53C, symSize: 0x4 }
  - { offset: 0x424CBC, size: 0x8, addend: 0x0, symName: _llama_token_to_piece, symObjAddr: 0xB94C, symBinAddr: 0xAD540, symSize: 0x8 }
  - { offset: 0x424D35, size: 0x8, addend: 0x0, symName: _llama_token_to_piece, symObjAddr: 0xB94C, symBinAddr: 0xAD540, symSize: 0x8 }
  - { offset: 0x424D7B, size: 0x8, addend: 0x0, symName: _llama_token_to_piece, symObjAddr: 0xB94C, symBinAddr: 0xAD540, symSize: 0x8 }
  - { offset: 0x424DC9, size: 0x8, addend: 0x0, symName: _llama_detokenize, symObjAddr: 0xB954, symBinAddr: 0xAD548, symSize: 0x8 }
  - { offset: 0x424E55, size: 0x8, addend: 0x0, symName: _llama_detokenize, symObjAddr: 0xB954, symBinAddr: 0xAD548, symSize: 0x8 }
  - { offset: 0x424EA7, size: 0x8, addend: 0x0, symName: _llama_detokenize, symObjAddr: 0xB954, symBinAddr: 0xAD548, symSize: 0x8 }
  - { offset: 0x424F47, size: 0x8, addend: 0x0, symName: __ZNSt3__114priority_queueI14llm_bigram_spmNS_6vectorIS1_NS_9allocatorIS1_EEEENS1_10comparatorEE4pushERKS1_, symObjAddr: 0xC0F8, symBinAddr: 0xADC50, symSize: 0x25C }
  - { offset: 0x4254A6, size: 0x8, addend: 0x0, symName: __ZNKSt3__16vectorI14llm_bigram_spmNS_9allocatorIS1_EEE20__throw_length_errorB8ne190107Ev, symObjAddr: 0xC354, symBinAddr: 0xADEAC, symSize: 0x14 }
  - { offset: 0x4254B1, size: 0x8, addend: 0x0, symName: __ZNSt3__16__treeINS_12__value_typeINS_12basic_stringIcNS_11char_traitsIcEENS_9allocatorIcEEEENS_4pairIiiEEEENS_19__map_value_compareIS7_SA_NS_4lessIS7_EELb1EEENS5_ISA_EEE25__emplace_unique_key_argsIS7_JRKNS_21piecewise_construct_tENS_5tupleIJRKS7_EEENSL_IJEEEEEENS8_INS_15__tree_iteratorISA_PNS_11__tree_nodeISA_PvEElEEbEERKT_DpOT0_, symObjAddr: 0xC368, symBinAddr: 0xADEC0, symSize: 0x1B4 }
  - { offset: 0x42615B, size: 0x8, addend: 0x0, symName: __ZNKSt3__16vectorI14llm_bigram_spmNS_9allocatorIS1_EEE20__throw_length_errorB8ne190107Ev, symObjAddr: 0xC354, symBinAddr: 0xADEAC, symSize: 0x14 }
  - { offset: 0x426185, size: 0x8, addend: 0x0, symName: __ZNSt3__16__treeINS_12__value_typeINS_12basic_stringIcNS_11char_traitsIcEENS_9allocatorIcEEEENS_4pairIiiEEEENS_19__map_value_compareIS7_SA_NS_4lessIS7_EELb1EEENS5_ISA_EEE25__emplace_unique_key_argsIS7_JRKNS_21piecewise_construct_tENS_5tupleIJRKS7_EEENSL_IJEEEEEENS8_INS_15__tree_iteratorISA_PNS_11__tree_nodeISA_PvEElEEbEERKT_DpOT0_, symObjAddr: 0xC368, symBinAddr: 0xADEC0, symSize: 0x1B4 }
  - { offset: 0x426699, size: 0x8, addend: 0x0, symName: __ZNSt3__110unique_ptrINS_11__tree_nodeINS_12__value_typeINS_12basic_stringIcNS_11char_traitsIcEENS_9allocatorIcEEEENS_4pairIiiEEEEPvEENS_22__tree_node_destructorINS6_ISD_EEEEED1B8ne190107Ev, symObjAddr: 0xC51C, symBinAddr: 0xAE074, symSize: 0x6C }
  - { offset: 0x426D4D, size: 0x8, addend: 0x0, symName: __ZNSt3__16vectorI14llm_bigram_bpeNS_9allocatorIS1_EEE21__push_back_slow_pathIRKS1_EEPS1_OT_, symObjAddr: 0xCDBC, symBinAddr: 0xAE74C, symSize: 0x1EC }
  - { offset: 0x42783D, size: 0x8, addend: 0x0, symName: __ZNKSt3__16vectorI14llm_bigram_bpeNS_9allocatorIS1_EEE20__throw_length_errorB8ne190107Ev, symObjAddr: 0xD01C, symBinAddr: 0xAE9AC, symSize: 0x14 }
  - { offset: 0x427867, size: 0x8, addend: 0x0, symName: __ZNSt3__19__sift_upB8ne190107INS_17_ClassicAlgPolicyERN14llm_bigram_bpe10comparatorENS_11__wrap_iterIPS2_EEEEvT1_S8_OT0_NS_15iterator_traitsIS8_E15difference_typeE, symObjAddr: 0xD030, symBinAddr: 0xAE9C0, symSize: 0x184 }
  - { offset: 0x427872, size: 0x8, addend: 0x0, symName: __ZNSt3__114__split_bufferI14llm_bigram_bpeRNS_9allocatorIS1_EEED1Ev, symObjAddr: 0xCFA8, symBinAddr: 0xAE938, symSize: 0x74 }
  - { offset: 0x428279, size: 0x8, addend: 0x0, symName: __ZN25llm_tokenizer_ugm_session9normalizeERKNSt3__112basic_stringIcNS0_11char_traitsIcEENS0_9allocatorIcEEEEPS6_, symObjAddr: 0xDBA0, symBinAddr: 0xAF508, symSize: 0x334 }
  - { offset: 0x428348, size: 0x8, addend: 0x0, symName: __ZN25llm_tokenizer_ugm_session16normalize_prefixERKNSt3__112basic_stringIcNS0_11char_traitsIcEENS0_9allocatorIcEEEEm, symObjAddr: 0xDED4, symBinAddr: 0xAF83C, symSize: 0x2FC }
  - { offset: 0x428D35, size: 0x8, addend: 0x0, symName: __ZNKSt3__16vectorIN11llama_vocab10token_dataENS_9allocatorIS2_EEE20__throw_length_errorB8ne190107Ev, symObjAddr: 0xE588, symBinAddr: 0xAFDC8, symSize: 0x14 }
  - { offset: 0x428D5F, size: 0x8, addend: 0x0, symName: __ZNSt3__112__hash_tableINS_17__hash_value_typeINS_4pairINS_12basic_stringIcNS_11char_traitsIcEENS_9allocatorIcEEEES8_EEiEENS_22__unordered_map_hasherIS9_SA_N11llama_vocab4impl9pair_hashENS_8equal_toIS9_EELb1EEENS_21__unordered_map_equalIS9_SA_SG_SE_Lb1EEENS6_ISA_EEE25__emplace_unique_key_argsIS9_JS9_RiEEENS2_INS_15__hash_iteratorIPNS_11__hash_nodeISA_PvEEEEbEERKT_DpOT0_, symObjAddr: 0xE59C, symBinAddr: 0xAFDDC, symSize: 0x4CC }
  - { offset: 0x4292E5, size: 0x8, addend: 0x0, symName: __ZNSt3__112__hash_tableINS_17__hash_value_typeINS_4pairINS_12basic_stringIcNS_11char_traitsIcEENS_9allocatorIcEEEES8_EEiEENS_22__unordered_map_hasherIS9_SA_N11llama_vocab4impl9pair_hashENS_8equal_toIS9_EELb1EEENS_21__unordered_map_equalIS9_SA_SG_SE_Lb1EEENS6_ISA_EEE11__do_rehashILb1EEEvm, symObjAddr: 0xEF34, symBinAddr: 0xB0328, symSize: 0x1DC }
  - { offset: 0x42978B, size: 0x8, addend: 0x0, symName: __ZNSt3__16vectorIcNS_9allocatorIcEEE18__assign_with_sizeB8ne190107IPKcS6_EEvT_T0_l, symObjAddr: 0xF110, symBinAddr: 0xB0504, symSize: 0x140 }
  - { offset: 0x4297A0, size: 0x8, addend: 0x0, symName: __ZNSt3__110unique_ptrINS_11__hash_nodeINS_17__hash_value_typeINS_4pairINS_12basic_stringIcNS_11char_traitsIcEENS_9allocatorIcEEEES9_EEiEEPvEENS_22__hash_node_destructorINS7_ISD_EEEEED1B8ne190107Ev, symObjAddr: 0xEA68, symBinAddr: 0xB02A8, symSize: 0x80 }
  - { offset: 0x42A278, size: 0x8, addend: 0x0, symName: __ZNSt3__112__hash_tableINS_17__hash_value_typeINS_12basic_stringIcNS_11char_traitsIcEENS_9allocatorIcEEEEiEENS_22__unordered_map_hasherIS7_S8_NS_4hashIS7_EENS_8equal_toIS7_EELb1EEENS_21__unordered_map_equalIS7_S8_SD_SB_Lb1EEENS5_IS8_EEE25__emplace_unique_key_argsIS7_JRKNS_21piecewise_construct_tENS_5tupleIJRKS7_EEENSN_IJEEEEEENS_4pairINS_15__hash_iteratorIPNS_11__hash_nodeIS8_PvEEEEbEERKT_DpOT0_, symObjAddr: 0xF264, symBinAddr: 0xB0644, symSize: 0x438 }
  - { offset: 0x42A7E3, size: 0x8, addend: 0x0, symName: __ZNSt3__112__hash_tableINS_17__hash_value_typeINS_12basic_stringIcNS_11char_traitsIcEENS_9allocatorIcEEEEiEENS_22__unordered_map_hasherIS7_S8_NS_4hashIS7_EENS_8equal_toIS7_EELb1EEENS_21__unordered_map_equalIS7_S8_SD_SB_Lb1EEENS5_IS8_EEE11__do_rehashILb1EEEvm, symObjAddr: 0xF708, symBinAddr: 0xB0AE8, symSize: 0x1DC }
  - { offset: 0x42AC9E, size: 0x8, addend: 0x0, symName: __ZNSt3__110unique_ptrINS_11__hash_nodeINS_17__hash_value_typeINS_12basic_stringIcNS_11char_traitsIcEENS_9allocatorIcEEEEiEEPvEENS_22__hash_node_destructorINS6_ISB_EEEEED1B8ne190107Ev, symObjAddr: 0xF69C, symBinAddr: 0xB0A7C, symSize: 0x6C }
  - { offset: 0x42B3D4, size: 0x8, addend: 0x0, symName: __ZNSt3__128__exception_guard_exceptionsINS_29_AllocatorDestroyRangeReverseINS_9allocatorINS_12basic_stringIcNS_11char_traitsIcEENS2_IcEEEEEEPS7_EEED1B8ne190107Ev, symObjAddr: 0x11350, symBinAddr: 0xB26E8, symSize: 0x68 }
  - { offset: 0x42B5E9, size: 0x8, addend: 0x0, symName: __ZN17llm_tokenizer_spmD1Ev, symObjAddr: 0x113B8, symBinAddr: 0xB2750, symSize: 0x4 }
  - { offset: 0x42B614, size: 0x8, addend: 0x0, symName: __ZN17llm_tokenizer_spmD0Ev, symObjAddr: 0x113BC, symBinAddr: 0xB2754, symSize: 0x8 }
  - { offset: 0x42B706, size: 0x8, addend: 0x0, symName: __ZNSt3__16vectorINS_12basic_stringIcNS_11char_traitsIcEENS_9allocatorIcEEEENS4_IS6_EEE18__assign_with_sizeB8ne190107IPKS6_SB_EEvT_T0_l, symObjAddr: 0x12284, symBinAddr: 0xB361C, symSize: 0x30C }
  - { offset: 0x42C472, size: 0x8, addend: 0x0, symName: __ZN17llm_tokenizer_bpeD1Ev, symObjAddr: 0x12160, symBinAddr: 0xB34F8, symSize: 0x90 }
  - { offset: 0x42C7CA, size: 0x8, addend: 0x0, symName: __ZN17llm_tokenizer_bpeD0Ev, symObjAddr: 0x121F0, symBinAddr: 0xB3588, symSize: 0x94 }
  - { offset: 0x42CBF6, size: 0x8, addend: 0x0, symName: __ZN17llm_tokenizer_wpmD1Ev, symObjAddr: 0x12590, symBinAddr: 0xB3928, symSize: 0x4 }
  - { offset: 0x42CC22, size: 0x8, addend: 0x0, symName: __ZN17llm_tokenizer_wpmD0Ev, symObjAddr: 0x12594, symBinAddr: 0xB392C, symSize: 0x8 }
  - { offset: 0x42CEC4, size: 0x8, addend: 0x0, symName: __ZN10naive_trie6insertEPKcmi, symObjAddr: 0x12874, symBinAddr: 0xB3C0C, symSize: 0x1D8 }
  - { offset: 0x42D9DD, size: 0x8, addend: 0x0, symName: __ZNSt3__16__treeINS_12__value_typeIc10naive_trieEENS_19__map_value_compareIcS3_NS_4lessIcEELb1EEENS_9allocatorIS3_EEE7destroyEPNS_11__tree_nodeIS3_PvEE, symObjAddr: 0x12B34, symBinAddr: 0xB3ECC, symSize: 0x54 }
  - { offset: 0x42E1E4, size: 0x8, addend: 0x0, symName: __ZN17llm_tokenizer_ugmD1Ev, symObjAddr: 0x12A4C, symBinAddr: 0xB3DE4, symSize: 0x70 }
  - { offset: 0x42E45F, size: 0x8, addend: 0x0, symName: __ZN17llm_tokenizer_ugmD0Ev, symObjAddr: 0x12ABC, symBinAddr: 0xB3E54, symSize: 0x78 }
  - { offset: 0x42E7D0, size: 0x8, addend: 0x0, symName: __ZN18llm_tokenizer_rwkvD1Ev, symObjAddr: 0x12D0C, symBinAddr: 0xB40A4, symSize: 0x3C }
  - { offset: 0x42E8A1, size: 0x8, addend: 0x0, symName: __ZN18llm_tokenizer_rwkvD0Ev, symObjAddr: 0x12D48, symBinAddr: 0xB40E0, symSize: 0x40 }
  - { offset: 0x430C46, size: 0x8, addend: 0x0, symName: _llama_split_path, symObjAddr: 0x1444, symBinAddr: 0xB5A78, symSize: 0x48 }
  - { offset: 0x430CF9, size: 0x8, addend: 0x0, symName: _llama_print_system_info, symObjAddr: 0x1794, symBinAddr: 0xB5DC8, symSize: 0x1A0 }
  - { offset: 0x430D21, size: 0x8, addend: 0x0, symName: __MergedGlobals, symObjAddr: 0xB91E8, symBinAddr: 0x25F3D0, symSize: 0x0 }
  - { offset: 0x444751, size: 0x8, addend: 0x0, symName: _llama_sampler_chain_default_params, symObjAddr: 0x0, symBinAddr: 0xB475C, symSize: 0x8 }
  - { offset: 0x444779, size: 0x8, addend: 0x0, symName: _llama_max_devices, symObjAddr: 0x8, symBinAddr: 0xB4764, symSize: 0x8 }
  - { offset: 0x444793, size: 0x8, addend: 0x0, symName: _llama_supports_mmap, symObjAddr: 0x10, symBinAddr: 0xB476C, symSize: 0x10 }
  - { offset: 0x4447AD, size: 0x8, addend: 0x0, symName: _llama_supports_mlock, symObjAddr: 0x20, symBinAddr: 0xB477C, symSize: 0x10 }
  - { offset: 0x4447D4, size: 0x8, addend: 0x0, symName: _llama_supports_gpu_offload, symObjAddr: 0x30, symBinAddr: 0xB478C, symSize: 0x50 }
  - { offset: 0x444854, size: 0x8, addend: 0x0, symName: _llama_supports_rpc, symObjAddr: 0x80, symBinAddr: 0xB47DC, symSize: 0x24 }
  - { offset: 0x444877, size: 0x8, addend: 0x0, symName: _llama_backend_init, symObjAddr: 0xA4, symBinAddr: 0xB4800, symSize: 0x30 }
  - { offset: 0x444912, size: 0x8, addend: 0x0, symName: _llama_numa_init, symObjAddr: 0xD4, symBinAddr: 0xB4830, symSize: 0x80 }
  - { offset: 0x4449AB, size: 0x8, addend: 0x0, symName: _llama_backend_free, symObjAddr: 0x154, symBinAddr: 0xB48B0, symSize: 0x4 }
  - { offset: 0x444A01, size: 0x8, addend: 0x0, symName: _llama_backend_free, symObjAddr: 0x154, symBinAddr: 0xB48B0, symSize: 0x4 }
  - { offset: 0x444A1B, size: 0x8, addend: 0x0, symName: _llama_backend_free, symObjAddr: 0x154, symBinAddr: 0xB48B0, symSize: 0x4 }
  - { offset: 0x444A2F, size: 0x8, addend: 0x0, symName: _llama_time_us, symObjAddr: 0x158, symBinAddr: 0xB48B4, symSize: 0x4 }
  - { offset: 0x444A4D, size: 0x8, addend: 0x0, symName: _llama_time_us, symObjAddr: 0x158, symBinAddr: 0xB48B4, symSize: 0x4 }
  - { offset: 0x444A65, size: 0x8, addend: 0x0, symName: _llama_load_model_from_file, symObjAddr: 0x15C, symBinAddr: 0xB48B8, symSize: 0x30 }
  - { offset: 0x444AB9, size: 0x8, addend: 0x0, symName: _llama_model_load_from_file, symObjAddr: 0x18C, symBinAddr: 0xB48E8, symSize: 0x18C }
  - { offset: 0x4457CA, size: 0x8, addend: 0x0, symName: __ZL31llama_model_load_from_file_implRKNSt3__112basic_stringIcNS_11char_traitsIcEENS_9allocatorIcEEEERNS_6vectorIS5_NS3_IS5_EEEE18llama_model_params, symObjAddr: 0x318, symBinAddr: 0xB4A74, symSize: 0xAB0 }
  - { offset: 0x44A3EC, size: 0x8, addend: 0x0, symName: __ZNSt3__16vectorIP19ggml_backend_deviceNS_9allocatorIS2_EEE18__insert_with_sizeB8ne190107INS_11__wrap_iterIPS2_EES9_EES9_NS7_IPKS2_EET_T0_l, symObjAddr: 0x1A98, symBinAddr: 0xB6020, symSize: 0x2E8 }
  - { offset: 0x44B813, size: 0x8, addend: 0x0, symName: __ZNKSt3__16vectorIP19ggml_backend_deviceNS_9allocatorIS2_EEE20__throw_length_errorB8ne190107Ev, symObjAddr: 0x19D8, symBinAddr: 0xB600C, symSize: 0x14 }
  - { offset: 0x44BCAB, size: 0x8, addend: 0x0, symName: _llama_model_load_from_splits, symObjAddr: 0xEF0, symBinAddr: 0xB5524, symSize: 0x2FC }
  - { offset: 0x44C958, size: 0x8, addend: 0x0, symName: __ZNSt3__16vectorIPK18llama_chat_messageNS_9allocatorIS3_EEE8__appendEm, symObjAddr: 0x1FF4, symBinAddr: 0xB6308, symSize: 0x128 }
  - { offset: 0x44CC21, size: 0x8, addend: 0x0, symName: _llama_chat_apply_template, symObjAddr: 0x11EC, symBinAddr: 0xB5820, symSize: 0x258 }
  - { offset: 0x44D962, size: 0x8, addend: 0x0, symName: __ZNSt3__16vectorIPK18llama_chat_messageNS_9allocatorIS3_EEE8__appendEm, symObjAddr: 0x1FF4, symBinAddr: 0xB6308, symSize: 0x128 }
  - { offset: 0x44DD88, size: 0x8, addend: 0x0, symName: __ZNKSt3__16vectorIPK18llama_chat_messageNS_9allocatorIS3_EEE20__throw_length_errorB8ne190107Ev, symObjAddr: 0x211C, symBinAddr: 0xB6430, symSize: 0x14 }
  - { offset: 0x44DE80, size: 0x8, addend: 0x0, symName: _llama_split_prefix, symObjAddr: 0x148C, symBinAddr: 0xB5AC0, symSize: 0x308 }
  - { offset: 0x44EB3D, size: 0x8, addend: 0x0, symName: '__ZZL31llama_model_load_from_file_implRKNSt3__112basic_stringIcNS_11char_traitsIcEENS_9allocatorIcEEEERNS_6vectorIS5_NS3_IS5_EEEE18llama_model_paramsEN3$_08__invokeEfPv', symObjAddr: 0x1934, symBinAddr: 0xB5F68, symSize: 0xA4 }
  - { offset: 0x450036, size: 0x8, addend: 0x0, symName: __ZNKSt3__16vectorIPK18llama_chat_messageNS_9allocatorIS3_EEE20__throw_length_errorB8ne190107Ev, symObjAddr: 0x211C, symBinAddr: 0xB6430, symSize: 0x14 }
  - { offset: 0x451F00, size: 0x8, addend: 0x0, symName: _unicode_ranges_flags, symObjAddr: 0xFFF0, symBinAddr: 0x1F1B10, symSize: 0x0 }
  - { offset: 0x4558AB, size: 0x8, addend: 0x0, symName: _unicode_set_whitespace, symObjAddr: 0x29E78, symBinAddr: 0x29FAD8, symSize: 0x0 }
  - { offset: 0x455D4C, size: 0x8, addend: 0x0, symName: _unicode_map_lowercase, symObjAddr: 0x10000, symBinAddr: 0x1F1B20, symSize: 0x0 }
  - { offset: 0x455D7C, size: 0x8, addend: 0x0, symName: _unicode_map_uppercase, symObjAddr: 0x10010, symBinAddr: 0x1F1B30, symSize: 0x0 }
  - { offset: 0x455D93, size: 0x8, addend: 0x0, symName: _unicode_ranges_nfd, symObjAddr: 0x10020, symBinAddr: 0x1F1B40, symSize: 0x0 }
  - { offset: 0x455FD4, size: 0x8, addend: 0x0, symName: __ZNSt3__113unordered_setIjNS_4hashIjEENS_8equal_toIjEENS_9allocatorIjEEED1B8ne190107Ev, symObjAddr: 0x0, symBinAddr: 0xB6444, symSize: 0x54 }
  - { offset: 0x4562D5, size: 0x8, addend: 0x0, symName: __ZNSt3__112__hash_tableIjNS_4hashIjEENS_8equal_toIjEENS_9allocatorIjEEED1Ev, symObjAddr: 0x54, symBinAddr: 0xB6498, symSize: 0x54 }
  - { offset: 0x4568CB, size: 0x8, addend: 0x0, symName: __ZNSt3__112__hash_tableIjNS_4hashIjEENS_8equal_toIjEENS_9allocatorIjEEE25__emplace_unique_key_argsIjJRKjEEENS_4pairINS_15__hash_iteratorIPNS_11__hash_nodeIjPvEEEEbEERKT_DpOT0_, symObjAddr: 0xA8, symBinAddr: 0xB64EC, symSize: 0x304 }
  - { offset: 0x456F74, size: 0x8, addend: 0x0, symName: __ZNSt3__112__hash_tableIjNS_4hashIjEENS_8equal_toIjEENS_9allocatorIjEEE11__do_rehashILb1EEEvm, symObjAddr: 0x3D4, symBinAddr: 0xB67F0, symSize: 0x1DC }
  - { offset: 0x4593D7, size: 0x8, addend: 0x0, symName: __Z26unicode_cpt_flags_from_cptj, symObjAddr: 0x940, symBinAddr: 0xB75DC, symSize: 0xE0 }
  - { offset: 0x4593F8, size: 0x8, addend: 0x0, symName: __MergedGlobals, symObjAddr: 0x2CADB0, symBinAddr: 0x25F3F0, symSize: 0x0 }
  - { offset: 0x45940F, size: 0x8, addend: 0x0, symName: __MergedGlobals, symObjAddr: 0x2CADB0, symBinAddr: 0x25F3F0, symSize: 0x0 }
  - { offset: 0x46AC4C, size: 0x8, addend: 0x0, symName: __ZNSt3__119piecewise_constructE, symObjAddr: 0x219B8, symBinAddr: 0x1D15A8, symSize: 0x0 }
  - { offset: 0x48EE74, size: 0x8, addend: 0x0, symName: __ZNSt3__119__throw_range_errorB8ne190107EPKc, symObjAddr: 0x13B24, symBinAddr: 0xBEC44, symSize: 0x50 }
  - { offset: 0x494BCE, size: 0x8, addend: 0x0, symName: __Z27unicode_cpt_flags_from_utf8RKNSt3__112basic_stringIcNS_11char_traitsIcEENS_9allocatorIcEEEE, symObjAddr: 0xC08, symBinAddr: 0xB78A4, symSize: 0x9C }
  - { offset: 0x494BFA, size: 0x8, addend: 0x0, symName: __MergedGlobals, symObjAddr: 0x2CADB0, symBinAddr: 0x25F3F0, symSize: 0x0 }
  - { offset: 0x494CEB, size: 0x8, addend: 0x0, symName: __Z20unicode_byte_to_utf8h, symObjAddr: 0xCA4, symBinAddr: 0xB7940, symSize: 0x1A8 }
  - { offset: 0x494D0C, size: 0x8, addend: 0x0, symName: __MergedGlobals, symObjAddr: 0x2CADB0, symBinAddr: 0x25F3F0, symSize: 0x0 }
  - { offset: 0x4954F7, size: 0x8, addend: 0x0, symName: __Z20unicode_utf8_to_byteRKNSt3__112basic_stringIcNS_11char_traitsIcEENS_9allocatorIcEEEE, symObjAddr: 0x12B8, symBinAddr: 0xB7F54, symSize: 0xA4 }
  - { offset: 0x495523, size: 0x8, addend: 0x0, symName: __MergedGlobals, symObjAddr: 0x2CADB0, symBinAddr: 0x25F3F0, symSize: 0x0 }
  - { offset: 0x495A90, size: 0x8, addend: 0x0, symName: __Z19unicode_regex_splitRKNSt3__112basic_stringIcNS_11char_traitsIcEENS_9allocatorIcEEEERKNS_6vectorIS5_NS3_IS5_EEEE, symObjAddr: 0x1AC0, symBinAddr: 0xB875C, symSize: 0x4C6C }
  - { offset: 0x495ABC, size: 0x8, addend: 0x0, symName: __MergedGlobals, symObjAddr: 0x2CADB0, symBinAddr: 0x25F3F0, symSize: 0x0 }
  - { offset: 0x495AD5, size: 0x8, addend: 0x0, symName: __MergedGlobals, symObjAddr: 0x2CADB0, symBinAddr: 0x25F3F0, symSize: 0x0 }
  - { offset: 0x495AEE, size: 0x8, addend: 0x0, symName: __MergedGlobals, symObjAddr: 0x2CADB0, symBinAddr: 0x25F3F0, symSize: 0x0 }
  - { offset: 0x4A8058, size: 0x8, addend: 0x0, symName: __Z16unicode_len_utf8c, symObjAddr: 0x0, symBinAddr: 0xB6CAC, symSize: 0x14 }
  - { offset: 0x4A811B, size: 0x8, addend: 0x0, symName: __Z21unicode_cpt_from_utf8RKNSt3__112basic_stringIcNS_11char_traitsIcEENS_9allocatorIcEEEERm, symObjAddr: 0x14, symBinAddr: 0xB6CC0, symSize: 0x330 }
  - { offset: 0x4A84C3, size: 0x8, addend: 0x0, symName: __ZNSt16invalid_argumentC1B8ne190107EPKc, symObjAddr: 0x344, symBinAddr: 0xB6FF0, symSize: 0x24 }
  - { offset: 0x4A8706, size: 0x8, addend: 0x0, symName: __Z19unicode_cpt_to_utf8j, symObjAddr: 0x368, symBinAddr: 0xB7014, symSize: 0x158 }
  - { offset: 0x4A8B15, size: 0x8, addend: 0x0, symName: __Z26unicode_cpts_normalize_nfdRKNSt3__16vectorIjNS_9allocatorIjEEEE, symObjAddr: 0x4C0, symBinAddr: 0xB716C, symSize: 0x180 }
  - { offset: 0x4A9151, size: 0x8, addend: 0x0, symName: __ZNSt3__16__treeINS_12__value_typeINS_12basic_stringIcNS_11char_traitsIcEENS_9allocatorIcEEEEiEENS_19__map_value_compareIS7_S8_NS_4lessIS7_EELb1EEENS5_IS8_EEE30__emplace_hint_unique_key_argsIS7_JRKNS_4pairIKS7_iEEEEENSG_INS_15__tree_iteratorIS8_PNS_11__tree_nodeIS8_PvEElEEbEENS_21__tree_const_iteratorIS8_SP_lEERKT_DpOT0_, symObjAddr: 0x1F9F8, symBinAddr: 0xCAA78, symSize: 0x110 }
  - { offset: 0x4A946F, size: 0x8, addend: 0x0, symName: __Z22unicode_cpts_from_utf8RKNSt3__112basic_stringIcNS_11char_traitsIcEENS_9allocatorIcEEEE, symObjAddr: 0x640, symBinAddr: 0xB72EC, symSize: 0x1F8 }
  - { offset: 0x4A9C59, size: 0x8, addend: 0x0, symName: __ZNSt3__16vectorIjNS_9allocatorIjEEE12emplace_backIJiEEERjDpOT_, symObjAddr: 0x838, symBinAddr: 0xB74E4, symSize: 0xF8 }
  - { offset: 0x4AA207, size: 0x8, addend: 0x0, symName: __ZL23unicode_cpt_flags_arrayv, symObjAddr: 0xA20, symBinAddr: 0xB76BC, symSize: 0x1AC }
  - { offset: 0x4AAA9E, size: 0x8, addend: 0x0, symName: __ZNSt3__16vectorI17unicode_cpt_flagsNS_9allocatorIS1_EEED1B8ne190107Ev, symObjAddr: 0xBCC, symBinAddr: 0xB7868, symSize: 0x3C }
  - { offset: 0x4AAACB, size: 0x8, addend: 0x0, symName: __ZNSt3__16vectorI17unicode_cpt_flagsNS_9allocatorIS1_EEED1B8ne190107Ev, symObjAddr: 0xBCC, symBinAddr: 0xB7868, symSize: 0x3C }
  - { offset: 0x4AAAE9, size: 0x8, addend: 0x0, symName: __ZNSt3__16vectorI17unicode_cpt_flagsNS_9allocatorIS1_EEED1B8ne190107Ev, symObjAddr: 0xBCC, symBinAddr: 0xB7868, symSize: 0x3C }
  - { offset: 0x4AAF79, size: 0x8, addend: 0x0, symName: __ZL24unicode_byte_to_utf8_mapv, symObjAddr: 0xE4C, symBinAddr: 0xB7AE8, symSize: 0x3F0 }
  - { offset: 0x4ABC67, size: 0x8, addend: 0x0, symName: __ZNSt3__112__hash_tableINS_17__hash_value_typeIhNS_12basic_stringIcNS_11char_traitsIcEENS_9allocatorIcEEEEEENS_22__unordered_map_hasherIhS8_NS_4hashIhEENS_8equal_toIhEELb1EEENS_21__unordered_map_equalIhS8_SD_SB_Lb1EEENS5_IS8_EEE25__emplace_unique_key_argsIhJRKNS_21piecewise_construct_tENS_5tupleIJOhEEENSN_IJEEEEEENS_4pairINS_15__hash_iteratorIPNS_11__hash_nodeIS8_PvEEEEbEERKT_DpOT0_, symObjAddr: 0x6DDC, symBinAddr: 0xBD95C, symSize: 0x318 }
  - { offset: 0x4AC42C, size: 0x8, addend: 0x0, symName: __ZNSt3__113unordered_mapIhNS_12basic_stringIcNS_11char_traitsIcEENS_9allocatorIcEEEENS_4hashIhEENS_8equal_toIhEENS4_INS_4pairIKhS6_EEEEED1B8ne190107Ev, symObjAddr: 0x123C, symBinAddr: 0xB7ED8, symSize: 0x7C }
  - { offset: 0x4ACB6F, size: 0x8, addend: 0x0, symName: __ZNSt3__112__hash_tableINS_17__hash_value_typeINS_12basic_stringIcNS_11char_traitsIcEENS_9allocatorIcEEEEhEENS_22__unordered_map_hasherIS7_S8_NS_4hashIS7_EENS_8equal_toIS7_EELb1EEENS_21__unordered_map_equalIS7_S8_SD_SB_Lb1EEENS5_IS8_EEE4findIS7_EENS_15__hash_iteratorIPNS_11__hash_nodeIS8_PvEEEERKT_, symObjAddr: 0x7DB8, symBinAddr: 0xBE4EC, symSize: 0x1B4 }
  - { offset: 0x4ACE95, size: 0x8, addend: 0x0, symName: __ZL24unicode_utf8_to_byte_mapv, symObjAddr: 0x135C, symBinAddr: 0xB7FF8, symSize: 0x684 }
  - { offset: 0x4ADE5B, size: 0x8, addend: 0x0, symName: __ZNSt3__112__hash_tableINS_17__hash_value_typeINS_12basic_stringIcNS_11char_traitsIcEENS_9allocatorIcEEEEhEENS_22__unordered_map_hasherIS7_S8_NS_4hashIS7_EENS_8equal_toIS7_EELb1EEENS_21__unordered_map_equalIS7_S8_SD_SB_Lb1EEENS5_IS8_EEE25__emplace_unique_key_argsIS7_JRKNS_21piecewise_construct_tENS_5tupleIJOS7_EEENSN_IJEEEEEENS_4pairINS_15__hash_iteratorIPNS_11__hash_nodeIS8_PvEEEEbEERKT_DpOT0_, symObjAddr: 0x733C, symBinAddr: 0xBDEBC, symSize: 0x3E8 }
  - { offset: 0x4AE753, size: 0x8, addend: 0x0, symName: __ZNSt3__113unordered_mapINS_12basic_stringIcNS_11char_traitsIcEENS_9allocatorIcEEEEhNS_4hashIS6_EENS_8equal_toIS6_EENS4_INS_4pairIKS6_hEEEEED1B8ne190107Ev, symObjAddr: 0x19E0, symBinAddr: 0xB867C, symSize: 0x7C }
  - { offset: 0x4AEE3F, size: 0x8, addend: 0x0, symName: __Z15unicode_tolowerj, symObjAddr: 0x1A5C, symBinAddr: 0xB86F8, symSize: 0x64 }
  - { offset: 0x4B320A, size: 0x8, addend: 0x0, symName: __ZNSt3__115wstring_convertINS_12codecvt_utf8IwLm1114111ELNS_12codecvt_modeE0EEEwNS_9allocatorIwEENS4_IcEEE10from_bytesEPKcS9_, symObjAddr: 0x13618, symBinAddr: 0xBE738, symSize: 0x32C }
  - { offset: 0x4B3B95, size: 0x8, addend: 0x0, symName: __ZNSt3__111basic_regexIwNS_12regex_traitsIwEEEC2B8ne190107INS_11char_traitsIwEENS_9allocatorIwEEEERKNS_12basic_stringIwT_T0_EENS_15regex_constants18syntax_option_typeE, symObjAddr: 0x13CA4, symBinAddr: 0xBEDC4, symSize: 0xD4 }
  - { offset: 0x4B3D73, size: 0x8, addend: 0x0, symName: __ZNKSt3__111basic_regexIwNS_12regex_traitsIwEEE8__searchINS_9allocatorINS_9sub_matchIPKwEEEEEEbS8_S8_RNS_13match_resultsIS8_T_EENS_15regex_constants15match_flag_typeE, symObjAddr: 0x1D004, symBinAddr: 0xC8124, symSize: 0x308 }
  - { offset: 0x4B4308, size: 0x8, addend: 0x0, symName: __ZNSt3__16vectorINS_12basic_stringIcNS_11char_traitsIcEENS_9allocatorIcEEEENS4_IS6_EEE24__emplace_back_slow_pathIJRS6_EEEPS6_DpOT_, symObjAddr: 0x1F7F8, symBinAddr: 0xCA918, symSize: 0x160 }
  - { offset: 0x4B47F6, size: 0x8, addend: 0x0, symName: __ZNKSt3__16vectorINS_9sub_matchIPKwEENS_9allocatorIS4_EEE20__throw_length_errorB8ne190107Ev, symObjAddr: 0x16314, symBinAddr: 0xC1434, symSize: 0x14 }
  - { offset: 0x4B4820, size: 0x8, addend: 0x0, symName: __ZNSt3__17__stateIwED1Ev, symObjAddr: 0x16328, symBinAddr: 0xC1448, symSize: 0x50 }
  - { offset: 0x4B4871, size: 0x8, addend: 0x0, symName: __ZNKSt3__112basic_stringIwNS_11char_traitsIwEENS_9allocatorIwEEE20__throw_length_errorB8ne190107Ev, symObjAddr: 0x13B74, symBinAddr: 0xBEC94, symSize: 0x14 }
  - { offset: 0x4B489B, size: 0x8, addend: 0x0, symName: __ZNSt11range_errorC1B8ne190107EPKc, symObjAddr: 0x13B88, symBinAddr: 0xBECA8, symSize: 0x24 }
  - { offset: 0x4B48E4, size: 0x8, addend: 0x0, symName: __ZNSt3__14pairIKNS_12basic_stringIcNS_11char_traitsIcEENS_9allocatorIcEEEEiEC1B8ne190107IRA6_KcN17unicode_cpt_flagsUt_ETnNS_9enable_ifIXclsr10_CheckArgsE23__is_pair_constructibleIT_T0_EEEiE4typeELi0EEEOSG_OSH_, symObjAddr: 0x672C, symBinAddr: 0xBD3C8, symSize: 0xB4 }
  - { offset: 0x4B4BAA, size: 0x8, addend: 0x0, symName: __ZNSt3__13mapINS_12basic_stringIcNS_11char_traitsIcEENS_9allocatorIcEEEEiNS_4lessIS6_EENS4_INS_4pairIKS6_iEEEEEC1B8ne190107ESt16initializer_listISB_ERKS8_, symObjAddr: 0x67E0, symBinAddr: 0xBD47C, symSize: 0x7C }
  - { offset: 0x4B4BD4, size: 0x8, addend: 0x0, symName: __ZNSt3__13mapINS_12basic_stringIcNS_11char_traitsIcEENS_9allocatorIcEEEEiNS_4lessIS6_EENS4_INS_4pairIKS6_iEEEEEC1B8ne190107ESt16initializer_listISB_ERKS8_, symObjAddr: 0x67E0, symBinAddr: 0xBD47C, symSize: 0x7C }
  - { offset: 0x4B4E02, size: 0x8, addend: 0x0, symName: __ZNSt3__13mapIiiNS_4lessIiEENS_9allocatorINS_4pairIKiiEEEEEC2B8ne190107ESt16initializer_listIS6_ERKS2_, symObjAddr: 0x20190, symBinAddr: 0xCB05C, symSize: 0xF0 }
  - { offset: 0x4B51EF, size: 0x8, addend: 0x0, symName: __ZNSt3__14pairIKiNS_12basic_stringIcNS_11char_traitsIcEENS_9allocatorIcEEEEEC1B8ne190107IN17unicode_cpt_flagsUt_ERA4_KcTnNS_9enable_ifIXclsr10_CheckArgsE23__is_pair_constructibleIT_T0_EEEiE4typeELi0EEEOSG_OSH_, symObjAddr: 0x68AC, symBinAddr: 0xBD548, symSize: 0xB0 }
  - { offset: 0x4B548E, size: 0x8, addend: 0x0, symName: __ZNSt3__14pairIKiNS_12basic_stringIcNS_11char_traitsIcEENS_9allocatorIcEEEEEC1B8ne190107IN17unicode_cpt_flagsUt_ERA7_KcTnNS_9enable_ifIXclsr10_CheckArgsE23__is_pair_constructibleIT_T0_EEEiE4typeELi0EEEOSG_OSH_, symObjAddr: 0x695C, symBinAddr: 0xBD5F8, symSize: 0xB0 }
  - { offset: 0x4B54CE, size: 0x8, addend: 0x0, symName: __ZNSt3__14pairIKiNS_12basic_stringIcNS_11char_traitsIcEENS_9allocatorIcEEEEEC1B8ne190107IN17unicode_cpt_flagsUt_ERA7_KcTnNS_9enable_ifIXclsr10_CheckArgsE23__is_pair_constructibleIT_T0_EEEiE4typeELi0EEEOSG_OSH_, symObjAddr: 0x695C, symBinAddr: 0xBD5F8, symSize: 0xB0 }
  - { offset: 0x4B576D, size: 0x8, addend: 0x0, symName: __ZNSt3__14pairIKiNS_12basic_stringIcNS_11char_traitsIcEENS_9allocatorIcEEEEEC1B8ne190107IN17unicode_cpt_flagsUt_ERA26_KcTnNS_9enable_ifIXclsr10_CheckArgsE23__is_pair_constructibleIT_T0_EEEiE4typeELi0EEEOSG_OSH_, symObjAddr: 0x6A0C, symBinAddr: 0xBD6A8, symSize: 0xB0 }
  - { offset: 0x4B57AD, size: 0x8, addend: 0x0, symName: __ZNSt3__14pairIKiNS_12basic_stringIcNS_11char_traitsIcEENS_9allocatorIcEEEEEC1B8ne190107IN17unicode_cpt_flagsUt_ERA26_KcTnNS_9enable_ifIXclsr10_CheckArgsE23__is_pair_constructibleIT_T0_EEEiE4typeELi0EEEOSG_OSH_, symObjAddr: 0x6A0C, symBinAddr: 0xBD6A8, symSize: 0xB0 }
  - { offset: 0x4B5A4C, size: 0x8, addend: 0x0, symName: __ZNSt3__14pairIKiNS_12basic_stringIcNS_11char_traitsIcEENS_9allocatorIcEEEEEC1B8ne190107IN17unicode_cpt_flagsUt_ERA1_KcTnNS_9enable_ifIXclsr10_CheckArgsE23__is_pair_constructibleIT_T0_EEEiE4typeELi0EEEOSG_OSH_, symObjAddr: 0x6ABC, symBinAddr: 0xBD758, symSize: 0xB0 }
  - { offset: 0x4B5A8C, size: 0x8, addend: 0x0, symName: __ZNSt3__14pairIKiNS_12basic_stringIcNS_11char_traitsIcEENS_9allocatorIcEEEEEC1B8ne190107IN17unicode_cpt_flagsUt_ERA1_KcTnNS_9enable_ifIXclsr10_CheckArgsE23__is_pair_constructibleIT_T0_EEEiE4typeELi0EEEOSG_OSH_, symObjAddr: 0x6ABC, symBinAddr: 0xBD758, symSize: 0xB0 }
  - { offset: 0x4B5D2B, size: 0x8, addend: 0x0, symName: __ZNSt3__14pairIKiNS_12basic_stringIcNS_11char_traitsIcEENS_9allocatorIcEEEEEC1B8ne190107IN17unicode_cpt_flagsUt_ERA12_KcTnNS_9enable_ifIXclsr10_CheckArgsE23__is_pair_constructibleIT_T0_EEEiE4typeELi0EEEOSG_OSH_, symObjAddr: 0x6B6C, symBinAddr: 0xBD808, symSize: 0xB0 }
  - { offset: 0x4B5D6B, size: 0x8, addend: 0x0, symName: __ZNSt3__14pairIKiNS_12basic_stringIcNS_11char_traitsIcEENS_9allocatorIcEEEEEC1B8ne190107IN17unicode_cpt_flagsUt_ERA12_KcTnNS_9enable_ifIXclsr10_CheckArgsE23__is_pair_constructibleIT_T0_EEEiE4typeELi0EEEOSG_OSH_, symObjAddr: 0x6B6C, symBinAddr: 0xBD808, symSize: 0xB0 }
  - { offset: 0x4B600A, size: 0x8, addend: 0x0, symName: __ZNSt3__13mapIiNS_12basic_stringIcNS_11char_traitsIcEENS_9allocatorIcEEEENS_4lessIiEENS4_INS_4pairIKiS6_EEEEEC1B8ne190107ESt16initializer_listISB_ERKS8_, symObjAddr: 0x6C1C, symBinAddr: 0xBD8B8, symSize: 0x7C }
  - { offset: 0x4B6034, size: 0x8, addend: 0x0, symName: __ZNSt3__13mapIiNS_12basic_stringIcNS_11char_traitsIcEENS_9allocatorIcEEEENS_4lessIiEENS4_INS_4pairIKiS6_EEEEEC1B8ne190107ESt16initializer_listISB_ERKS8_, symObjAddr: 0x6C1C, symBinAddr: 0xBD8B8, symSize: 0x7C }
  - { offset: 0x4B6262, size: 0x8, addend: 0x0, symName: __ZNSt3__115wstring_convertINS_12codecvt_utf8IwLm1114111ELNS_12codecvt_modeE0EEEwNS_9allocatorIwEENS4_IcEEED1Ev, symObjAddr: 0x13580, symBinAddr: 0xBE6A0, symSize: 0x7C }
  - { offset: 0x4B65E5, size: 0x8, addend: 0x0, symName: __ZNSt3__111basic_regexIwNS_12regex_traitsIwEEED1Ev, symObjAddr: 0x13C48, symBinAddr: 0xBED68, symSize: 0x5C }
  - { offset: 0x4B6DD2, size: 0x8, addend: 0x0, symName: __ZNSt3__16__treeINS_12__value_typeINS_12basic_stringIcNS_11char_traitsIcEENS_9allocatorIcEEEEiEENS_19__map_value_compareIS7_S8_NS_4lessIS7_EELb1EEENS5_IS8_EEE30__emplace_hint_unique_key_argsIS7_JRKNS_4pairIKS7_iEEEEENSG_INS_15__tree_iteratorIS8_PNS_11__tree_nodeIS8_PvEElEEbEENS_21__tree_const_iteratorIS8_SP_lEERKT_DpOT0_, symObjAddr: 0x1F9F8, symBinAddr: 0xCAA78, symSize: 0x110 }
  - { offset: 0x4B717E, size: 0x8, addend: 0x0, symName: __ZNSt3__16__treeINS_12__value_typeINS_12basic_stringIcNS_11char_traitsIcEENS_9allocatorIcEEEEiEENS_19__map_value_compareIS7_S8_NS_4lessIS7_EELb1EEENS5_IS8_EEE7destroyEPNS_11__tree_nodeIS8_PvEE, symObjAddr: 0x20120, symBinAddr: 0xCAFEC, symSize: 0x70 }
  - { offset: 0x4B743A, size: 0x8, addend: 0x0, symName: __ZNSt3__13mapINS_12basic_stringIcNS_11char_traitsIcEENS_9allocatorIcEEEEiNS_4lessIS6_EENS4_INS_4pairIKS6_iEEEEED1B8ne190107Ev, symObjAddr: 0x685C, symBinAddr: 0xBD4F8, symSize: 0x28 }
  - { offset: 0x4B7540, size: 0x8, addend: 0x0, symName: __ZNSt3__13mapIiiNS_4lessIiEENS_9allocatorINS_4pairIKiiEEEEED1B8ne190107Ev, symObjAddr: 0x6884, symBinAddr: 0xBD520, symSize: 0x28 }
  - { offset: 0x4B75F4, size: 0x8, addend: 0x0, symName: __ZNSt3__16__treeINS_12__value_typeIiiEENS_19__map_value_compareIiS2_NS_4lessIiEELb1EEENS_9allocatorIS2_EEE7destroyEPNS_11__tree_nodeIS2_PvEE, symObjAddr: 0x20430, symBinAddr: 0xCB2FC, symSize: 0x48 }
  - { offset: 0x4B7A7A, size: 0x8, addend: 0x0, symName: __ZNSt3__16__treeINS_12__value_typeIiNS_12basic_stringIcNS_11char_traitsIcEENS_9allocatorIcEEEEEENS_19__map_value_compareIiS8_NS_4lessIiEELb1EEENS5_IS8_EEE30__emplace_hint_unique_key_argsIiJRKNS_4pairIKiS7_EEEEENSG_INS_15__tree_iteratorIS8_PNS_11__tree_nodeIS8_PvEElEEbEENS_21__tree_const_iteratorIS8_SP_lEERKT_DpOT0_, symObjAddr: 0x20478, symBinAddr: 0xCB344, symSize: 0x110 }
  - { offset: 0x4B7E54, size: 0x8, addend: 0x0, symName: __ZNSt3__16__treeINS_12__value_typeIiNS_12basic_stringIcNS_11char_traitsIcEENS_9allocatorIcEEEEEENS_19__map_value_compareIiS8_NS_4lessIiEELb1EEENS5_IS8_EEE7destroyEPNS_11__tree_nodeIS8_PvEE, symObjAddr: 0x207A4, symBinAddr: 0xCB670, symSize: 0x70 }
  - { offset: 0x4B8110, size: 0x8, addend: 0x0, symName: __ZNSt3__13mapIiNS_12basic_stringIcNS_11char_traitsIcEENS_9allocatorIcEEEENS_4lessIiEENS4_INS_4pairIKiS6_EEEEED1B8ne190107Ev, symObjAddr: 0x6C98, symBinAddr: 0xBD934, symSize: 0x28 }
  - { offset: 0x4B8728, size: 0x8, addend: 0x0, symName: __ZNSt3__112__hash_tableINS_17__hash_value_typeIhNS_12basic_stringIcNS_11char_traitsIcEENS_9allocatorIcEEEEEENS_22__unordered_map_hasherIhS8_NS_4hashIhEENS_8equal_toIhEELb1EEENS_21__unordered_map_equalIhS8_SD_SB_Lb1EEENS5_IS8_EEE11__do_rehashILb1EEEvm, symObjAddr: 0x7160, symBinAddr: 0xBDCE0, symSize: 0x1DC }
  - { offset: 0x4B8BCE, size: 0x8, addend: 0x0, symName: __ZNSt3__112__hash_tableINS_17__hash_value_typeINS_12basic_stringIcNS_11char_traitsIcEENS_9allocatorIcEEEEhEENS_22__unordered_map_hasherIS7_S8_NS_4hashIS7_EENS_8equal_toIS7_EELb1EEENS_21__unordered_map_equalIS7_S8_SD_SB_Lb1EEENS5_IS8_EEE25__emplace_unique_key_argsIS7_JRKNS_21piecewise_construct_tENS_5tupleIJOS7_EEENSN_IJEEEEEENS_4pairINS_15__hash_iteratorIPNS_11__hash_nodeIS8_PvEEEEbEERKT_DpOT0_, symObjAddr: 0x733C, symBinAddr: 0xBDEBC, symSize: 0x3E8 }
  - { offset: 0x4B8BE3, size: 0x8, addend: 0x0, symName: __ZNSt3__110unique_ptrINS_11__hash_nodeINS_17__hash_value_typeIhNS_12basic_stringIcNS_11char_traitsIcEENS_9allocatorIcEEEEEEPvEENS_22__hash_node_destructorINS6_ISB_EEEEED1B8ne190107Ev, symObjAddr: 0x70F4, symBinAddr: 0xBDC74, symSize: 0x6C }
  - { offset: 0x4B9C85, size: 0x8, addend: 0x0, symName: __ZNSt3__112__hash_tableINS_17__hash_value_typeINS_12basic_stringIcNS_11char_traitsIcEENS_9allocatorIcEEEEhEENS_22__unordered_map_hasherIS7_S8_NS_4hashIS7_EENS_8equal_toIS7_EELb1EEENS_21__unordered_map_equalIS7_S8_SD_SB_Lb1EEENS5_IS8_EEE11__do_rehashILb1EEEvm, symObjAddr: 0x7BDC, symBinAddr: 0xBE310, symSize: 0x1DC }
  - { offset: 0x4BA12B, size: 0x8, addend: 0x0, symName: __ZNSt3__112__hash_tableINS_17__hash_value_typeINS_12basic_stringIcNS_11char_traitsIcEENS_9allocatorIcEEEEhEENS_22__unordered_map_hasherIS7_S8_NS_4hashIS7_EENS_8equal_toIS7_EELb1EEENS_21__unordered_map_equalIS7_S8_SD_SB_Lb1EEENS5_IS8_EEE4findIS7_EENS_15__hash_iteratorIPNS_11__hash_nodeIS8_PvEEEERKT_, symObjAddr: 0x7DB8, symBinAddr: 0xBE4EC, symSize: 0x1B4 }
  - { offset: 0x4BA140, size: 0x8, addend: 0x0, symName: __ZNSt3__110unique_ptrINS_11__hash_nodeINS_17__hash_value_typeINS_12basic_stringIcNS_11char_traitsIcEENS_9allocatorIcEEEEhEEPvEENS_22__hash_node_destructorINS6_ISB_EEEEED1B8ne190107Ev, symObjAddr: 0x7724, symBinAddr: 0xBE2A4, symSize: 0x6C }
  - { offset: 0x4CF098, size: 0x8, addend: 0x0, symName: __ZNSt3__115wstring_convertINS_12codecvt_utf8IwLm1114111ELNS_12codecvt_modeE0EEEwNS_9allocatorIwEENS4_IcEEED1Ev, symObjAddr: 0x13580, symBinAddr: 0xBE6A0, symSize: 0x7C }
  - { offset: 0x4D0602, size: 0x8, addend: 0x0, symName: __ZNSt3__112codecvt_utf8IwLm1114111ELNS_12codecvt_modeE0EED1B8ne190107Ev, symObjAddr: 0x135FC, symBinAddr: 0xBE71C, symSize: 0x4 }
  - { offset: 0x4D0624, size: 0x8, addend: 0x0, symName: __ZNSt3__112codecvt_utf8IwLm1114111ELNS_12codecvt_modeE0EED1B8ne190107Ev, symObjAddr: 0x135FC, symBinAddr: 0xBE71C, symSize: 0x4 }
  - { offset: 0x4D063F, size: 0x8, addend: 0x0, symName: __ZNSt3__112codecvt_utf8IwLm1114111ELNS_12codecvt_modeE0EED1B8ne190107Ev, symObjAddr: 0x135FC, symBinAddr: 0xBE71C, symSize: 0x4 }
  - { offset: 0x4D0674, size: 0x8, addend: 0x0, symName: __ZNSt3__112codecvt_utf8IwLm1114111ELNS_12codecvt_modeE0EED0B8ne190107Ev, symObjAddr: 0x13600, symBinAddr: 0xBE720, symSize: 0x18 }
  - { offset: 0x4D08E7, size: 0x8, addend: 0x0, symName: __ZNSt3__112basic_stringIwNS_11char_traitsIwEENS_9allocatorIwEEE6appendB8ne190107IPKwTnNS_9enable_ifIXsr31__has_forward_iterator_categoryIT_EE5valueEiE4typeELi0EEERS5_SA_SA_, symObjAddr: 0x13944, symBinAddr: 0xBEA64, symSize: 0x1E0 }
  - { offset: 0x4D1277, size: 0x8, addend: 0x0, symName: __ZNSt3__112basic_stringIwNS_11char_traitsIwEENS_9allocatorIwEEE25__init_copy_ctor_externalEPKwm, symObjAddr: 0x13BAC, symBinAddr: 0xBECCC, symSize: 0x9C }
  - { offset: 0x4D144A, size: 0x8, addend: 0x0, symName: __ZNSt3__111basic_regexIwNS_12regex_traitsIwEEED1Ev, symObjAddr: 0x13C48, symBinAddr: 0xBED68, symSize: 0x5C }
  - { offset: 0x4D16E2, size: 0x8, addend: 0x0, symName: __ZNSt11range_errorC1B8ne190107EPKc, symObjAddr: 0x13B88, symBinAddr: 0xBECA8, symSize: 0x24 }
  - { offset: 0x4D182C, size: 0x8, addend: 0x0, symName: __ZNSt3__111basic_regexIwNS_12regex_traitsIwEEE7__parseINS_11__wrap_iterIPKwEEEET_S9_S9_, symObjAddr: 0x13DD4, symBinAddr: 0xBEEF4, symSize: 0x1E8 }
  - { offset: 0x4D1C9A, size: 0x8, addend: 0x0, symName: __ZNSt3__110shared_ptrINS_13__empty_stateIwEEED1B8ne190107Ev, symObjAddr: 0x13D78, symBinAddr: 0xBEE98, symSize: 0x5C }
  - { offset: 0x4D226F, size: 0x8, addend: 0x0, symName: __ZNSt3__111basic_regexIwNS_12regex_traitsIwEEE13__parse_egrepINS_11__wrap_iterIPKwEEEET_S9_S9_, symObjAddr: 0x146EC, symBinAddr: 0xBF80C, symSize: 0x1D0 }
  - { offset: 0x4D27F2, size: 0x8, addend: 0x0, symName: __ZNSt3__111basic_regexIwNS_12regex_traitsIwEEE24__parse_extended_reg_expINS_11__wrap_iterIPKwEEEET_S9_S9_, symObjAddr: 0x143B0, symBinAddr: 0xBF4D0, symSize: 0x16C }
  - { offset: 0x4D2B27, size: 0x8, addend: 0x0, symName: __ZNSt3__111basic_regexIwNS_12regex_traitsIwEEE12__parse_grepINS_11__wrap_iterIPKwEEEET_S9_S9_, symObjAddr: 0x1451C, symBinAddr: 0xBF63C, symSize: 0x1D0 }
  - { offset: 0x4D2B3B, size: 0x8, addend: 0x0, symName: __ZNSt3__111basic_regexIwNS_12regex_traitsIwEEE21__parse_basic_reg_expINS_11__wrap_iterIPKwEEEET_S9_S9_, symObjAddr: 0x1421C, symBinAddr: 0xBF33C, symSize: 0x194 }
  - { offset: 0x4D2E5C, size: 0x8, addend: 0x0, symName: __ZNSt3__111basic_regexIwNS_12regex_traitsIwEEE24__parse_extended_reg_expINS_11__wrap_iterIPKwEEEET_S9_S9_, symObjAddr: 0x143B0, symBinAddr: 0xBF4D0, symSize: 0x16C }
  - { offset: 0x4D2E70, size: 0x8, addend: 0x0, symName: __ZNSt3__111basic_regexIwNS_12regex_traitsIwEEE12__parse_grepINS_11__wrap_iterIPKwEEEET_S9_S9_, symObjAddr: 0x1451C, symBinAddr: 0xBF63C, symSize: 0x1D0 }
  - { offset: 0x4D33F3, size: 0x8, addend: 0x0, symName: __ZNSt3__111basic_regexIwNS_12regex_traitsIwEEE16__parse_ecma_expINS_11__wrap_iterIPKwEEEET_S9_S9_, symObjAddr: 0x13FBC, symBinAddr: 0xBF0DC, symSize: 0x260 }
  - { offset: 0x4D3979, size: 0x8, addend: 0x0, symName: __ZNSt3__113__empty_stateIwED0Ev, symObjAddr: 0x149D4, symBinAddr: 0xBFAF4, symSize: 0x4C }
  - { offset: 0x4D39A9, size: 0x8, addend: 0x0, symName: __ZNSt3__113__empty_stateIwED0Ev, symObjAddr: 0x149D4, symBinAddr: 0xBFAF4, symSize: 0x4C }
  - { offset: 0x4D39C7, size: 0x8, addend: 0x0, symName: __ZNSt3__113__empty_stateIwED0Ev, symObjAddr: 0x149D4, symBinAddr: 0xBFAF4, symSize: 0x4C }
  - { offset: 0x4D39E5, size: 0x8, addend: 0x0, symName: __ZNSt3__113__empty_stateIwED0Ev, symObjAddr: 0x149D4, symBinAddr: 0xBFAF4, symSize: 0x4C }
  - { offset: 0x4D3C43, size: 0x8, addend: 0x0, symName: __ZNSt3__111basic_regexIwNS_12regex_traitsIwEEE17__parse_assertionINS_11__wrap_iterIPKwEEEET_S9_S9_, symObjAddr: 0x14AC8, symBinAddr: 0xBFBE8, symSize: 0x354 }
  - { offset: 0x4D425B, size: 0x8, addend: 0x0, symName: __ZNSt3__111basic_regexIwNS_12regex_traitsIwEEE12__parse_atomINS_11__wrap_iterIPKwEEEET_S9_S9_, symObjAddr: 0x14E1C, symBinAddr: 0xBFF3C, symSize: 0x280 }
  - { offset: 0x4D45CA, size: 0x8, addend: 0x0, symName: __ZNSt3__111basic_regexIwNS_12regex_traitsIwEEE23__parse_ERE_dupl_symbolINS_11__wrap_iterIPKwEEEET_S9_S9_PNS_16__owns_one_stateIwEEjj, symObjAddr: 0x1509C, symBinAddr: 0xC01BC, symSize: 0x460 }
  - { offset: 0x4D45DE, size: 0x8, addend: 0x0, symName: __ZNSt3__111basic_regexIwNS_12regex_traitsIwEEE23__parse_ERE_dupl_symbolINS_11__wrap_iterIPKwEEEET_S9_S9_PNS_16__owns_one_stateIwEEjj, symObjAddr: 0x1509C, symBinAddr: 0xC01BC, symSize: 0x460 }
  - { offset: 0x4D4D62, size: 0x8, addend: 0x0, symName: __ZNSt3__111basic_regexIwNS_12regex_traitsIwEEEC1B8ne190107Ev, symObjAddr: 0x154FC, symBinAddr: 0xC061C, symSize: 0x6C }
  - { offset: 0x4D4F59, size: 0x8, addend: 0x0, symName: __ZNSt3__111basic_regexIwNS_12regex_traitsIwEEE18__parse_nondupl_REINS_11__wrap_iterIPKwEEEET_S9_S9_, symObjAddr: 0x1C3B4, symBinAddr: 0xC74D4, symSize: 0x254 }
  - { offset: 0x4D5496, size: 0x8, addend: 0x0, symName: __ZNSt3__111basic_regexIwNS_12regex_traitsIwEEE22__parse_RE_dupl_symbolINS_11__wrap_iterIPKwEEEET_S9_S9_PNS_16__owns_one_stateIwEEjj, symObjAddr: 0x1C608, symBinAddr: 0xC7728, symSize: 0x320 }
  - { offset: 0x4D54AA, size: 0x8, addend: 0x0, symName: __ZNSt3__111basic_regexIwNS_12regex_traitsIwEEE22__parse_RE_dupl_symbolINS_11__wrap_iterIPKwEEEET_S9_S9_PNS_16__owns_one_stateIwEEjj, symObjAddr: 0x1C608, symBinAddr: 0xC7728, symSize: 0x320 }
  - { offset: 0x4D5B6E, size: 0x8, addend: 0x0, symName: __ZNSt3__111basic_regexIwNS_12regex_traitsIwEEE32__parse_one_char_or_coll_elem_REINS_11__wrap_iterIPKwEEEET_S9_S9_, symObjAddr: 0x1C928, symBinAddr: 0xC7A48, symSize: 0x16C }
  - { offset: 0x4D5BC5, size: 0x8, addend: 0x0, symName: __ZNSt3__111basic_regexIwNS_12regex_traitsIwEEE22__parse_ERE_expressionINS_11__wrap_iterIPKwEEEET_S9_S9_, symObjAddr: 0x1CBEC, symBinAddr: 0xC7D0C, symSize: 0x208 }
  - { offset: 0x4D5F6E, size: 0x8, addend: 0x0, symName: __ZNSt3__111basic_regexIwNS_12regex_traitsIwEEE33__parse_one_char_or_coll_elem_EREINS_11__wrap_iterIPKwEEEET_S9_S9_, symObjAddr: 0x1CDF4, symBinAddr: 0xC7F14, symSize: 0x148 }
  - { offset: 0x4D5FA3, size: 0x8, addend: 0x0, symName: __ZNSt3__111__end_stateIwED1Ev, symObjAddr: 0x148BC, symBinAddr: 0xBF9DC, symSize: 0x4 }
  - { offset: 0x4D5FCF, size: 0x8, addend: 0x0, symName: __ZNSt3__111__end_stateIwED0Ev, symObjAddr: 0x148C0, symBinAddr: 0xBF9E0, symSize: 0x8 }
  - { offset: 0x4D5FFB, size: 0x8, addend: 0x0, symName: __ZNKSt3__111__end_stateIwE6__execERNS_7__stateIwEE, symObjAddr: 0x148C8, symBinAddr: 0xBF9E8, symSize: 0xC }
  - { offset: 0x4D602E, size: 0x8, addend: 0x0, symName: __ZNKSt3__16__nodeIwE12__exec_splitEbRNS_7__stateIwEE, symObjAddr: 0x148D4, symBinAddr: 0xBF9F4, symSize: 0x4 }
  - { offset: 0x4D606E, size: 0x8, addend: 0x0, symName: __ZNKSt3__16__nodeIwE6__execERNS_7__stateIwEE, symObjAddr: 0x148D8, symBinAddr: 0xBF9F8, symSize: 0x4 }
  - { offset: 0x4D60BA, size: 0x8, addend: 0x0, symName: __ZNSt3__120__shared_ptr_pointerIPNS_13__empty_stateIwEENS_10shared_ptrIS2_E27__shared_ptr_default_deleteIS2_S2_EENS_9allocatorIS2_EEED1Ev, symObjAddr: 0x148DC, symBinAddr: 0xBF9FC, symSize: 0x4 }
  - { offset: 0x4D60DC, size: 0x8, addend: 0x0, symName: __ZNSt3__120__shared_ptr_pointerIPNS_13__empty_stateIwEENS_10shared_ptrIS2_E27__shared_ptr_default_deleteIS2_S2_EENS_9allocatorIS2_EEED1Ev, symObjAddr: 0x148DC, symBinAddr: 0xBF9FC, symSize: 0x4 }
  - { offset: 0x4D6112, size: 0x8, addend: 0x0, symName: __ZNSt3__120__shared_ptr_pointerIPNS_13__empty_stateIwEENS_10shared_ptrIS2_E27__shared_ptr_default_deleteIS2_S2_EENS_9allocatorIS2_EEED0Ev, symObjAddr: 0x148E0, symBinAddr: 0xBFA00, symSize: 0x18 }
  - { offset: 0x4D6175, size: 0x8, addend: 0x0, symName: __ZNSt3__120__shared_ptr_pointerIPNS_13__empty_stateIwEENS_10shared_ptrIS2_E27__shared_ptr_default_deleteIS2_S2_EENS_9allocatorIS2_EEE16__on_zero_sharedEv, symObjAddr: 0x148F8, symBinAddr: 0xBFA18, symSize: 0x18 }
  - { offset: 0x4D61C4, size: 0x8, addend: 0x0, symName: __ZNKSt3__120__shared_ptr_pointerIPNS_13__empty_stateIwEENS_10shared_ptrIS2_E27__shared_ptr_default_deleteIS2_S2_EENS_9allocatorIS2_EEE13__get_deleterERKSt9type_info, symObjAddr: 0x14910, symBinAddr: 0xBFA30, symSize: 0x74 }
  - { offset: 0x4D62C4, size: 0x8, addend: 0x0, symName: __ZNSt3__120__shared_ptr_pointerIPNS_13__empty_stateIwEENS_10shared_ptrIS2_E27__shared_ptr_default_deleteIS2_S2_EENS_9allocatorIS2_EEE21__on_zero_shared_weakEv, symObjAddr: 0x14984, symBinAddr: 0xBFAA4, symSize: 0x8 }
  - { offset: 0x4D62F6, size: 0x8, addend: 0x0, symName: __ZNSt3__120__shared_ptr_pointerIPNS_13__empty_stateIwEENS_10shared_ptrIS2_E27__shared_ptr_default_deleteIS2_S2_EENS_9allocatorIS2_EEE21__on_zero_shared_weakEv, symObjAddr: 0x14984, symBinAddr: 0xBFAA4, symSize: 0x8 }
  - { offset: 0x4D6318, size: 0x8, addend: 0x0, symName: __ZNSt3__120__shared_ptr_pointerIPNS_13__empty_stateIwEENS_10shared_ptrIS2_E27__shared_ptr_default_deleteIS2_S2_EENS_9allocatorIS2_EEE21__on_zero_shared_weakEv, symObjAddr: 0x14984, symBinAddr: 0xBFAA4, symSize: 0x8 }
  - { offset: 0x4D6341, size: 0x8, addend: 0x0, symName: __ZNSt3__120__shared_ptr_pointerIPNS_13__empty_stateIwEENS_10shared_ptrIS2_E27__shared_ptr_default_deleteIS2_S2_EENS_9allocatorIS2_EEE21__on_zero_shared_weakEv, symObjAddr: 0x14984, symBinAddr: 0xBFAA4, symSize: 0x8 }
  - { offset: 0x4D6364, size: 0x8, addend: 0x0, symName: __ZNSt3__120__shared_ptr_pointerIPNS_13__empty_stateIwEENS_10shared_ptrIS2_E27__shared_ptr_default_deleteIS2_S2_EENS_9allocatorIS2_EEE21__on_zero_shared_weakEv, symObjAddr: 0x14984, symBinAddr: 0xBFAA4, symSize: 0x8 }
  - { offset: 0x4D63CB, size: 0x8, addend: 0x0, symName: __ZNSt3__113__empty_stateIwED1Ev, symObjAddr: 0x1498C, symBinAddr: 0xBFAAC, symSize: 0x48 }
  - { offset: 0x4D63EF, size: 0x8, addend: 0x0, symName: __ZNSt3__113__empty_stateIwED1Ev, symObjAddr: 0x1498C, symBinAddr: 0xBFAAC, symSize: 0x48 }
  - { offset: 0x4D640D, size: 0x8, addend: 0x0, symName: __ZNSt3__113__empty_stateIwED1Ev, symObjAddr: 0x1498C, symBinAddr: 0xBFAAC, symSize: 0x48 }
  - { offset: 0x4D646F, size: 0x8, addend: 0x0, symName: __ZNKSt3__113__empty_stateIwE6__execERNS_7__stateIwEE, symObjAddr: 0x14A20, symBinAddr: 0xBFB40, symSize: 0x14 }
  - { offset: 0x4D64BF, size: 0x8, addend: 0x0, symName: __ZNSt3__116__owns_one_stateIwED1Ev, symObjAddr: 0x14A34, symBinAddr: 0xBFB54, symSize: 0x48 }
  - { offset: 0x4D64E3, size: 0x8, addend: 0x0, symName: __ZNSt3__116__owns_one_stateIwED1Ev, symObjAddr: 0x14A34, symBinAddr: 0xBFB54, symSize: 0x48 }
  - { offset: 0x4D6526, size: 0x8, addend: 0x0, symName: __ZNSt3__116__owns_one_stateIwED0Ev, symObjAddr: 0x14A7C, symBinAddr: 0xBFB9C, symSize: 0x4C }
  - { offset: 0x4D6553, size: 0x8, addend: 0x0, symName: __ZNSt3__116__owns_one_stateIwED0Ev, symObjAddr: 0x14A7C, symBinAddr: 0xBFB9C, symSize: 0x4C }
  - { offset: 0x4D6571, size: 0x8, addend: 0x0, symName: __ZNSt3__116__owns_one_stateIwED0Ev, symObjAddr: 0x14A7C, symBinAddr: 0xBFB9C, symSize: 0x4C }
  - { offset: 0x4D6696, size: 0x8, addend: 0x0, symName: __ZNSt3__111basic_regexIwNS_12regex_traitsIwEEEC1B8ne190107Ev, symObjAddr: 0x154FC, symBinAddr: 0xC061C, symSize: 0x6C }
  - { offset: 0x4D675D, size: 0x8, addend: 0x0, symName: __ZNSt3__111basic_regexIwNS_12regex_traitsIwEEE16__push_lookaheadERKS3_bj, symObjAddr: 0x15568, symBinAddr: 0xC0688, symSize: 0xB0 }
  - { offset: 0x4D6B20, size: 0x8, addend: 0x0, symName: __ZNSt3__111basic_regexIwNS_12regex_traitsIwEEE26__parse_bracket_expressionINS_11__wrap_iterIPKwEEEET_S9_S9_, symObjAddr: 0x16D38, symBinAddr: 0xC1E58, symSize: 0x164 }
  - { offset: 0x4D6D48, size: 0x8, addend: 0x0, symName: __ZNSt3__111basic_regexIwNS_12regex_traitsIwEEE19__parse_atom_escapeINS_11__wrap_iterIPKwEEEET_S9_S9_, symObjAddr: 0x16BD8, symBinAddr: 0xC1CF8, symSize: 0x160 }
  - { offset: 0x4D6EA1, size: 0x8, addend: 0x0, symName: __ZNSt3__111basic_regexIwNS_12regex_traitsIwEEE26__parse_bracket_expressionINS_11__wrap_iterIPKwEEEET_S9_S9_, symObjAddr: 0x16D38, symBinAddr: 0xC1E58, symSize: 0x164 }
  - { offset: 0x4D6EB5, size: 0x8, addend: 0x0, symName: __ZNSt3__111basic_regexIwNS_12regex_traitsIwEEE25__parse_pattern_characterINS_11__wrap_iterIPKwEEEET_S9_S9_, symObjAddr: 0x16E9C, symBinAddr: 0xC1FBC, symSize: 0x78 }
  - { offset: 0x4D70B4, size: 0x8, addend: 0x0, symName: __ZNSt3__111basic_regexIwNS_12regex_traitsIwEEE11__push_loopEmmPNS_16__owns_one_stateIwEEmmb, symObjAddr: 0x1BD18, symBinAddr: 0xC6E38, symSize: 0x114 }
  - { offset: 0x4D75DB, size: 0x8, addend: 0x0, symName: __ZNSt3__120__l_anchor_multilineIwED1Ev, symObjAddr: 0x15618, symBinAddr: 0xC0738, symSize: 0x48 }
  - { offset: 0x4D75FF, size: 0x8, addend: 0x0, symName: __ZNSt3__120__l_anchor_multilineIwED1Ev, symObjAddr: 0x15618, symBinAddr: 0xC0738, symSize: 0x48 }
  - { offset: 0x4D761D, size: 0x8, addend: 0x0, symName: __ZNSt3__120__l_anchor_multilineIwED1Ev, symObjAddr: 0x15618, symBinAddr: 0xC0738, symSize: 0x48 }
  - { offset: 0x4D7664, size: 0x8, addend: 0x0, symName: __ZNSt3__120__l_anchor_multilineIwED0Ev, symObjAddr: 0x15660, symBinAddr: 0xC0780, symSize: 0x4C }
  - { offset: 0x4D7694, size: 0x8, addend: 0x0, symName: __ZNSt3__120__l_anchor_multilineIwED0Ev, symObjAddr: 0x15660, symBinAddr: 0xC0780, symSize: 0x4C }
  - { offset: 0x4D76B2, size: 0x8, addend: 0x0, symName: __ZNSt3__120__l_anchor_multilineIwED0Ev, symObjAddr: 0x15660, symBinAddr: 0xC0780, symSize: 0x4C }
  - { offset: 0x4D76D0, size: 0x8, addend: 0x0, symName: __ZNSt3__120__l_anchor_multilineIwED0Ev, symObjAddr: 0x15660, symBinAddr: 0xC0780, symSize: 0x4C }
  - { offset: 0x4D76FB, size: 0x8, addend: 0x0, symName: __ZNKSt3__120__l_anchor_multilineIwE6__execERNS_7__stateIwEE, symObjAddr: 0x156AC, symBinAddr: 0xC07CC, symSize: 0x68 }
  - { offset: 0x4D775F, size: 0x8, addend: 0x0, symName: __ZNSt3__120__r_anchor_multilineIwED1Ev, symObjAddr: 0x15714, symBinAddr: 0xC0834, symSize: 0x48 }
  - { offset: 0x4D7783, size: 0x8, addend: 0x0, symName: __ZNSt3__120__r_anchor_multilineIwED1Ev, symObjAddr: 0x15714, symBinAddr: 0xC0834, symSize: 0x48 }
  - { offset: 0x4D77A1, size: 0x8, addend: 0x0, symName: __ZNSt3__120__r_anchor_multilineIwED1Ev, symObjAddr: 0x15714, symBinAddr: 0xC0834, symSize: 0x48 }
  - { offset: 0x4D77E8, size: 0x8, addend: 0x0, symName: __ZNSt3__120__r_anchor_multilineIwED0Ev, symObjAddr: 0x1575C, symBinAddr: 0xC087C, symSize: 0x4C }
  - { offset: 0x4D7818, size: 0x8, addend: 0x0, symName: __ZNSt3__120__r_anchor_multilineIwED0Ev, symObjAddr: 0x1575C, symBinAddr: 0xC087C, symSize: 0x4C }
  - { offset: 0x4D7836, size: 0x8, addend: 0x0, symName: __ZNSt3__120__r_anchor_multilineIwED0Ev, symObjAddr: 0x1575C, symBinAddr: 0xC087C, symSize: 0x4C }
  - { offset: 0x4D7854, size: 0x8, addend: 0x0, symName: __ZNSt3__120__r_anchor_multilineIwED0Ev, symObjAddr: 0x1575C, symBinAddr: 0xC087C, symSize: 0x4C }
  - { offset: 0x4D787F, size: 0x8, addend: 0x0, symName: __ZNKSt3__120__r_anchor_multilineIwE6__execERNS_7__stateIwEE, symObjAddr: 0x157A8, symBinAddr: 0xC08C8, symSize: 0x54 }
  - { offset: 0x4D78E3, size: 0x8, addend: 0x0, symName: __ZNSt3__115__word_boundaryIwNS_12regex_traitsIwEEED1Ev, symObjAddr: 0x157FC, symBinAddr: 0xC091C, symSize: 0x58 }
  - { offset: 0x4D7993, size: 0x8, addend: 0x0, symName: __ZNSt3__115__word_boundaryIwNS_12regex_traitsIwEEED0Ev, symObjAddr: 0x15854, symBinAddr: 0xC0974, symSize: 0x5C }
  - { offset: 0x4D7AAB, size: 0x8, addend: 0x0, symName: __ZNKSt3__115__word_boundaryIwNS_12regex_traitsIwEEE6__execERNS_7__stateIwEE, symObjAddr: 0x158B0, symBinAddr: 0xC09D0, symSize: 0x120 }
  - { offset: 0x4D7CD0, size: 0x8, addend: 0x0, symName: __ZNSt3__111__lookaheadIwNS_12regex_traitsIwEEED1Ev, symObjAddr: 0x159D0, symBinAddr: 0xC0AF0, symSize: 0x8C }
  - { offset: 0x4D7E30, size: 0x8, addend: 0x0, symName: __ZNSt3__111__lookaheadIwNS_12regex_traitsIwEEED0Ev, symObjAddr: 0x15A5C, symBinAddr: 0xC0B7C, symSize: 0x90 }
  - { offset: 0x4D805A, size: 0x8, addend: 0x0, symName: __ZNKSt3__111__lookaheadIwNS_12regex_traitsIwEEE6__execERNS_7__stateIwEE, symObjAddr: 0x15AEC, symBinAddr: 0xC0C0C, symSize: 0x194 }
  - { offset: 0x4D8693, size: 0x8, addend: 0x0, symName: __ZNSt3__16vectorINS_9sub_matchIPKwEENS_9allocatorIS4_EEE6assignEmRKS4_, symObjAddr: 0x16140, symBinAddr: 0xC1260, symSize: 0x1D4 }
  - { offset: 0x4D8C4F, size: 0x8, addend: 0x0, symName: __ZNKSt3__16vectorINS_9sub_matchIPKwEENS_9allocatorIS4_EEE20__throw_length_errorB8ne190107Ev, symObjAddr: 0x16314, symBinAddr: 0xC1434, symSize: 0x14 }
  - { offset: 0x4D8C61, size: 0x8, addend: 0x0, symName: __ZNKSt3__111basic_regexIwNS_12regex_traitsIwEEE21__match_at_start_ecmaINS_9allocatorINS_9sub_matchIPKwEEEEEEbS8_S8_RNS_13match_resultsIS8_T_EENS_15regex_constants15match_flag_typeEb, symObjAddr: 0x15C80, symBinAddr: 0xC0DA0, symSize: 0x4C0 }
  - { offset: 0x4DA738, size: 0x8, addend: 0x0, symName: __ZNSt3__16vectorINS_7__stateIwEENS_9allocatorIS2_EEE21__push_back_slow_pathIS2_EEPS2_OT_, symObjAddr: 0x16410, symBinAddr: 0xC1530, symSize: 0x198 }
  - { offset: 0x4DAF6D, size: 0x8, addend: 0x0, symName: __ZNSt3__16vectorINS_9sub_matchIPKwEENS_9allocatorIS4_EEE8__appendEmRKS4_, symObjAddr: 0x1677C, symBinAddr: 0xC189C, symSize: 0x19C }
  - { offset: 0x4DB425, size: 0x8, addend: 0x0, symName: __ZNSt3__16vectorINS_4pairImPKwEENS_9allocatorIS4_EEE8__appendEm, symObjAddr: 0x16918, symBinAddr: 0xC1A38, symSize: 0x128 }
  - { offset: 0x4DB430, size: 0x8, addend: 0x0, symName: __ZNSt3__16vectorINS_4pairImPKwEENS_9allocatorIS4_EEE8__appendEm, symObjAddr: 0x16918, symBinAddr: 0xC1A38, symSize: 0x128 }
  - { offset: 0x4DB8AA, size: 0x8, addend: 0x0, symName: __ZNKSt3__16vectorINS_4pairImPKwEENS_9allocatorIS4_EEE20__throw_length_errorB8ne190107Ev, symObjAddr: 0x16A40, symBinAddr: 0xC1B60, symSize: 0x14 }
  - { offset: 0x4DB8B5, size: 0x8, addend: 0x0, symName: __ZNSt3__17__stateIwEC2ERKS1_, symObjAddr: 0x16A54, symBinAddr: 0xC1B74, symSize: 0x184 }
  - { offset: 0x4DBF53, size: 0x8, addend: 0x0, symName: __ZNSt3__16vectorINS_7__stateIwEENS_9allocatorIS2_EEED1B8ne190107Ev, symObjAddr: 0x16378, symBinAddr: 0xC1498, symSize: 0x98 }
  - { offset: 0x4DC470, size: 0x8, addend: 0x0, symName: __ZNSt3__17__stateIwED1Ev, symObjAddr: 0x16328, symBinAddr: 0xC1448, symSize: 0x50 }
  - { offset: 0x4DCBB2, size: 0x8, addend: 0x0, symName: __ZNSt3__16vectorINS_7__stateIwEENS_9allocatorIS2_EEE26__swap_out_circular_bufferERNS_14__split_bufferIS2_RS4_EE, symObjAddr: 0x165A8, symBinAddr: 0xC16C8, symSize: 0x134 }
  - { offset: 0x4DD1F7, size: 0x8, addend: 0x0, symName: __ZNKSt3__16vectorINS_7__stateIwEENS_9allocatorIS2_EEE20__throw_length_errorB8ne190107Ev, symObjAddr: 0x16768, symBinAddr: 0xC1888, symSize: 0x14 }
  - { offset: 0x4DD221, size: 0x8, addend: 0x0, symName: __ZNSt3__16vectorINS_9sub_matchIPKwEENS_9allocatorIS4_EEE8__appendEmRKS4_, symObjAddr: 0x1677C, symBinAddr: 0xC189C, symSize: 0x19C }
  - { offset: 0x4DD22C, size: 0x8, addend: 0x0, symName: __ZNSt3__114__split_bufferINS_7__stateIwEERNS_9allocatorIS2_EEED1Ev, symObjAddr: 0x166DC, symBinAddr: 0xC17FC, symSize: 0x8C }
  - { offset: 0x4DDB9C, size: 0x8, addend: 0x0, symName: __ZNKSt3__16vectorINS_4pairImPKwEENS_9allocatorIS4_EEE20__throw_length_errorB8ne190107Ev, symObjAddr: 0x16A40, symBinAddr: 0xC1B60, symSize: 0x14 }
  - { offset: 0x4DDBC6, size: 0x8, addend: 0x0, symName: __ZNSt3__17__stateIwEC2ERKS1_, symObjAddr: 0x16A54, symBinAddr: 0xC1B74, symSize: 0x184 }
  - { offset: 0x4DDE36, size: 0x8, addend: 0x0, symName: __ZNSt3__111basic_regexIwNS_12regex_traitsIwEEE11__push_charEw, symObjAddr: 0x1763C, symBinAddr: 0xC275C, symSize: 0x140 }
  - { offset: 0x4DE19F, size: 0x8, addend: 0x0, symName: __ZNSt3__111basic_regexIwNS_12regex_traitsIwEEE15__push_back_refEi, symObjAddr: 0x1777C, symBinAddr: 0xC289C, symSize: 0xCC }
  - { offset: 0x4DE351, size: 0x8, addend: 0x0, symName: __ZNSt3__111basic_regexIwNS_12regex_traitsIwEEE30__parse_character_class_escapeINS_11__wrap_iterIPKwEEEET_S9_S9_, symObjAddr: 0x16FA8, symBinAddr: 0xC20C8, symSize: 0x274 }
  - { offset: 0x4DE7C0, size: 0x8, addend: 0x0, symName: __ZNSt3__111basic_regexIwNS_12regex_traitsIwEEE24__parse_character_escapeINS_11__wrap_iterIPKwEEEET_S9_S9_PNS_12basic_stringIwNS_11char_traitsIwEENS_9allocatorIwEEEE, symObjAddr: 0x1721C, symBinAddr: 0xC233C, symSize: 0x420 }
  - { offset: 0x4DED21, size: 0x8, addend: 0x0, symName: __ZNSt3__111basic_regexIwNS_12regex_traitsIwEEE11__push_charEw, symObjAddr: 0x1763C, symBinAddr: 0xC275C, symSize: 0x140 }
  - { offset: 0x4DEE0A, size: 0x8, addend: 0x0, symName: __ZNSt3__120__bracket_expressionIwNS_12regex_traitsIwEEEC2B8ne190107ERKS2_PNS_6__nodeIwEEbbb, symObjAddr: 0x18138, symBinAddr: 0xC3258, symSize: 0x1C0 }
  - { offset: 0x4DF63D, size: 0x8, addend: 0x0, symName: __ZNSt3__120__bracket_expressionIwNS_12regex_traitsIwEEE10__add_charB8ne190107Ew, symObjAddr: 0x17FA4, symBinAddr: 0xC30C4, symSize: 0x194 }
  - { offset: 0x4DF915, size: 0x8, addend: 0x0, symName: __ZNSt3__120__bracket_expressionIwNS_12regex_traitsIwEEEC2B8ne190107ERKS2_PNS_6__nodeIwEEbbb, symObjAddr: 0x18138, symBinAddr: 0xC3258, symSize: 0x1C0 }
  - { offset: 0x4DF920, size: 0x8, addend: 0x0, symName: __ZNSt3__111basic_regexIwNS_12regex_traitsIwEEE23__parse_expression_termINS_11__wrap_iterIPKwEEEET_S9_S9_PNS_20__bracket_expressionIwS2_EE, symObjAddr: 0x19640, symBinAddr: 0xC4760, symSize: 0x460 }
  - { offset: 0x4E0A26, size: 0x8, addend: 0x0, symName: __ZNSt3__123__match_any_but_newlineIwED1Ev, symObjAddr: 0x16F14, symBinAddr: 0xC2034, symSize: 0x48 }
  - { offset: 0x4E0A4A, size: 0x8, addend: 0x0, symName: __ZNSt3__123__match_any_but_newlineIwED1Ev, symObjAddr: 0x16F14, symBinAddr: 0xC2034, symSize: 0x48 }
  - { offset: 0x4E0A68, size: 0x8, addend: 0x0, symName: __ZNSt3__123__match_any_but_newlineIwED1Ev, symObjAddr: 0x16F14, symBinAddr: 0xC2034, symSize: 0x48 }
  - { offset: 0x4E0AAF, size: 0x8, addend: 0x0, symName: __ZNSt3__123__match_any_but_newlineIwED0Ev, symObjAddr: 0x16F5C, symBinAddr: 0xC207C, symSize: 0x4C }
  - { offset: 0x4E0ADF, size: 0x8, addend: 0x0, symName: __ZNSt3__123__match_any_but_newlineIwED0Ev, symObjAddr: 0x16F5C, symBinAddr: 0xC207C, symSize: 0x4C }
  - { offset: 0x4E0AFD, size: 0x8, addend: 0x0, symName: __ZNSt3__123__match_any_but_newlineIwED0Ev, symObjAddr: 0x16F5C, symBinAddr: 0xC207C, symSize: 0x4C }
  - { offset: 0x4E0B1B, size: 0x8, addend: 0x0, symName: __ZNSt3__123__match_any_but_newlineIwED0Ev, symObjAddr: 0x16F5C, symBinAddr: 0xC207C, symSize: 0x4C }
  - { offset: 0x4E0F4B, size: 0x8, addend: 0x0, symName: __ZNSt3__118__match_char_icaseIwNS_12regex_traitsIwEEED1Ev, symObjAddr: 0x17848, symBinAddr: 0xC2968, symSize: 0x58 }
  - { offset: 0x4E0FFB, size: 0x8, addend: 0x0, symName: __ZNSt3__118__match_char_icaseIwNS_12regex_traitsIwEEED0Ev, symObjAddr: 0x178A0, symBinAddr: 0xC29C0, symSize: 0x5C }
  - { offset: 0x4E10B7, size: 0x8, addend: 0x0, symName: __ZNKSt3__118__match_char_icaseIwNS_12regex_traitsIwEEE6__execERNS_7__stateIwEE, symObjAddr: 0x178FC, symBinAddr: 0xC2A1C, symSize: 0x84 }
